---
triple:          'arm64-apple-darwin'
binary-path:     '/Users/shanshan/repo/_me/planck/target/debug/deps/lib_planck.dylib'
relocations:
  - { offset: 0x1E, size: 0x8, addend: 0x0, symName: '__ZN4core4hash5impls52_$LT$impl$u20$core..hash..Hash$u20$for$u20$$RF$T$GT$4hash17hbf57e874fcaf158fE', symObjAddr: 0x0, symBinAddr: 0x888, symSize: 0x30 }
  - { offset: 0x3F, size: 0x8, addend: 0x0, symName: '__ZN4core4hash5impls52_$LT$impl$u20$core..hash..Hash$u20$for$u20$$RF$T$GT$4hash17hbf57e874fcaf158fE', symObjAddr: 0x0, symBinAddr: 0x888, symSize: 0x30 }
  - { offset: 0x90, size: 0x8, addend: 0x0, symName: '__ZN4core4hash5impls52_$LT$impl$u20$core..hash..Hash$u20$for$u20$usize$GT$4hash17hdba103271256147fE', symObjAddr: 0x30, symBinAddr: 0x8B8, symSize: 0x38 }
  - { offset: 0xD8, size: 0x8, addend: 0x0, symName: '__ZN4core4hash5impls60_$LT$impl$u20$core..hash..Hash$u20$for$u20$$LP$T$C$B$RP$$GT$4hash17h1cd359b0f688b3c2E', symObjAddr: 0x68, symBinAddr: 0x8F0, symSize: 0x4C }
  - { offset: 0x2DD, size: 0x8, addend: 0x0, symName: '__ZN5alloc3vec12Vec$LT$T$GT$3new17hda3e0ae4866f919fE', symObjAddr: 0x0, symBinAddr: 0x93C, symSize: 0x14 }
  - { offset: 0x6B4, size: 0x8, addend: 0x0, symName: '__ZN67_$LT$alloc..vec..Vec$LT$T$C$A$GT$$u20$as$u20$core..clone..Clone$GT$5clone17h2a870c186356604dE', symObjAddr: 0x13C, symBinAddr: 0xA78, symSize: 0x4C }
  - { offset: 0xB0F, size: 0x8, addend: 0x0, symName: '__ZN5alloc3vec12Vec$LT$T$GT$3new17hda3e0ae4866f919fE', symObjAddr: 0x0, symBinAddr: 0x93C, symSize: 0x14 }
  - { offset: 0xBB3, size: 0x8, addend: 0x0, symName: '__ZN5alloc3vec16Vec$LT$T$C$A$GT$3len17h22e744be9ff2e040E', symObjAddr: 0x14, symBinAddr: 0x950, symSize: 0x18 }
  - { offset: 0xBF5, size: 0x8, addend: 0x0, symName: '__ZN5alloc3vec16Vec$LT$T$C$A$GT$4push17h52ce516add994d85E', symObjAddr: 0x2C, symBinAddr: 0x968, symSize: 0x30 }
  - { offset: 0xD5A, size: 0x8, addend: 0x0, symName: '__ZN5alloc3vec16Vec$LT$T$C$A$GT$8push_mut17h456b422341e53325E', symObjAddr: 0x5C, symBinAddr: 0x998, symSize: 0xE0 }
  - { offset: 0x1064, size: 0x8, addend: 0x0, symName: __ZN4core4hash11BuildHasher8hash_one17h939ae534e65c153cE, symObjAddr: 0x0, symBinAddr: 0xAC4, symSize: 0x84 }
  - { offset: 0x1080, size: 0x8, addend: 0x0, symName: __ZN4core4hash11BuildHasher8hash_one17h939ae534e65c153cE, symObjAddr: 0x0, symBinAddr: 0xAC4, symSize: 0x84 }
  - { offset: 0x126E, size: 0x8, addend: 0x0, symName: __ZN4core9core_arch7aarch644neon9generated7vld1_u817h75c73f2df2947f3eE, symObjAddr: 0x0, symBinAddr: 0xB48, symSize: 0x34 }
  - { offset: 0x1294, size: 0x8, addend: 0x0, symName: __ZN4core9core_arch7aarch644neon9generated7vld1_u817h75c73f2df2947f3eE, symObjAddr: 0x0, symBinAddr: 0xB48, symSize: 0x34 }
  - { offset: 0x12C2, size: 0x8, addend: 0x0, symName: __ZN4core9core_arch7aarch644neon9generated7vst1_u817h1ccf54b1f04c14faE, symObjAddr: 0x34, symBinAddr: 0xB7C, symSize: 0x40 }
  - { offset: 0x12FC, size: 0x8, addend: 0x0, symName: __ZN4core9core_arch7aarch644neon9generated8vcgez_s817h762abe67e5a53ac5E, symObjAddr: 0x74, symBinAddr: 0xBBC, symSize: 0x68 }
  - { offset: 0x139E, size: 0x8, addend: 0x0, symName: __ZN4core9core_arch7aarch644neon9generated8vcltz_s817heb29ae1537d13210E, symObjAddr: 0xDC, symBinAddr: 0xC24, symSize: 0x68 }
  - { offset: 0x1594, size: 0x8, addend: 0x0, symName: '__ZN4pyo35types4none120_$LT$impl$u20$pyo3..conversion..IntoPy$LT$pyo3..instance..Py$LT$pyo3..types..any..PyAny$GT$$GT$$u20$for$u20$$LP$$RP$$GT$7into_py17h88fbe35b122d8bd8E', symObjAddr: 0x0, symBinAddr: 0xC8C, symSize: 0x20 }
  - { offset: 0x26F5, size: 0x8, addend: 0x0, symName: '__ZN4pyo35types4none120_$LT$impl$u20$pyo3..conversion..IntoPy$LT$pyo3..instance..Py$LT$pyo3..types..any..PyAny$GT$$GT$$u20$for$u20$$LP$$RP$$GT$7into_py17h88fbe35b122d8bd8E', symObjAddr: 0x0, symBinAddr: 0xC8C, symSize: 0x20 }
  - { offset: 0x2D51, size: 0x8, addend: 0x0, symName: __ZN4pyo35types4none6PyNone9get_bound17h439f11e8a5139b26E, symObjAddr: 0x20, symBinAddr: 0xCAC, symSize: 0x2C }
  - { offset: 0x2DA3, size: 0x8, addend: 0x0, symName: '__ZN4core3ops8function6FnOnce40call_once$u7b$$u7b$vtable.shim$u7d$$u7d$17h6a66a364d1d28544E', symObjAddr: 0x0, symBinAddr: 0xCD8, symSize: 0x38 }
  - { offset: 0x3678, size: 0x8, addend: 0x0, symName: '__ZN4core3ops8function6FnOnce40call_once$u7b$$u7b$vtable.shim$u7d$$u7d$17h6a66a364d1d28544E', symObjAddr: 0x0, symBinAddr: 0xCD8, symSize: 0x38 }
  - { offset: 0x36BC, size: 0x8, addend: 0x0, symName: '__ZN4core3ops8function6FnOnce40call_once$u7b$$u7b$vtable.shim$u7d$$u7d$17h997725d9e46bc353E', symObjAddr: 0x38, symBinAddr: 0xD10, symSize: 0x38 }
  - { offset: 0x3700, size: 0x8, addend: 0x0, symName: '__ZN4core3ops8function6FnOnce40call_once$u7b$$u7b$vtable.shim$u7d$$u7d$17hd71f6f27294f1f23E', symObjAddr: 0x70, symBinAddr: 0xD48, symSize: 0x38 }
  - { offset: 0x3744, size: 0x8, addend: 0x0, symName: __ZN4core3ops8function6FnOnce9call_once17h02fc0a8f94ca2562E, symObjAddr: 0xA8, symBinAddr: 0xD80, symSize: 0x4C }
  - { offset: 0x3788, size: 0x8, addend: 0x0, symName: __ZN4core3ops8function6FnOnce9call_once17h033b90198485a29cE, symObjAddr: 0xF4, symBinAddr: 0xDCC, symSize: 0x4C }
  - { offset: 0x37CC, size: 0x8, addend: 0x0, symName: __ZN4core3ops8function6FnOnce9call_once17h07750f04223d0e35E, symObjAddr: 0x140, symBinAddr: 0xE18, symSize: 0x44 }
  - { offset: 0x380C, size: 0x8, addend: 0x0, symName: __ZN4core3ops8function6FnOnce9call_once17h157a4392cbdf729cE, symObjAddr: 0x184, symBinAddr: 0xE5C, symSize: 0x44 }
  - { offset: 0x3850, size: 0x8, addend: 0x0, symName: __ZN4core3ops8function6FnOnce9call_once17h187366539496aac5E, symObjAddr: 0x1C8, symBinAddr: 0xEA0, symSize: 0x44 }
  - { offset: 0x3894, size: 0x8, addend: 0x0, symName: __ZN4core3ops8function6FnOnce9call_once17h2ee18bd2ec069bd0E, symObjAddr: 0x20C, symBinAddr: 0xEE4, symSize: 0x4C }
  - { offset: 0x38D8, size: 0x8, addend: 0x0, symName: __ZN4core3ops8function6FnOnce9call_once17h32e13305d483e12aE, symObjAddr: 0x258, symBinAddr: 0xF30, symSize: 0x24 }
  - { offset: 0x391C, size: 0x8, addend: 0x0, symName: __ZN4core3ops8function6FnOnce9call_once17h38893db13e36096aE, symObjAddr: 0x27C, symBinAddr: 0xF54, symSize: 0x58 }
  - { offset: 0x3960, size: 0x8, addend: 0x0, symName: __ZN4core3ops8function6FnOnce9call_once17h3ebc131b079683a5E, symObjAddr: 0x2D4, symBinAddr: 0xFAC, symSize: 0x44 }
  - { offset: 0x39A4, size: 0x8, addend: 0x0, symName: __ZN4core3ops8function6FnOnce9call_once17h52837fdc104720edE, symObjAddr: 0x318, symBinAddr: 0xFF0, symSize: 0x24 }
  - { offset: 0x39E8, size: 0x8, addend: 0x0, symName: __ZN4core3ops8function6FnOnce9call_once17h5ec0e711ee8972c2E, symObjAddr: 0x33C, symBinAddr: 0x1014, symSize: 0x24 }
  - { offset: 0x3A2C, size: 0x8, addend: 0x0, symName: __ZN4core3ops8function6FnOnce9call_once17h711c30349b35a194E, symObjAddr: 0x360, symBinAddr: 0x1038, symSize: 0x5C }
  - { offset: 0x3A70, size: 0x8, addend: 0x0, symName: __ZN4core3ops8function6FnOnce9call_once17h73726d1df2a45cd8E, symObjAddr: 0x3BC, symBinAddr: 0x1094, symSize: 0x4C }
  - { offset: 0x3AB4, size: 0x8, addend: 0x0, symName: __ZN4core3ops8function6FnOnce9call_once17h77fd061930a11f77E, symObjAddr: 0x408, symBinAddr: 0x10E0, symSize: 0x24 }
  - { offset: 0x3AF8, size: 0x8, addend: 0x0, symName: __ZN4core3ops8function6FnOnce9call_once17h8ee96e5b48aeb951E, symObjAddr: 0x42C, symBinAddr: 0x1104, symSize: 0x58 }
  - { offset: 0x3B3C, size: 0x8, addend: 0x0, symName: __ZN4core3ops8function6FnOnce9call_once17hb52ab10e5d63eafbE, symObjAddr: 0x484, symBinAddr: 0x115C, symSize: 0x3C }
  - { offset: 0x3B80, size: 0x8, addend: 0x0, symName: __ZN4core3ops8function6FnOnce9call_once17hcc518bca7ad70b4eE, symObjAddr: 0x4C0, symBinAddr: 0x1198, symSize: 0x44 }
  - { offset: 0x3BC4, size: 0x8, addend: 0x0, symName: __ZN4core3ops8function6FnOnce9call_once17hf26694c10caa1523E, symObjAddr: 0x528, symBinAddr: 0x11DC, symSize: 0x3C }
  - { offset: 0x3C08, size: 0x8, addend: 0x0, symName: __ZN4core3ops8function6FnOnce9call_once17hf58e59c49ddfb26dE, symObjAddr: 0x564, symBinAddr: 0x1218, symSize: 0x24 }
  - { offset: 0x3C4C, size: 0x8, addend: 0x0, symName: __ZN4core3ops8function6FnOnce9call_once17hfc83c7c858d32c15E, symObjAddr: 0x588, symBinAddr: 0x123C, symSize: 0x24 }
  - { offset: 0x3C98, size: 0x8, addend: 0x0, symName: '__ZN4core3ptr106drop_in_place$LT$core..result..Result$LT$$BP$mut$u20$pyo3_ffi..object..PyObject$C$pyo3..err..PyErr$GT$$GT$17hb02f227f20da854eE', symObjAddr: 0x660, symBinAddr: 0x1260, symSize: 0x40 }
  - { offset: 0x3CC7, size: 0x8, addend: 0x0, symName: '__ZN4core3ptr108drop_in_place$LT$core..result..Result$LT$$LP$$RP$$C$alloc..borrow..Cow$LT$core..ffi..c_str..CStr$GT$$GT$$GT$17hef1fd300084aba6aE', symObjAddr: 0x6E8, symBinAddr: 0x12A0, symSize: 0x44 }
  - { offset: 0x3CF6, size: 0x8, addend: 0x0, symName: '__ZN4core3ptr117drop_in_place$LT$hashbrown..raw..RawTable$LT$$LP$$LP$usize$C$usize$RP$$C$planck_core..plan..ExecutionPlan$RP$$GT$$GT$17hc9d6baec74454494E', symObjAddr: 0x72C, symBinAddr: 0x12E4, symSize: 0x24 }
  - { offset: 0x3D25, size: 0x8, addend: 0x0, symName: '__ZN4core3ptr121drop_in_place$LT$std..collections..hash..map..HashMap$LT$$LP$usize$C$usize$RP$$C$planck_core..plan..ExecutionPlan$GT$$GT$17hf6c64e42f5ae6ab8E', symObjAddr: 0x750, symBinAddr: 0x1308, symSize: 0x24 }
  - { offset: 0x3D54, size: 0x8, addend: 0x0, symName: '__ZN4core3ptr141drop_in_place$LT$hashbrown..map..HashMap$LT$$LP$usize$C$usize$RP$$C$planck_core..plan..ExecutionPlan$C$std..hash..random..RandomState$GT$$GT$17h1e58f12325819835E', symObjAddr: 0x804, symBinAddr: 0x132C, symSize: 0x24 }
  - { offset: 0x3D83, size: 0x8, addend: 0x0, symName: '__ZN4core3ptr151drop_in_place$LT$core..cell..UnsafeCell$LT$std..collections..hash..map..HashMap$LT$$LP$usize$C$usize$RP$$C$planck_core..plan..ExecutionPlan$GT$$GT$$GT$17hd893fc8768ebeec2E', symObjAddr: 0x828, symBinAddr: 0x1350, symSize: 0x24 }
  - { offset: 0x3DB2, size: 0x8, addend: 0x0, symName: '__ZN4core3ptr160drop_in_place$LT$std..sync..poison..mutex..Mutex$LT$std..collections..hash..map..HashMap$LT$$LP$usize$C$usize$RP$$C$planck_core..plan..ExecutionPlan$GT$$GT$$GT$17h2833dffa214cfb05E', symObjAddr: 0x84C, symBinAddr: 0x1374, symSize: 0x60 }
  - { offset: 0x3DE1, size: 0x8, addend: 0x0, symName: '__ZN4core3ptr165drop_in_place$LT$std..sync..poison..mutex..MutexGuard$LT$std..collections..hash..map..HashMap$LT$$LP$usize$C$usize$RP$$C$planck_core..plan..ExecutionPlan$GT$$GT$$GT$17h73158dc40d88f4c7E', symObjAddr: 0x8AC, symBinAddr: 0x13D4, symSize: 0x24 }
  - { offset: 0x3E10, size: 0x8, addend: 0x0, symName: '__ZN4core3ptr203drop_in_place$LT$std..sync..poison..PoisonError$LT$std..sync..poison..mutex..MutexGuard$LT$std..collections..hash..map..HashMap$LT$$LP$usize$C$usize$RP$$C$planck_core..plan..ExecutionPlan$GT$$GT$$GT$$GT$17hd628274087feb1ddE', symObjAddr: 0x8D0, symBinAddr: 0x13F8, symSize: 0x24 }
  - { offset: 0x3E3F, size: 0x8, addend: 0x0, symName: '__ZN4core3ptr305drop_in_place$LT$hashbrown..scopeguard..ScopeGuard$LT$$RF$mut$u20$hashbrown..raw..RawTable$LT$$LP$$LP$usize$C$usize$RP$$C$planck_core..plan..ExecutionPlan$RP$$GT$$C$hashbrown..raw..RawTable$LT$$LP$$LP$usize$C$usize$RP$$C$planck_core..plan..ExecutionPlan$RP$$GT$..clear..$u7b$$u7b$closure$u7d$$u7d$$GT$$GT$17h67dc0255a091f3baE', symObjAddr: 0x8F4, symBinAddr: 0x141C, symSize: 0x24 }
  - { offset: 0x3E6E, size: 0x8, addend: 0x0, symName: '__ZN4core3ptr39drop_in_place$LT$_planck..PlanCache$GT$17h8088b05b69575bedE', symObjAddr: 0x918, symBinAddr: 0x1440, symSize: 0x60 }
  - { offset: 0x3E9D, size: 0x8, addend: 0x0, symName: '__ZN4core3ptr40drop_in_place$LT$_planck..PyPlanView$GT$17hb9d5ed4443162356E', symObjAddr: 0x978, symBinAddr: 0x14A0, symSize: 0x24 }
  - { offset: 0x3ECC, size: 0x8, addend: 0x0, symName: '__ZN4core3ptr42drop_in_place$LT$_planck..PlanCompiler$GT$17h6fbf8781335eb659E', symObjAddr: 0x99C, symBinAddr: 0x14C4, symSize: 0x24 }
  - { offset: 0x3EFB, size: 0x8, addend: 0x0, symName: '__ZN4core3ptr42drop_in_place$LT$pyo3..gil..SuspendGIL$GT$17h73a48134725af374E', symObjAddr: 0x9C0, symBinAddr: 0x14E8, symSize: 0x24 }
  - { offset: 0x3F2A, size: 0x8, addend: 0x0, symName: '__ZN4core3ptr44drop_in_place$LT$_planck..PyPlanTemplate$GT$17hdec965dde12641ecE', symObjAddr: 0x9E4, symBinAddr: 0x150C, symSize: 0x24 }
  - { offset: 0x3F59, size: 0x8, addend: 0x0, symName: '__ZN4core3ptr48drop_in_place$LT$planck_core..topo..Topology$GT$17h0e39bdca49cfba16E', symObjAddr: 0xA08, symBinAddr: 0x1530, symSize: 0x24 }
  - { offset: 0x3F88, size: 0x8, addend: 0x0, symName: '__ZN4core3ptr53drop_in_place$LT$planck_core..plan..ExecutionPlan$GT$17hb81f42d9cb006c03E', symObjAddr: 0xA2C, symBinAddr: 0x1554, symSize: 0x60 }
  - { offset: 0x3FB7, size: 0x8, addend: 0x0, symName: '__ZN4core3ptr56drop_in_place$LT$planck_core..template..PlanTemplate$GT$17h709a73e1b6a0f681E', symObjAddr: 0xAB0, symBinAddr: 0x15B4, symSize: 0x90 }
  - { offset: 0x3FE6, size: 0x8, addend: 0x0, symName: '__ZN4core3ptr65drop_in_place$LT$pyo3..instance..Py$LT$_planck..PlanCache$GT$$GT$17h4e80603b2d333d4eE', symObjAddr: 0xB40, symBinAddr: 0x1644, symSize: 0x2C }
  - { offset: 0x4015, size: 0x8, addend: 0x0, symName: '__ZN4core3ptr66drop_in_place$LT$pyo3..instance..Py$LT$_planck..PyPlanView$GT$$GT$17h9b7eaa6212293fd4E', symObjAddr: 0xB6C, symBinAddr: 0x1670, symSize: 0x2C }
  - { offset: 0x4044, size: 0x8, addend: 0x0, symName: '__ZN4core3ptr66drop_in_place$LT$pyo3..pycell..PyRef$LT$_planck..PlanCache$GT$$GT$17h394462e620c86876E', symObjAddr: 0xB98, symBinAddr: 0x169C, symSize: 0x5C }
  - { offset: 0x4073, size: 0x8, addend: 0x0, symName: '__ZN4core3ptr67drop_in_place$LT$pyo3..pycell..PyRef$LT$_planck..PyPlanView$GT$$GT$17h1bf6838803a2e6dfE', symObjAddr: 0xBF4, symBinAddr: 0x16F8, symSize: 0x5C }
  - { offset: 0x40A2, size: 0x8, addend: 0x0, symName: '__ZN4core3ptr68drop_in_place$LT$pyo3..instance..Bound$LT$_planck..PlanCache$GT$$GT$17h1e84c0895e8cf3acE', symObjAddr: 0xC50, symBinAddr: 0x1754, symSize: 0x24 }
  - { offset: 0x40D1, size: 0x8, addend: 0x0, symName: '__ZN4core3ptr68drop_in_place$LT$pyo3..instance..Py$LT$_planck..PlanCompiler$GT$$GT$17h6b220ed2431476adE', symObjAddr: 0xC74, symBinAddr: 0x1778, symSize: 0x2C }
  - { offset: 0x4100, size: 0x8, addend: 0x0, symName: '__ZN4core3ptr69drop_in_place$LT$alloc..borrow..Cow$LT$core..ffi..c_str..CStr$GT$$GT$17h0ecdaba653d4746aE', symObjAddr: 0xCA0, symBinAddr: 0x17A4, symSize: 0x40 }
  - { offset: 0x412F, size: 0x8, addend: 0x0, symName: '__ZN4core3ptr69drop_in_place$LT$core..cell..UnsafeCell$LT$_planck..PlanCache$GT$$GT$17h4de08574e91ad997E', symObjAddr: 0xCE0, symBinAddr: 0x17E4, symSize: 0x24 }
  - { offset: 0x415E, size: 0x8, addend: 0x0, symName: '__ZN4core3ptr69drop_in_place$LT$pyo3..instance..Bound$LT$_planck..PyPlanView$GT$$GT$17h25331c758d78a749E', symObjAddr: 0xD04, symBinAddr: 0x1808, symSize: 0x24 }
  - { offset: 0x418D, size: 0x8, addend: 0x0, symName: '__ZN4core3ptr69drop_in_place$LT$pyo3..pycell..PyRef$LT$_planck..PlanCompiler$GT$$GT$17hfc4a8195a2de34c2E', symObjAddr: 0xD28, symBinAddr: 0x182C, symSize: 0x5C }
  - { offset: 0x41BC, size: 0x8, addend: 0x0, symName: '__ZN4core3ptr70drop_in_place$LT$core..cell..UnsafeCell$LT$_planck..PyPlanView$GT$$GT$17hb8d957140aa0cb70E', symObjAddr: 0xD84, symBinAddr: 0x1888, symSize: 0x24 }
  - { offset: 0x41EB, size: 0x8, addend: 0x0, symName: '__ZN4core3ptr70drop_in_place$LT$pyo3..instance..Py$LT$_planck..PyPlanTemplate$GT$$GT$17hac7e759aa6d28944E', symObjAddr: 0xDA8, symBinAddr: 0x18AC, symSize: 0x2C }
  - { offset: 0x421A, size: 0x8, addend: 0x0, symName: '__ZN4core3ptr71drop_in_place$LT$pyo3..instance..Bound$LT$_planck..PlanCompiler$GT$$GT$17h8a9012a83ae8c7d0E', symObjAddr: 0xDD4, symBinAddr: 0x18D8, symSize: 0x24 }
  - { offset: 0x4249, size: 0x8, addend: 0x0, symName: '__ZN4core3ptr71drop_in_place$LT$pyo3..pycell..PyRef$LT$_planck..PyPlanTemplate$GT$$GT$17h6509a9bd9c90918eE', symObjAddr: 0xDF8, symBinAddr: 0x18FC, symSize: 0x5C }
  - { offset: 0x4278, size: 0x8, addend: 0x0, symName: '__ZN4core3ptr72drop_in_place$LT$core..cell..UnsafeCell$LT$_planck..PlanCompiler$GT$$GT$17h96e80f0237f66376E', symObjAddr: 0xE54, symBinAddr: 0x1958, symSize: 0x24 }
  - { offset: 0x42A7, size: 0x8, addend: 0x0, symName: '__ZN4core3ptr73drop_in_place$LT$pyo3..instance..Bound$LT$_planck..PyPlanTemplate$GT$$GT$17hb3cd6f186bdf7c05E', symObjAddr: 0xE78, symBinAddr: 0x197C, symSize: 0x24 }
  - { offset: 0x42D6, size: 0x8, addend: 0x0, symName: '__ZN4core3ptr74drop_in_place$LT$core..cell..UnsafeCell$LT$_planck..PyPlanTemplate$GT$$GT$17h8c9307bc3241da84E', symObjAddr: 0xE9C, symBinAddr: 0x19A0, symSize: 0x24 }
  - { offset: 0x4305, size: 0x8, addend: 0x0, symName: '__ZN4core3ptr76drop_in_place$LT$alloc..vec..Vec$LT$planck_core..template..ParamSlot$GT$$GT$17h486a54f96c303002E', symObjAddr: 0xEC0, symBinAddr: 0x19C4, symSize: 0x5C }
  - { offset: 0x4334, size: 0x8, addend: 0x0, symName: '__ZN4core3ptr81drop_in_place$LT$core..option..Option$LT$planck_core..plan..ExecutionPlan$GT$$GT$17hc78f7caeb06ff354E', symObjAddr: 0xF7C, symBinAddr: 0x1A20, symSize: 0x48 }
  - { offset: 0x4363, size: 0x8, addend: 0x0, symName: '__ZN4core3ptr83drop_in_place$LT$alloc..raw_vec..RawVec$LT$planck_core..template..ParamSlot$GT$$GT$17he204b2c2aa3263d5E', symObjAddr: 0xFC4, symBinAddr: 0x1A68, symSize: 0x24 }
  - { offset: 0x4392, size: 0x8, addend: 0x0, symName: '__ZN4core3ptr85drop_in_place$LT$$LP$$LP$usize$C$usize$RP$$C$planck_core..plan..ExecutionPlan$RP$$GT$17h4dade35e0a53c405E', symObjAddr: 0xFE8, symBinAddr: 0x1A8C, symSize: 0x24 }
  - { offset: 0x43C1, size: 0x8, addend: 0x0, symName: '__ZN4core3ptr85drop_in_place$LT$pyo3..pyclass_init..PyClassInitializer$LT$_planck..PlanCache$GT$$GT$17h81999136b55c90c0E', symObjAddr: 0x100C, symBinAddr: 0x1AB0, symSize: 0x24 }
  - { offset: 0x43F0, size: 0x8, addend: 0x0, symName: '__ZN4core3ptr86drop_in_place$LT$pyo3..pyclass_init..PyClassInitializer$LT$_planck..PyPlanView$GT$$GT$17h6fb895031e5e35b0E', symObjAddr: 0x1030, symBinAddr: 0x1AD4, symSize: 0x24 }
  - { offset: 0x441F, size: 0x8, addend: 0x0, symName: '__ZN4core3ptr87drop_in_place$LT$core..result..Result$LT$_planck..PyPlanView$C$pyo3..err..PyErr$GT$$GT$17hbc1d0d3e8ccbb546E', symObjAddr: 0x1054, symBinAddr: 0x1AF8, symSize: 0x5C }
  - { offset: 0x444E, size: 0x8, addend: 0x0, symName: '__ZN4core3ptr88drop_in_place$LT$pyo3..pyclass_init..PyClassInitializer$LT$_planck..PlanCompiler$GT$$GT$17hf23bb71e363c0d8eE', symObjAddr: 0x10B0, symBinAddr: 0x1B54, symSize: 0x24 }
  - { offset: 0x447D, size: 0x8, addend: 0x0, symName: '__ZN4core3ptr89drop_in_place$LT$pyo3..pyclass_init..PyClassInitializerImpl$LT$_planck..PlanCache$GT$$GT$17h65b337906fbe00b7E', symObjAddr: 0x10D4, symBinAddr: 0x1B78, symSize: 0x58 }
  - { offset: 0x44AC, size: 0x8, addend: 0x0, symName: '__ZN4core3ptr90drop_in_place$LT$pyo3..pyclass_init..PyClassInitializer$LT$_planck..PyPlanTemplate$GT$$GT$17h0a5a701b9cb63544E', symObjAddr: 0x112C, symBinAddr: 0x1BD0, symSize: 0x24 }
  - { offset: 0x44DB, size: 0x8, addend: 0x0, symName: '__ZN4core3ptr90drop_in_place$LT$pyo3..pyclass_init..PyClassInitializerImpl$LT$_planck..PyPlanView$GT$$GT$17h4d96b4c555370643E', symObjAddr: 0x1150, symBinAddr: 0x1BF4, symSize: 0x58 }
  - { offset: 0x450A, size: 0x8, addend: 0x0, symName: '__ZN4core3ptr91drop_in_place$LT$core..result..Result$LT$_planck..PyPlanTemplate$C$pyo3..err..PyErr$GT$$GT$17h8b76e5750e794f90E', symObjAddr: 0x11A8, symBinAddr: 0x1C4C, symSize: 0x5C }
  - { offset: 0x4539, size: 0x8, addend: 0x0, symName: '__ZN4core3ptr92drop_in_place$LT$pyo3..pyclass_init..PyClassInitializerImpl$LT$_planck..PlanCompiler$GT$$GT$17hafc09b579e58646bE', symObjAddr: 0x1204, symBinAddr: 0x1CA8, symSize: 0x58 }
  - { offset: 0x4568, size: 0x8, addend: 0x0, symName: '__ZN4core3ptr94drop_in_place$LT$core..option..Option$LT$pyo3..pycell..PyRef$LT$_planck..PlanCache$GT$$GT$$GT$17hab0e9dc5739fc8f3E', symObjAddr: 0x125C, symBinAddr: 0x1D00, symSize: 0x44 }
  - { offset: 0x4597, size: 0x8, addend: 0x0, symName: '__ZN4core3ptr94drop_in_place$LT$pyo3..pyclass_init..PyClassInitializerImpl$LT$_planck..PyPlanTemplate$GT$$GT$17hf41a372a6703095aE', symObjAddr: 0x12A0, symBinAddr: 0x1D44, symSize: 0x58 }
  - { offset: 0x45C6, size: 0x8, addend: 0x0, symName: '__ZN4core3ptr95drop_in_place$LT$core..option..Option$LT$pyo3..pycell..PyRef$LT$_planck..PyPlanView$GT$$GT$$GT$17hb1c7411b5d86db76E', symObjAddr: 0x12F8, symBinAddr: 0x1D9C, symSize: 0x44 }
  - { offset: 0x45F5, size: 0x8, addend: 0x0, symName: '__ZN4core3ptr97drop_in_place$LT$core..option..Option$LT$alloc..borrow..Cow$LT$core..ffi..c_str..CStr$GT$$GT$$GT$17hda53bf9c97806daaE', symObjAddr: 0x1360, symBinAddr: 0x1DE0, symSize: 0x44 }
  - { offset: 0x4624, size: 0x8, addend: 0x0, symName: '__ZN4core3ptr97drop_in_place$LT$core..option..Option$LT$pyo3..pycell..PyRef$LT$_planck..PlanCompiler$GT$$GT$$GT$17h3002cb8aeb7b4114E', symObjAddr: 0x13A4, symBinAddr: 0x1E24, symSize: 0x44 }
  - { offset: 0x4653, size: 0x8, addend: 0x0, symName: '__ZN4core3ptr99drop_in_place$LT$core..option..Option$LT$pyo3..pycell..PyRef$LT$_planck..PyPlanTemplate$GT$$GT$$GT$17hf06f7cc0b3493818E', symObjAddr: 0x140C, symBinAddr: 0x1E68, symSize: 0x44 }
  - { offset: 0x5C75, size: 0x8, addend: 0x0, symName: '__ZN69_$LT$pyo3..instance..Py$LT$T$GT$$u20$as$u20$core..ops..drop..Drop$GT$4drop17h5673ce1383757c80E', symObjAddr: 0x1450, symBinAddr: 0x1EAC, symSize: 0x28 }
  - { offset: 0x5CA8, size: 0x8, addend: 0x0, symName: '__ZN69_$LT$pyo3..instance..Py$LT$T$GT$$u20$as$u20$core..ops..drop..Drop$GT$4drop17ha6b1b457dd412445E', symObjAddr: 0x1478, symBinAddr: 0x1ED4, symSize: 0x28 }
  - { offset: 0x5CDB, size: 0x8, addend: 0x0, symName: '__ZN69_$LT$pyo3..instance..Py$LT$T$GT$$u20$as$u20$core..ops..drop..Drop$GT$4drop17hb200d388d79525c4E', symObjAddr: 0x14A0, symBinAddr: 0x1EFC, symSize: 0x28 }
  - { offset: 0x5D0E, size: 0x8, addend: 0x0, symName: '__ZN69_$LT$pyo3..instance..Py$LT$T$GT$$u20$as$u20$core..ops..drop..Drop$GT$4drop17hececeefdd30703bdE', symObjAddr: 0x14C8, symBinAddr: 0x1F24, symSize: 0x28 }
  - { offset: 0x5D47, size: 0x8, addend: 0x0, symName: '__ZN72_$LT$pyo3..instance..Bound$LT$T$GT$$u20$as$u20$core..ops..drop..Drop$GT$4drop17h35ce34ddb913dd61E', symObjAddr: 0x15C4, symBinAddr: 0x2020, symSize: 0x1A0 }
  - { offset: 0x5DB6, size: 0x8, addend: 0x0, symName: '__ZN72_$LT$pyo3..instance..Bound$LT$T$GT$$u20$as$u20$core..ops..drop..Drop$GT$4drop17h3fe87c4adeb51ceaE', symObjAddr: 0x1764, symBinAddr: 0x21C0, symSize: 0x1A0 }
  - { offset: 0x5E25, size: 0x8, addend: 0x0, symName: '__ZN72_$LT$pyo3..instance..Bound$LT$T$GT$$u20$as$u20$core..ops..drop..Drop$GT$4drop17h96bf8d48376349beE', symObjAddr: 0x1904, symBinAddr: 0x2360, symSize: 0x1A0 }
  - { offset: 0x5E94, size: 0x8, addend: 0x0, symName: '__ZN72_$LT$pyo3..instance..Bound$LT$T$GT$$u20$as$u20$core..ops..drop..Drop$GT$4drop17hbcf580a3f038032dE', symObjAddr: 0x1AA4, symBinAddr: 0x2500, symSize: 0x1A0 }
  - { offset: 0x60B3, size: 0x8, addend: 0x0, symName: '__ZN70_$LT$pyo3..pycell..PyRef$LT$T$GT$$u20$as$u20$core..ops..drop..Drop$GT$4drop17h132daeffb4c3fa07E', symObjAddr: 0x1514, symBinAddr: 0x1F70, symSize: 0x2C }
  - { offset: 0x60E6, size: 0x8, addend: 0x0, symName: '__ZN70_$LT$pyo3..pycell..PyRef$LT$T$GT$$u20$as$u20$core..ops..drop..Drop$GT$4drop17h2ebd52bb257dc59cE', symObjAddr: 0x1540, symBinAddr: 0x1F9C, symSize: 0x2C }
  - { offset: 0x6119, size: 0x8, addend: 0x0, symName: '__ZN70_$LT$pyo3..pycell..PyRef$LT$T$GT$$u20$as$u20$core..ops..drop..Drop$GT$4drop17hb899c406f52d909fE', symObjAddr: 0x156C, symBinAddr: 0x1FC8, symSize: 0x2C }
  - { offset: 0x614C, size: 0x8, addend: 0x0, symName: '__ZN70_$LT$pyo3..pycell..PyRef$LT$T$GT$$u20$as$u20$core..ops..drop..Drop$GT$4drop17he7c9715fb259f440E', symObjAddr: 0x1598, symBinAddr: 0x1FF4, symSize: 0x2C }
  - { offset: 0x6734, size: 0x8, addend: 0x0, symName: '__ZN77_$LT$alloc..raw_vec..RawVec$LT$T$C$A$GT$$u20$as$u20$core..ops..drop..Drop$GT$4drop17h0fff2b9bc5cb8507E', symObjAddr: 0x1C44, symBinAddr: 0x26A0, symSize: 0x30 }
  - { offset: 0x68B1, size: 0x8, addend: 0x0, symName: '__ZN70_$LT$alloc..vec..Vec$LT$T$C$A$GT$$u20$as$u20$core..ops..drop..Drop$GT$4drop17h88c743693148d65fE', symObjAddr: 0x14F0, symBinAddr: 0x1F4C, symSize: 0x24 }
  - { offset: 0x6FF3, size: 0x8, addend: 0x0, symName: '__ZN79_$LT$hashbrown..raw..RawTable$LT$T$C$A$GT$$u20$as$u20$core..ops..drop..Drop$GT$4drop17hc30cd97025f3b5d9E', symObjAddr: 0x1C74, symBinAddr: 0x26D0, symSize: 0x3C }
  - { offset: 0x712E, size: 0x8, addend: 0x0, symName: '__ZN88_$LT$hashbrown..scopeguard..ScopeGuard$LT$T$C$F$GT$$u20$as$u20$core..ops..drop..Drop$GT$4drop17h6cea97484146d00aE', symObjAddr: 0x1D08, symBinAddr: 0x2764, symSize: 0x2C }
  - { offset: 0x72E1, size: 0x8, addend: 0x0, symName: '__ZN87_$LT$std..sync..poison..mutex..MutexGuard$LT$T$GT$$u20$as$u20$core..ops..drop..Drop$GT$4drop17h5477e0b0ebd8fc6fE', symObjAddr: 0x1CB0, symBinAddr: 0x270C, symSize: 0x58 }
  - { offset: 0x7DF0, size: 0x8, addend: 0x0, symName: '__ZN59_$LT$alloc..alloc..Global$u20$as$u20$core..clone..Clone$GT$5clone17h84d3d7ad1d030428E', symObjAddr: 0x0, symBinAddr: 0x2790, symSize: 0x10 }
  - { offset: 0x813B, size: 0x8, addend: 0x0, symName: '__ZN59_$LT$alloc..alloc..Global$u20$as$u20$core..clone..Clone$GT$5clone17h84d3d7ad1d030428E', symObjAddr: 0x0, symBinAddr: 0x2790, symSize: 0x10 }
  - { offset: 0x81C7, size: 0x8, addend: 0x0, symName: '__ZN63_$LT$alloc..alloc..Global$u20$as$u20$core..alloc..Allocator$GT$10deallocate17h3c7c65bef4f69f32E', symObjAddr: 0x10, symBinAddr: 0x27A0, symSize: 0x58 }
  - { offset: 0x834F, size: 0x8, addend: 0x0, symName: __ZN9hashbrown3raw13RawTableInner13drop_elements17hf59b236252dad143E, symObjAddr: 0x0, symBinAddr: 0x27F8, symSize: 0x15C }
  - { offset: 0x837E, size: 0x8, addend: 0x0, symName: '__ZN9hashbrown3raw21RawTable$LT$T$C$A$GT$14reserve_rehash28_$u7b$$u7b$closure$u7d$$u7d$17h01af637db05330caE', symObjAddr: 0xBFC, symBinAddr: 0x2C50, symSize: 0xC0 }
  - { offset: 0x855C, size: 0x8, addend: 0x0, symName: '__ZN9hashbrown3raw21RawTable$LT$T$C$A$GT$14reserve_rehash28_$u7b$$u7b$closure$u7d$$u7d$17hd6ab8e5ab3d48a79E', symObjAddr: 0xCBC, symBinAddr: 0x2D10, symSize: 0x30 }
  - { offset: 0x85B9, size: 0x8, addend: 0x0, symName: '__ZN9hashbrown3raw21RawTable$LT$T$C$A$GT$25find_or_find_insert_index28_$u7b$$u7b$closure$u7d$$u7d$17h775c161831bd7f3bE', symObjAddr: 0xF44, symBinAddr: 0x2F98, symSize: 0xC4 }
  - { offset: 0x87AC, size: 0x8, addend: 0x0, symName: '__ZN9hashbrown3raw21RawTable$LT$T$C$A$GT$4find28_$u7b$$u7b$closure$u7d$$u7d$17h6c02fa5c5f14654aE', symObjAddr: 0x131C, symBinAddr: 0x3370, symSize: 0xC4 }
  - { offset: 0x899D, size: 0x8, addend: 0x0, symName: '__ZN9hashbrown3raw21RawTable$LT$T$C$A$GT$5clear28_$u7b$$u7b$closure$u7d$$u7d$17hf459d6649f98363cE', symObjAddr: 0x145C, symBinAddr: 0x34B0, symSize: 0xD8 }
  - { offset: 0xB2EE, size: 0x8, addend: 0x0, symName: __ZN9hashbrown3raw13RawTableInner13drop_elements17hf59b236252dad143E, symObjAddr: 0x0, symBinAddr: 0x27F8, symSize: 0x15C }
  - { offset: 0xB697, size: 0x8, addend: 0x0, symName: __ZN9hashbrown3raw13RawTableInner16drop_inner_table17hfbcfcc623985b553E, symObjAddr: 0x15C, symBinAddr: 0x2954, symSize: 0xB0 }
  - { offset: 0xB886, size: 0x8, addend: 0x0, symName: '__ZN9hashbrown3raw21RawIterRange$LT$T$GT$3new17hf8b205d1232e7bb8E', symObjAddr: 0x20C, symBinAddr: 0x2A04, symSize: 0x98 }
  - { offset: 0xBB1A, size: 0x8, addend: 0x0, symName: '__ZN9hashbrown3raw21RawIterRange$LT$T$GT$9next_impl17hd4f15fbf6bd68872E', symObjAddr: 0x2A4, symBinAddr: 0x2A9C, symSize: 0x1B4 }
  - { offset: 0xC2FF, size: 0x8, addend: 0x0, symName: '__ZN9hashbrown3raw21RawTable$LT$T$C$A$GT$14reserve_rehash17h77fe9d5b6d9c02dfE', symObjAddr: 0x458, symBinAddr: 0x73E7C, symSize: 0x7A4 }
  - { offset: 0xCEC9, size: 0x8, addend: 0x0, symName: '__ZN9hashbrown3raw21RawTable$LT$T$C$A$GT$22insert_tagged_at_index17hf3da29a021ec78c0E', symObjAddr: 0xCEC, symBinAddr: 0x2D40, symSize: 0x124 }
  - { offset: 0xD32F, size: 0x8, addend: 0x0, symName: '__ZN9hashbrown3raw21RawTable$LT$T$C$A$GT$25find_or_find_insert_index17h723545898bebaaedE', symObjAddr: 0xE10, symBinAddr: 0x2E64, symSize: 0x134 }
  - { offset: 0xD937, size: 0x8, addend: 0x0, symName: '__ZN9hashbrown3raw21RawTable$LT$T$C$A$GT$4find17h607b3ab4a3cce888E', symObjAddr: 0x1008, symBinAddr: 0x305C, symSize: 0x314 }
  - { offset: 0xDF4D, size: 0x8, addend: 0x0, symName: '__ZN9hashbrown3raw21RawTable$LT$T$C$A$GT$5clear17hc426084eb910dd25E', symObjAddr: 0x13E0, symBinAddr: 0x3434, symSize: 0x7C }
  - { offset: 0xE10F, size: 0x8, addend: 0x0, symName: '__ZN9hashbrown3raw21RawTable$LT$T$C$A$GT$7reserve17h6bdbedc0d715a1f8E', symObjAddr: 0x1534, symBinAddr: 0x3588, symSize: 0xB0 }
  - { offset: 0xE20E, size: 0x8, addend: 0x0, symName: '__ZN50_$LT$T$u20$as$u20$core..convert..Into$LT$U$GT$$GT$4into17h3ce2209f79cd9499E', symObjAddr: 0x0, symBinAddr: 0x3638, symSize: 0x24 }
  - { offset: 0xE9F2, size: 0x8, addend: 0x0, symName: '__ZN50_$LT$T$u20$as$u20$core..convert..Into$LT$U$GT$$GT$4into17h3ce2209f79cd9499E', symObjAddr: 0x0, symBinAddr: 0x3638, symSize: 0x24 }
  - { offset: 0xF9E2, size: 0x8, addend: 0x0, symName: '__ZN4core3ptr9const_ptr33_$LT$impl$u20$$BP$const$u20$T$GT$7is_null17hd38b3b3eb1ace864E', symObjAddr: 0x0, symBinAddr: 0x365C, symSize: 0x18 }
  - { offset: 0x101F6, size: 0x8, addend: 0x0, symName: '__ZN4core3ptr9const_ptr33_$LT$impl$u20$$BP$const$u20$T$GT$7is_null17hd38b3b3eb1ace864E', symObjAddr: 0x0, symBinAddr: 0x365C, symSize: 0x18 }
  - { offset: 0x10310, size: 0x8, addend: 0x0, symName: '__ZN4core5slice29_$LT$impl$u20$$u5b$T$u5d$$GT$15copy_from_slice17h087a7bbef785b97dE', symObjAddr: 0x18, symBinAddr: 0x3674, symSize: 0x34 }
  - { offset: 0x10379, size: 0x8, addend: 0x0, symName: '__ZN4core5slice29_$LT$impl$u20$$u5b$T$u5d$$GT$18split_at_unchecked17h3e126954784d825cE', symObjAddr: 0x4C, symBinAddr: 0x36A8, symSize: 0xE8 }
  - { offset: 0x104BE, size: 0x8, addend: 0x0, symName: '__ZN4core5slice29_$LT$impl$u20$$u5b$T$u5d$$GT$8split_at17h651d7e455c2c3c35E', symObjAddr: 0x134, symBinAddr: 0x3790, symSize: 0xAC }
  - { offset: 0x12712, size: 0x8, addend: 0x0, symName: '__ZN4core6option15Option$LT$T$GT$3map17h36675572704f7d08E', symObjAddr: 0x1E0, symBinAddr: 0x383C, symSize: 0x5C }
  - { offset: 0x1278A, size: 0x8, addend: 0x0, symName: '__ZN4core6option15Option$LT$T$GT$3map17hab5e83a4833ecc73E', symObjAddr: 0x23C, symBinAddr: 0x3898, symSize: 0x50 }
  - { offset: 0x12B46, size: 0x8, addend: 0x0, symName: '__ZN4core6option15Option$LT$T$GT$6as_ref17h3d5f4dc112967332E', symObjAddr: 0x28C, symBinAddr: 0x38E8, symSize: 0x4C }
  - { offset: 0x12BD9, size: 0x8, addend: 0x0, symName: '__ZN4core6option15Option$LT$T$GT$6expect17hc7344c407eb0d926E', symObjAddr: 0x2D8, symBinAddr: 0x3934, symSize: 0x5C }
  - { offset: 0x12D0B, size: 0x8, addend: 0x0, symName: '__ZN4core6option15Option$LT$T$GT$6insert17h182911d7595f9c60E', symObjAddr: 0x334, symBinAddr: 0x3990, symSize: 0xA8 }
  - { offset: 0x12E18, size: 0x8, addend: 0x0, symName: '__ZN4core6option15Option$LT$T$GT$6insert17h23c3730b760dd178E', symObjAddr: 0x3DC, symBinAddr: 0x3A38, symSize: 0xA8 }
  - { offset: 0x12F1E, size: 0x8, addend: 0x0, symName: '__ZN4core6option15Option$LT$T$GT$6insert17ha7ec1ea51579f105E', symObjAddr: 0x484, symBinAddr: 0x3AE0, symSize: 0xA8 }
  - { offset: 0x132F4, size: 0x8, addend: 0x0, symName: '__ZN4core6option15Option$LT$T$GT$6insert17haed4f17ce2cd0adeE', symObjAddr: 0x52C, symBinAddr: 0x3B88, symSize: 0xA8 }
  - { offset: 0x13397, size: 0x8, addend: 0x0, symName: '__ZN4core6option15Option$LT$T$GT$7is_some17h571648143974fda2E', symObjAddr: 0x5D4, symBinAddr: 0x3C30, symSize: 0x28 }
  - { offset: 0x133C3, size: 0x8, addend: 0x0, symName: '__ZN4core6option15Option$LT$T$GT$7is_some17hbd5e112490c76253E', symObjAddr: 0x5FC, symBinAddr: 0x3C58, symSize: 0x28 }
  - { offset: 0x133FC, size: 0x8, addend: 0x0, symName: '__ZN4core6option15Option$LT$T$GT$7replace17h046875d0e5557400E', symObjAddr: 0x624, symBinAddr: 0x3C80, symSize: 0x28 }
  - { offset: 0x1350F, size: 0x8, addend: 0x0, symName: '__ZN4core6option15Option$LT$T$GT$8as_deref17hce88c8962d4fd5c4E', symObjAddr: 0x64C, symBinAddr: 0x3CA8, symSize: 0x6C }
  - { offset: 0x135F4, size: 0x8, addend: 0x0, symName: '__ZN120_$LT$_planck..PlanCache$u20$as$u20$pyo3..conversion..IntoPy$LT$pyo3..instance..Py$LT$pyo3..types..any..PyAny$GT$$GT$$GT$7into_py17hd531361f34633995E', symObjAddr: 0x0, symBinAddr: 0x3D14, symSize: 0xBC }
  - { offset: 0x176BF, size: 0x8, addend: 0x0, symName: '__ZN72_$LT$_planck..PlanCache$u20$as$u20$pyo3..impl_..pyclass..PyClassImpl$GT$10items_iter15INTRINSIC_ITEMS17hc8704e2731e24a40E', symObjAddr: 0x5720, symBinAddr: 0x83DE0, symSize: 0x0 }
  - { offset: 0x176DF, size: 0x8, addend: 0x0, symName: '__ZN72_$LT$_planck..PlanCache$u20$as$u20$pyo3..impl_..pyclass..PyClassImpl$GT$16lazy_type_object11TYPE_OBJECT17h1215bd6f01c6d133E', symObjAddr: 0x5838, symBinAddr: 0xC0368, symSize: 0x0 }
  - { offset: 0x176FF, size: 0x8, addend: 0x0, symName: '__ZN72_$LT$_planck..PlanCache$u20$as$u20$pyo3..impl_..pyclass..PyClassImpl$GT$3doc3DOC17hf031597ae74c8851E', symObjAddr: 0x5880, symBinAddr: 0xC03B0, symSize: 0x0 }
  - { offset: 0x1770D, size: 0x8, addend: 0x0, symName: '__ZN72_$LT$_planck..PlanCache$u20$as$u20$pyo3..impl_..pyclass..PyClassImpl$GT$10items_iter17he4f4875dac4a1d38E', symObjAddr: 0x358, symBinAddr: 0x406C, symSize: 0x38 }
  - { offset: 0x17748, size: 0x8, addend: 0x0, symName: '__ZN72_$LT$_planck..PlanCache$u20$as$u20$pyo3..impl_..pyclass..PyClassImpl$GT$16lazy_type_object17h4b37300620ecfd76E', symObjAddr: 0x390, symBinAddr: 0x40A4, symSize: 0xC }
  - { offset: 0x17765, size: 0x8, addend: 0x0, symName: '__ZN72_$LT$_planck..PlanCache$u20$as$u20$pyo3..impl_..pyclass..PyClassImpl$GT$3doc17h8d26c10489f969bfE', symObjAddr: 0x39C, symBinAddr: 0x40B0, symSize: 0x3C }
  - { offset: 0x1799B, size: 0x8, addend: 0x0, symName: '__ZN73_$LT$_planck..PyPlanView$u20$as$u20$pyo3..impl_..pyclass..PyClassImpl$GT$10items_iter15INTRINSIC_ITEMS17h9dd8eb2e1de5d7aeE', symObjAddr: 0x5740, symBinAddr: 0x83E00, symSize: 0x0 }
  - { offset: 0x179BB, size: 0x8, addend: 0x0, symName: '__ZN73_$LT$_planck..PyPlanView$u20$as$u20$pyo3..impl_..pyclass..PyClassImpl$GT$16lazy_type_object11TYPE_OBJECT17h20b3394478bda817E', symObjAddr: 0x5898, symBinAddr: 0xC03C8, symSize: 0x0 }
  - { offset: 0x179DB, size: 0x8, addend: 0x0, symName: '__ZN73_$LT$_planck..PyPlanView$u20$as$u20$pyo3..impl_..pyclass..PyClassImpl$GT$3doc3DOC17h644b333ba89818d5E', symObjAddr: 0x58E0, symBinAddr: 0xC0410, symSize: 0x0 }
  - { offset: 0x179E9, size: 0x8, addend: 0x0, symName: '__ZN73_$LT$_planck..PyPlanView$u20$as$u20$pyo3..impl_..pyclass..PyClassImpl$GT$10items_iter17he2de67a3da8b2b3cE', symObjAddr: 0x3FC, symBinAddr: 0x4110, symSize: 0x38 }
  - { offset: 0x17A24, size: 0x8, addend: 0x0, symName: '__ZN73_$LT$_planck..PyPlanView$u20$as$u20$pyo3..impl_..pyclass..PyClassImpl$GT$16lazy_type_object17hb816f99c262ddb1fE', symObjAddr: 0x434, symBinAddr: 0x4148, symSize: 0xC }
  - { offset: 0x17A41, size: 0x8, addend: 0x0, symName: '__ZN73_$LT$_planck..PyPlanView$u20$as$u20$pyo3..impl_..pyclass..PyClassImpl$GT$3doc17he3bd915b22b3d8acE', symObjAddr: 0x440, symBinAddr: 0x4154, symSize: 0x3C }
  - { offset: 0x17BF3, size: 0x8, addend: 0x0, symName: '__ZN75_$LT$_planck..PlanCompiler$u20$as$u20$pyo3..impl_..pyclass..PyClassImpl$GT$10items_iter15INTRINSIC_ITEMS17hd97627dd206858e3E', symObjAddr: 0x5760, symBinAddr: 0x83E20, symSize: 0x0 }
  - { offset: 0x17C13, size: 0x8, addend: 0x0, symName: '__ZN75_$LT$_planck..PlanCompiler$u20$as$u20$pyo3..impl_..pyclass..PyClassImpl$GT$16lazy_type_object11TYPE_OBJECT17hb5521b5fb8b633c7E', symObjAddr: 0x58F8, symBinAddr: 0xC0428, symSize: 0x0 }
  - { offset: 0x17C33, size: 0x8, addend: 0x0, symName: '__ZN75_$LT$_planck..PlanCompiler$u20$as$u20$pyo3..impl_..pyclass..PyClassImpl$GT$3doc3DOC17h1253089d5037a518E', symObjAddr: 0x5940, symBinAddr: 0xC0470, symSize: 0x0 }
  - { offset: 0x17C41, size: 0x8, addend: 0x0, symName: '__ZN75_$LT$_planck..PlanCompiler$u20$as$u20$pyo3..impl_..pyclass..PyClassImpl$GT$10items_iter17hedb7568655218306E', symObjAddr: 0x47C, symBinAddr: 0x4190, symSize: 0x38 }
  - { offset: 0x17C7C, size: 0x8, addend: 0x0, symName: '__ZN75_$LT$_planck..PlanCompiler$u20$as$u20$pyo3..impl_..pyclass..PyClassImpl$GT$16lazy_type_object17h1ddc979eb8051325E', symObjAddr: 0x4B4, symBinAddr: 0x41C8, symSize: 0xC }
  - { offset: 0x17C99, size: 0x8, addend: 0x0, symName: '__ZN75_$LT$_planck..PlanCompiler$u20$as$u20$pyo3..impl_..pyclass..PyClassImpl$GT$3doc17hd390793578324d00E', symObjAddr: 0x4C0, symBinAddr: 0x41D4, symSize: 0x3C }
  - { offset: 0x17CE8, size: 0x8, addend: 0x0, symName: '__ZN77_$LT$_planck..PyPlanTemplate$u20$as$u20$pyo3..impl_..pyclass..PyClassImpl$GT$10items_iter15INTRINSIC_ITEMS17hb711006cfd2abc40E', symObjAddr: 0x5780, symBinAddr: 0x83E40, symSize: 0x0 }
  - { offset: 0x17D08, size: 0x8, addend: 0x0, symName: '__ZN77_$LT$_planck..PyPlanTemplate$u20$as$u20$pyo3..impl_..pyclass..PyClassImpl$GT$16lazy_type_object11TYPE_OBJECT17h2650aad0c4739dcfE', symObjAddr: 0x5958, symBinAddr: 0xC0488, symSize: 0x0 }
  - { offset: 0x17D28, size: 0x8, addend: 0x0, symName: '__ZN77_$LT$_planck..PyPlanTemplate$u20$as$u20$pyo3..impl_..pyclass..PyClassImpl$GT$3doc3DOC17h1f18668c96240617E', symObjAddr: 0x59A0, symBinAddr: 0xC04D0, symSize: 0x0 }
  - { offset: 0x17D36, size: 0x8, addend: 0x0, symName: '__ZN77_$LT$_planck..PyPlanTemplate$u20$as$u20$pyo3..impl_..pyclass..PyClassImpl$GT$10items_iter17h15fb599596efb69fE', symObjAddr: 0x4FC, symBinAddr: 0x4210, symSize: 0x38 }
  - { offset: 0x17D71, size: 0x8, addend: 0x0, symName: '__ZN77_$LT$_planck..PyPlanTemplate$u20$as$u20$pyo3..impl_..pyclass..PyClassImpl$GT$16lazy_type_object17hc182e60480071681E', symObjAddr: 0x534, symBinAddr: 0x4248, symSize: 0xC }
  - { offset: 0x17D8E, size: 0x8, addend: 0x0, symName: '__ZN77_$LT$_planck..PyPlanTemplate$u20$as$u20$pyo3..impl_..pyclass..PyClassImpl$GT$3doc17h848a444b0eaa3dbeE', symObjAddr: 0x540, symBinAddr: 0x4254, symSize: 0x3C }
  - { offset: 0x17EC2, size: 0x8, addend: 0x0, symName: '__ZN7_planck156_$LT$impl$u20$pyo3..impl_..pyclass..PyMethods$LT$_planck..PlanCache$GT$$u20$for$u20$pyo3..impl_..pyclass..PyClassImplCollector$LT$_planck..PlanCache$GT$$GT$10py_methods5ITEMS17ha04a363c5e6775bbE', symObjAddr: 0x5180, symBinAddr: 0xB8660, symSize: 0x0 }
  - { offset: 0x17ED4, size: 0x8, addend: 0x0, symName: '__ZN7_planck156_$LT$impl$u20$pyo3..impl_..pyclass..PyMethods$LT$_planck..PlanCache$GT$$u20$for$u20$pyo3..impl_..pyclass..PyClassImplCollector$LT$_planck..PlanCache$GT$$GT$10py_methods5ITEMS10trampoline17h686c38991ba7b8e3E', symObjAddr: 0x2B04, symBinAddr: 0x6818, symSize: 0x50 }
  - { offset: 0x17F2A, size: 0x8, addend: 0x0, symName: '__ZN7_planck156_$LT$impl$u20$pyo3..impl_..pyclass..PyMethods$LT$_planck..PlanCache$GT$$u20$for$u20$pyo3..impl_..pyclass..PyClassImplCollector$LT$_planck..PlanCache$GT$$GT$10py_methods5ITEMS10trampoline17h8b38f629c8fcdf7aE', symObjAddr: 0x2B54, symBinAddr: 0x6868, symSize: 0x44 }
  - { offset: 0x17F64, size: 0x8, addend: 0x0, symName: '__ZN7_planck156_$LT$impl$u20$pyo3..impl_..pyclass..PyMethods$LT$_planck..PlanCache$GT$$u20$for$u20$pyo3..impl_..pyclass..PyClassImplCollector$LT$_planck..PlanCache$GT$$GT$10py_methods5ITEMS10trampoline17h9d1f08a5a5a3e96aE', symObjAddr: 0x2B98, symBinAddr: 0x68AC, symSize: 0x44 }
  - { offset: 0x17F9E, size: 0x8, addend: 0x0, symName: '__ZN7_planck156_$LT$impl$u20$pyo3..impl_..pyclass..PyMethods$LT$_planck..PlanCache$GT$$u20$for$u20$pyo3..impl_..pyclass..PyClassImplCollector$LT$_planck..PlanCache$GT$$GT$10py_methods5ITEMS10trampoline17he9fb79781bb27c16E', symObjAddr: 0x2BDC, symBinAddr: 0x68F0, symSize: 0x44 }
  - { offset: 0x17FF2, size: 0x8, addend: 0x0, symName: '__ZN7_planck158_$LT$impl$u20$pyo3..impl_..pyclass..PyMethods$LT$_planck..PyPlanView$GT$$u20$for$u20$pyo3..impl_..pyclass..PyClassImplCollector$LT$_planck..PyPlanView$GT$$GT$10py_methods5ITEMS17h9e666f83bf615df0E', symObjAddr: 0x5330, symBinAddr: 0xB8810, symSize: 0x0 }
  - { offset: 0x18004, size: 0x8, addend: 0x0, symName: '__ZN7_planck158_$LT$impl$u20$pyo3..impl_..pyclass..PyMethods$LT$_planck..PyPlanView$GT$$u20$for$u20$pyo3..impl_..pyclass..PyClassImplCollector$LT$_planck..PyPlanView$GT$$GT$10py_methods5ITEMS10trampoline17h9d71dedd1ff63c85E', symObjAddr: 0x2C20, symBinAddr: 0x6934, symSize: 0x44 }
  - { offset: 0x1803E, size: 0x8, addend: 0x0, symName: '__ZN7_planck158_$LT$impl$u20$pyo3..impl_..pyclass..PyMethods$LT$_planck..PyPlanView$GT$$u20$for$u20$pyo3..impl_..pyclass..PyClassImplCollector$LT$_planck..PyPlanView$GT$$GT$10py_methods5ITEMS10trampoline17hf196c4c009ae3a38E', symObjAddr: 0x2C64, symBinAddr: 0x6978, symSize: 0x3C }
  - { offset: 0x18084, size: 0x8, addend: 0x0, symName: '__ZN7_planck162_$LT$impl$u20$pyo3..impl_..pyclass..PyMethods$LT$_planck..PlanCompiler$GT$$u20$for$u20$pyo3..impl_..pyclass..PyClassImplCollector$LT$_planck..PlanCompiler$GT$$GT$10py_methods5ITEMS17h63822a7ffc4fdc0fE', symObjAddr: 0x5410, symBinAddr: 0xB88F0, symSize: 0x0 }
  - { offset: 0x18096, size: 0x8, addend: 0x0, symName: '__ZN7_planck162_$LT$impl$u20$pyo3..impl_..pyclass..PyMethods$LT$_planck..PlanCompiler$GT$$u20$for$u20$pyo3..impl_..pyclass..PyClassImplCollector$LT$_planck..PlanCompiler$GT$$GT$10py_methods5ITEMS10trampoline17h0488a52ac9d5ec21E', symObjAddr: 0x2E80, symBinAddr: 0x6B94, symSize: 0x50 }
  - { offset: 0x180EC, size: 0x8, addend: 0x0, symName: '__ZN7_planck162_$LT$impl$u20$pyo3..impl_..pyclass..PyMethods$LT$_planck..PlanCompiler$GT$$u20$for$u20$pyo3..impl_..pyclass..PyClassImplCollector$LT$_planck..PlanCompiler$GT$$GT$10py_methods5ITEMS10trampoline17h6b7b11e474d3dd79E', symObjAddr: 0x2ED0, symBinAddr: 0x6BE4, symSize: 0x50 }
  - { offset: 0x18142, size: 0x8, addend: 0x0, symName: '__ZN7_planck162_$LT$impl$u20$pyo3..impl_..pyclass..PyMethods$LT$_planck..PlanCompiler$GT$$u20$for$u20$pyo3..impl_..pyclass..PyClassImplCollector$LT$_planck..PlanCompiler$GT$$GT$10py_methods5ITEMS10trampoline17h77be241ed1bedb67E', symObjAddr: 0x2F20, symBinAddr: 0x6C34, symSize: 0x44 }
  - { offset: 0x18196, size: 0x8, addend: 0x0, symName: '__ZN7_planck166_$LT$impl$u20$pyo3..impl_..pyclass..PyMethods$LT$_planck..PyPlanTemplate$GT$$u20$for$u20$pyo3..impl_..pyclass..PyClassImplCollector$LT$_planck..PyPlanTemplate$GT$$GT$10py_methods5ITEMS17he0ed73e4397ff1d1E', symObjAddr: 0x5500, symBinAddr: 0xB89E0, symSize: 0x0 }
  - { offset: 0x181A8, size: 0x8, addend: 0x0, symName: '__ZN7_planck166_$LT$impl$u20$pyo3..impl_..pyclass..PyMethods$LT$_planck..PyPlanTemplate$GT$$u20$for$u20$pyo3..impl_..pyclass..PyClassImplCollector$LT$_planck..PyPlanTemplate$GT$$GT$10py_methods5ITEMS10trampoline17hbc8098f989c2b4b1E', symObjAddr: 0x2F64, symBinAddr: 0x6C78, symSize: 0x3C }
  - { offset: 0x181D4, size: 0x8, addend: 0x0, symName: '__ZN7_planck166_$LT$impl$u20$pyo3..impl_..pyclass..PyMethods$LT$_planck..PyPlanTemplate$GT$$u20$for$u20$pyo3..impl_..pyclass..PyClassImplCollector$LT$_planck..PyPlanTemplate$GT$$GT$10py_methods5ITEMS10trampoline17hff4a8066e12d6ac6E', symObjAddr: 0x2FA0, symBinAddr: 0x6CB4, symSize: 0x50 }
  - { offset: 0x18232, size: 0x8, addend: 0x0, symName: '__ZN120_$LT$_planck..PlanCache$u20$as$u20$pyo3..conversion..IntoPy$LT$pyo3..instance..Py$LT$pyo3..types..any..PyAny$GT$$GT$$GT$7into_py17hd531361f34633995E', symObjAddr: 0x0, symBinAddr: 0x3D14, symSize: 0xBC }
  - { offset: 0x182B5, size: 0x8, addend: 0x0, symName: '__ZN121_$LT$_planck..PyPlanView$u20$as$u20$pyo3..conversion..IntoPy$LT$pyo3..instance..Py$LT$pyo3..types..any..PyAny$GT$$GT$$GT$7into_py17h4aac0b4dfcdb892cE', symObjAddr: 0xBC, symBinAddr: 0x3DD0, symSize: 0xBC }
  - { offset: 0x18338, size: 0x8, addend: 0x0, symName: '__ZN123_$LT$_planck..PlanCompiler$u20$as$u20$pyo3..conversion..IntoPy$LT$pyo3..instance..Py$LT$pyo3..types..any..PyAny$GT$$GT$$GT$7into_py17hc0b87926c9433300E', symObjAddr: 0x178, symBinAddr: 0x3E8C, symSize: 0xB8 }
  - { offset: 0x183BB, size: 0x8, addend: 0x0, symName: '__ZN125_$LT$_planck..PyPlanTemplate$u20$as$u20$pyo3..conversion..IntoPy$LT$pyo3..instance..Py$LT$pyo3..types..any..PyAny$GT$$GT$$GT$7into_py17h15d7a4b548c43517E', symObjAddr: 0x230, symBinAddr: 0x3F44, symSize: 0xBC }
  - { offset: 0x1843E, size: 0x8, addend: 0x0, symName: '__ZN68_$LT$_planck..PlanCache$u20$as$u20$pyo3..type_object..PyTypeInfo$GT$15type_object_raw17h0bdbc0eea06e0166E', symObjAddr: 0x2EC, symBinAddr: 0x4000, symSize: 0x24 }
  - { offset: 0x1847B, size: 0x8, addend: 0x0, symName: '__ZN69_$LT$_planck..PyPlanView$u20$as$u20$pyo3..type_object..PyTypeInfo$GT$15type_object_raw17h0d8173abb7dcce45E', symObjAddr: 0x310, symBinAddr: 0x4024, symSize: 0x24 }
  - { offset: 0x184B8, size: 0x8, addend: 0x0, symName: '__ZN71_$LT$_planck..PlanCompiler$u20$as$u20$pyo3..type_object..PyTypeInfo$GT$15type_object_raw17ha2ad979edf78446eE', symObjAddr: 0x334, symBinAddr: 0x4048, symSize: 0x24 }
  - { offset: 0x184F5, size: 0x8, addend: 0x0, symName: '__ZN73_$LT$_planck..PyPlanTemplate$u20$as$u20$pyo3..type_object..PyTypeInfo$GT$15type_object_raw17hb367d8c6f27f720dE', symObjAddr: 0x3D8, symBinAddr: 0x40EC, symSize: 0x24 }
  - { offset: 0x1852D, size: 0x8, addend: 0x0, symName: __ZN7_planck10clone_plan17h8f1cb3b79531618cE, symObjAddr: 0x1098, symBinAddr: 0x4DAC, symSize: 0xB0 }
  - { offset: 0x18559, size: 0x8, addend: 0x0, symName: __ZN7_planck15parse_reduce_op17h128797ba5745ef34E, symObjAddr: 0x2CA0, symBinAddr: 0x69B4, symSize: 0x1E0 }
  - { offset: 0x185E1, size: 0x8, addend: 0x0, symName: '__ZN7_planck43_$LT$impl$u20$_planck.._planck..MakeDef$GT$8make_def15__pyo3_pymodule17h356eba113f1316f1E', symObjAddr: 0x2FF0, symBinAddr: 0x6D04, symSize: 0x38 }
  - { offset: 0x1860F, size: 0x8, addend: 0x0, symName: __ZN7_planck7_planck17h47fd56c841f4c354E, symObjAddr: 0x3028, symBinAddr: 0x6D3C, symSize: 0x2B0 }
  - { offset: 0x189C2, size: 0x8, addend: 0x0, symName: __ZN7_planck10PyPlanView11num_buffers17hc742a884d99c531fE, symObjAddr: 0x57C, symBinAddr: 0x4290, symSize: 0x18 }
  - { offset: 0x189E4, size: 0x8, addend: 0x0, symName: __ZN7_planck10PyPlanView11num_streams17h5f0972587fb43820E, symObjAddr: 0x594, symBinAddr: 0x42A8, symSize: 0x18 }
  - { offset: 0x18A06, size: 0x8, addend: 0x0, symName: __ZN7_planck10PyPlanView21__pymethod___repr____17h2ae8eea93643a513E, symObjAddr: 0x5AC, symBinAddr: 0x42C0, symSize: 0x178 }
  - { offset: 0x18ABF, size: 0x8, addend: 0x0, symName: __ZN7_planck10PyPlanView21__pymethod_to_bytes__17h75cf0685771612a8E, symObjAddr: 0x724, symBinAddr: 0x4438, symSize: 0x1F4 }
  - { offset: 0x18B9F, size: 0x8, addend: 0x0, symName: __ZN7_planck10PyPlanView24__pymethod_get_my_rank__17h6f0591bb22eda312E, symObjAddr: 0x918, symBinAddr: 0x462C, symSize: 0x124 }
  - { offset: 0x18C2C, size: 0x8, addend: 0x0, symName: __ZN7_planck10PyPlanView24__pymethod_get_num_ops__17h89f7f57d965407ccE, symObjAddr: 0xA3C, symBinAddr: 0x4750, symSize: 0x124 }
  - { offset: 0x18CB9, size: 0x8, addend: 0x0, symName: __ZN7_planck10PyPlanView26__pymethod_get_num_ranks__17h09cd75e530c56427E, symObjAddr: 0xB60, symBinAddr: 0x4874, symSize: 0x124 }
  - { offset: 0x18D46, size: 0x8, addend: 0x0, symName: __ZN7_planck10PyPlanView28__pymethod_get_num_buffers__17hdcd7f42a7c3223a4E, symObjAddr: 0xC84, symBinAddr: 0x4998, symSize: 0x124 }
  - { offset: 0x18DD3, size: 0x8, addend: 0x0, symName: __ZN7_planck10PyPlanView28__pymethod_get_num_streams__17ha04001d77ee46d35E, symObjAddr: 0xDA8, symBinAddr: 0x4ABC, symSize: 0x124 }
  - { offset: 0x18E60, size: 0x8, addend: 0x0, symName: __ZN7_planck10PyPlanView7my_rank17h0c1243bcac0b3fb0E, symObjAddr: 0xECC, symBinAddr: 0x4BE0, symSize: 0x18 }
  - { offset: 0x18E82, size: 0x8, addend: 0x0, symName: __ZN7_planck10PyPlanView7num_ops17hedcbf2005481d601E, symObjAddr: 0xEE4, symBinAddr: 0x4BF8, symSize: 0x18 }
  - { offset: 0x18EA4, size: 0x8, addend: 0x0, symName: __ZN7_planck10PyPlanView8__repr__17ha6cfba4190f7695eE, symObjAddr: 0xEFC, symBinAddr: 0x4C10, symSize: 0xFC }
  - { offset: 0x18F1E, size: 0x8, addend: 0x0, symName: __ZN7_planck10PyPlanView8to_bytes17h6f9071a581575047E, symObjAddr: 0xFF8, symBinAddr: 0x4D0C, symSize: 0x88 }
  - { offset: 0x18F59, size: 0x8, addend: 0x0, symName: __ZN7_planck10PyPlanView9num_ranks17h74940c986ba4b66cE, symObjAddr: 0x1080, symBinAddr: 0x4D94, symSize: 0x18 }
  - { offset: 0x18F7B, size: 0x8, addend: 0x0, symName: __ZN7_planck12PlanCompiler10hccs_8card17h63c6ff92ae4392ecE, symObjAddr: 0x1148, symBinAddr: 0x4E5C, symSize: 0x38 }
  - { offset: 0x18F9B, size: 0x8, addend: 0x0, symName: __ZN7_planck12PlanCompiler16compile_template17hb69f4e9fefda128fE, symObjAddr: 0x1180, symBinAddr: 0x4E94, symSize: 0x16C }
  - { offset: 0x190C9, size: 0x8, addend: 0x0, symName: __ZN7_planck12PlanCompiler17compile_allreduce17hd8ceabd10ce855bcE, symObjAddr: 0x12EC, symBinAddr: 0x5000, symSize: 0x140 }
  - { offset: 0x191F2, size: 0x8, addend: 0x0, symName: __ZN7_planck12PlanCompiler23__pymethod_hccs_8card__17h9d569f9bbf31aed5E, symObjAddr: 0x142C, symBinAddr: 0x5140, symSize: 0x6C }
  - { offset: 0x19284, size: 0x8, addend: 0x0, symName: __ZN7_planck12PlanCompiler29__pymethod_compile_template__17h4bb137d893b0273dE, symObjAddr: 0x1498, symBinAddr: 0x51AC, symSize: 0x6D8 }
  - { offset: 0x194EB, size: 0x8, addend: 0x0, symName: __ZN7_planck12PlanCompiler30__pymethod_compile_allreduce__17h17b6e6eda929d6fdE, symObjAddr: 0x1B70, symBinAddr: 0x5884, symSize: 0x6E0 }
  - { offset: 0x1975F, size: 0x8, addend: 0x0, symName: __ZN7_planck14PyPlanTemplate11instantiate17hc01e5b9954efe8e1E, symObjAddr: 0x2250, symBinAddr: 0x5F64, symSize: 0x48 }
  - { offset: 0x1978F, size: 0x8, addend: 0x0, symName: __ZN7_planck14PyPlanTemplate11num_buffers17h08e667f17fa2dda1E, symObjAddr: 0x2298, symBinAddr: 0x5FAC, symSize: 0x24 }
  - { offset: 0x197B1, size: 0x8, addend: 0x0, symName: __ZN7_planck14PyPlanTemplate21__pymethod___repr____17h4c215789a5a6b138E, symObjAddr: 0x22BC, symBinAddr: 0x5FD0, symSize: 0x178 }
  - { offset: 0x1986A, size: 0x8, addend: 0x0, symName: __ZN7_planck14PyPlanTemplate24__pymethod_get_num_ops__17h6c66ab68b67abbacE, symObjAddr: 0x2434, symBinAddr: 0x6148, symSize: 0x124 }
  - { offset: 0x198F7, size: 0x8, addend: 0x0, symName: __ZN7_planck14PyPlanTemplate24__pymethod_instantiate__17hde47117338763ee4E, symObjAddr: 0x2558, symBinAddr: 0x626C, symSize: 0x388 }
  - { offset: 0x19A98, size: 0x8, addend: 0x0, symName: __ZN7_planck14PyPlanTemplate28__pymethod_get_num_buffers__17h60113940aa249da5E, symObjAddr: 0x28E0, symBinAddr: 0x65F4, symSize: 0x124 }
  - { offset: 0x19B25, size: 0x8, addend: 0x0, symName: __ZN7_planck14PyPlanTemplate7num_ops17h47ddbdf51aa6d821E, symObjAddr: 0x2A04, symBinAddr: 0x6718, symSize: 0x24 }
  - { offset: 0x19B47, size: 0x8, addend: 0x0, symName: __ZN7_planck14PyPlanTemplate8__repr__17h0083039ec0d08941E, symObjAddr: 0x2A28, symBinAddr: 0x673C, symSize: 0xDC }
  - { offset: 0x19C11, size: 0x8, addend: 0x0, symName: __ZN7_planck9PlanCache10cache_size17hfec4c0a172bb08aeE, symObjAddr: 0x32D8, symBinAddr: 0x6FEC, symSize: 0x124 }
  - { offset: 0x19C6B, size: 0x8, addend: 0x0, symName: __ZN7_planck9PlanCache10hccs_8card17h1cc22996e2f98628E, symObjAddr: 0x33FC, symBinAddr: 0x7110, symSize: 0x90 }
  - { offset: 0x19C7E, size: 0x8, addend: 0x0, symName: __ZN7_planck9PlanCache13get_allreduce17he400e99b2bdf2f5aE, symObjAddr: 0x348C, symBinAddr: 0x71A0, symSize: 0x440 }
  - { offset: 0x19E13, size: 0x8, addend: 0x0, symName: __ZN7_planck9PlanCache18__pymethod_clear__17hfddd2dd1f83aef7aE, symObjAddr: 0x38CC, symBinAddr: 0x75E0, symSize: 0x19C }
  - { offset: 0x19F01, size: 0x8, addend: 0x0, symName: __ZN7_planck9PlanCache23__pymethod_cache_size__17h02179b3012a652b4E, symObjAddr: 0x3A68, symBinAddr: 0x777C, symSize: 0x1B0 }
  - { offset: 0x19FEF, size: 0x8, addend: 0x0, symName: __ZN7_planck9PlanCache23__pymethod_hccs_8card__17hfe9aa63756c11e13E, symObjAddr: 0x3C18, symBinAddr: 0x792C, symSize: 0x80 }
  - { offset: 0x1A085, size: 0x8, addend: 0x0, symName: __ZN7_planck9PlanCache26__pymethod_get_allreduce__17h5aee12ce7d5b5f98E, symObjAddr: 0x3C98, symBinAddr: 0x79AC, symSize: 0x6E0 }
  - { offset: 0x1A2EC, size: 0x8, addend: 0x0, symName: __ZN7_planck9PlanCache5clear17hbb50ec65542c71f3E, symObjAddr: 0x4378, symBinAddr: 0x808C, symSize: 0x11C }
  - { offset: 0x1A6A1, size: 0x8, addend: 0x0, symName: '__ZN50_$LT$T$u20$as$u20$core..convert..Into$LT$U$GT$$GT$4into17h756f6244b7c7843cE', symObjAddr: 0x0, symBinAddr: 0x81A8, symSize: 0x18 }
  - { offset: 0x1AE8D, size: 0x8, addend: 0x0, symName: '__ZN50_$LT$T$u20$as$u20$core..convert..Into$LT$U$GT$$GT$4into17h756f6244b7c7843cE', symObjAddr: 0x0, symBinAddr: 0x81A8, symSize: 0x18 }
  - { offset: 0x1BE66, size: 0x8, addend: 0x0, symName: __ZN3std4sync6poison4Flag4done17h8716dcd01b7b5480E, symObjAddr: 0x0, symBinAddr: 0x81C0, symSize: 0x8C }
  - { offset: 0x1C19F, size: 0x8, addend: 0x0, symName: __ZN3std4sync6poison4Flag4done17h8716dcd01b7b5480E, symObjAddr: 0x0, symBinAddr: 0x81C0, symSize: 0x8C }
  - { offset: 0x1C28D, size: 0x8, addend: 0x0, symName: __ZN3std4sync6poison4Flag5guard17ha16a1e188566238fE, symObjAddr: 0x8C, symBinAddr: 0x824C, symSize: 0xCC }
  - { offset: 0x1C35B, size: 0x8, addend: 0x0, symName: __ZN4pyo35impl_4wrap19map_result_into_ptr17h1d6c928c060f0aa8E, symObjAddr: 0x0, symBinAddr: 0x8318, symSize: 0x44 }
  - { offset: 0x1DE42, size: 0x8, addend: 0x0, symName: __ZN4pyo35impl_4wrap19map_result_into_ptr17h1d6c928c060f0aa8E, symObjAddr: 0x0, symBinAddr: 0x8318, symSize: 0x44 }
  - { offset: 0x1DE91, size: 0x8, addend: 0x0, symName: __ZN4pyo35impl_4wrap19map_result_into_ptr17h2f24efb0b67bf11cE, symObjAddr: 0x44, symBinAddr: 0x835C, symSize: 0x38 }
  - { offset: 0x1DEE0, size: 0x8, addend: 0x0, symName: __ZN4pyo35impl_4wrap19map_result_into_ptr17h8af1f0d1c2c7f9c0E, symObjAddr: 0x7C, symBinAddr: 0x8394, symSize: 0x44 }
  - { offset: 0x1DF2F, size: 0x8, addend: 0x0, symName: __ZN4pyo35impl_4wrap19map_result_into_ptr17h9f8fff56a7bdc874E, symObjAddr: 0xC0, symBinAddr: 0x83D8, symSize: 0x38 }
  - { offset: 0x1DF7E, size: 0x8, addend: 0x0, symName: __ZN4pyo35impl_4wrap19map_result_into_ptr17ha68af14b5ef1532fE, symObjAddr: 0xF8, symBinAddr: 0x8410, symSize: 0x38 }
  - { offset: 0x1DFCD, size: 0x8, addend: 0x0, symName: __ZN4pyo35impl_4wrap19map_result_into_ptr17heb70ffd8c3ddfe29E, symObjAddr: 0x130, symBinAddr: 0x8448, symSize: 0x38 }
  - { offset: 0x1E01C, size: 0x8, addend: 0x0, symName: __ZN4pyo35impl_4wrap19map_result_into_ptr17hec62ff7c524f2164E, symObjAddr: 0x168, symBinAddr: 0x8480, symSize: 0x44 }
  - { offset: 0x1E070, size: 0x8, addend: 0x0, symName: '__ZN4pyo35impl_4wrap19map_result_into_ptr28_$u7b$$u7b$closure$u7d$$u7d$17h0beeeeb937871e10E', symObjAddr: 0x1AC, symBinAddr: 0x84C4, symSize: 0x24 }
  - { offset: 0x1E0BE, size: 0x8, addend: 0x0, symName: '__ZN4pyo35impl_4wrap19map_result_into_ptr28_$u7b$$u7b$closure$u7d$$u7d$17h2bdb06014521a3c9E', symObjAddr: 0x1D0, symBinAddr: 0x84E8, symSize: 0x34 }
  - { offset: 0x1E10C, size: 0x8, addend: 0x0, symName: '__ZN4pyo35impl_4wrap19map_result_into_ptr28_$u7b$$u7b$closure$u7d$$u7d$17h39aa76695d48a447E', symObjAddr: 0x204, symBinAddr: 0x851C, symSize: 0x3C }
  - { offset: 0x1E15B, size: 0x8, addend: 0x0, symName: '__ZN4pyo35impl_4wrap19map_result_into_ptr28_$u7b$$u7b$closure$u7d$$u7d$17h9f630bc968b53e6fE', symObjAddr: 0x240, symBinAddr: 0x8558, symSize: 0x3C }
  - { offset: 0x1E1AA, size: 0x8, addend: 0x0, symName: '__ZN4pyo35impl_4wrap19map_result_into_ptr28_$u7b$$u7b$closure$u7d$$u7d$17hcb8d0451bda70dc2E', symObjAddr: 0x27C, symBinAddr: 0x8594, symSize: 0x30 }
  - { offset: 0x1E1F8, size: 0x8, addend: 0x0, symName: '__ZN4pyo35impl_4wrap19map_result_into_ptr28_$u7b$$u7b$closure$u7d$$u7d$17hd7eaf4868dd35282E', symObjAddr: 0x2AC, symBinAddr: 0x85C4, symSize: 0x38 }
  - { offset: 0x1E247, size: 0x8, addend: 0x0, symName: '__ZN4pyo35impl_4wrap19map_result_into_ptr28_$u7b$$u7b$closure$u7d$$u7d$17he8e9502795623093E', symObjAddr: 0x2E4, symBinAddr: 0x85FC, symSize: 0x3C }
  - { offset: 0x1E321, size: 0x8, addend: 0x0, symName: '__ZN56_$LT$T$u20$as$u20$pyo3..impl_..wrap..OkWrap$LT$T$GT$$GT$4wrap17h052b2c85d244e4c9E', symObjAddr: 0x320, symBinAddr: 0x8638, symSize: 0xC }
  - { offset: 0x1E352, size: 0x8, addend: 0x0, symName: '__ZN56_$LT$T$u20$as$u20$pyo3..impl_..wrap..OkWrap$LT$T$GT$$GT$4wrap17hfc618f63075d709dE', symObjAddr: 0x32C, symBinAddr: 0x8644, symSize: 0x10 }
  - { offset: 0x1F043, size: 0x8, addend: 0x0, symName: '__ZN92_$LT$pyo3..pycell..impl_..EmptySlot$u20$as$u20$pyo3..pycell..impl_..PyClassBorrowChecker$GT$10try_borrow17h7452a3c331d29dc6E', symObjAddr: 0x0, symBinAddr: 0x8654, symSize: 0x18 }
  - { offset: 0x1F064, size: 0x8, addend: 0x0, symName: '__ZN92_$LT$pyo3..pycell..impl_..EmptySlot$u20$as$u20$pyo3..pycell..impl_..PyClassBorrowChecker$GT$10try_borrow17h7452a3c331d29dc6E', symObjAddr: 0x0, symBinAddr: 0x8654, symSize: 0x18 }
  - { offset: 0x1F090, size: 0x8, addend: 0x0, symName: '__ZN92_$LT$pyo3..pycell..impl_..EmptySlot$u20$as$u20$pyo3..pycell..impl_..PyClassBorrowChecker$GT$14release_borrow17h117fc807dc22c893E', symObjAddr: 0x18, symBinAddr: 0x866C, symSize: 0x10 }
  - { offset: 0x1F0B8, size: 0x8, addend: 0x0, symName: '__ZN92_$LT$pyo3..pycell..impl_..EmptySlot$u20$as$u20$pyo3..pycell..impl_..PyClassBorrowChecker$GT$3new17h9935af94884d4e49E', symObjAddr: 0x28, symBinAddr: 0x867C, symSize: 0x4 }
  - { offset: 0x1F0D7, size: 0x8, addend: 0x0, symName: '__ZN96_$LT$pyo3..pycell..impl_..BorrowChecker$u20$as$u20$pyo3..pycell..impl_..PyClassBorrowChecker$GT$3new17h9b39da2fa2db3014E', symObjAddr: 0x2C, symBinAddr: 0x8680, symSize: 0x18 }
  - { offset: 0x1F25A, size: 0x8, addend: 0x0, symName: '__ZN104_$LT$T$u20$as$u20$pyo3..callback..IntoPyCallbackOutput$LT$$BP$mut$u20$pyo3_ffi..object..PyObject$GT$$GT$7convert17h171b855893788f28E', symObjAddr: 0x0, symBinAddr: 0x8698, symSize: 0x34 }
  - { offset: 0x20519, size: 0x8, addend: 0x0, symName: '__ZN104_$LT$T$u20$as$u20$pyo3..callback..IntoPyCallbackOutput$LT$$BP$mut$u20$pyo3_ffi..object..PyObject$GT$$GT$7convert17h171b855893788f28E', symObjAddr: 0x0, symBinAddr: 0x8698, symSize: 0x34 }
  - { offset: 0x20567, size: 0x8, addend: 0x0, symName: '__ZN104_$LT$T$u20$as$u20$pyo3..callback..IntoPyCallbackOutput$LT$$BP$mut$u20$pyo3_ffi..object..PyObject$GT$$GT$7convert17h5bc0e64ca1980aedE', symObjAddr: 0x34, symBinAddr: 0x86CC, symSize: 0x34 }
  - { offset: 0x205B5, size: 0x8, addend: 0x0, symName: '__ZN104_$LT$T$u20$as$u20$pyo3..callback..IntoPyCallbackOutput$LT$$BP$mut$u20$pyo3_ffi..object..PyObject$GT$$GT$7convert17he9b8661b0d3e2692E', symObjAddr: 0x68, symBinAddr: 0x8700, symSize: 0x34 }
  - { offset: 0x20604, size: 0x8, addend: 0x0, symName: __ZN4pyo38callback7convert17h1e9999537d06f371E, symObjAddr: 0x9C, symBinAddr: 0x8734, symSize: 0x20 }
  - { offset: 0x2065B, size: 0x8, addend: 0x0, symName: __ZN4pyo38callback7convert17ha347eba1dab12092E, symObjAddr: 0xBC, symBinAddr: 0x8754, symSize: 0x20 }
  - { offset: 0x206B2, size: 0x8, addend: 0x0, symName: __ZN4pyo38callback7convert17ha7199348376c222fE, symObjAddr: 0xDC, symBinAddr: 0x8774, symSize: 0x34 }
  - { offset: 0x2070A, size: 0x8, addend: 0x0, symName: __ZN4pyo38callback7convert17hc7ea629de3a8f685E, symObjAddr: 0x110, symBinAddr: 0x87A8, symSize: 0x20 }
  - { offset: 0x20ED7, size: 0x8, addend: 0x0, symName: '__ZN4pyo311conversions3std6string119_$LT$impl$u20$pyo3..conversion..IntoPy$LT$pyo3..instance..Py$LT$pyo3..types..any..PyAny$GT$$GT$$u20$for$u20$$RF$str$GT$7into_py17h6926ee3d07cdfddaE', symObjAddr: 0x0, symBinAddr: 0x87C8, symSize: 0x34 }
  - { offset: 0x2202B, size: 0x8, addend: 0x0, symName: '__ZN4pyo311conversions3std6string119_$LT$impl$u20$pyo3..conversion..IntoPy$LT$pyo3..instance..Py$LT$pyo3..types..any..PyAny$GT$$GT$$u20$for$u20$$RF$str$GT$7into_py17h6926ee3d07cdfddaE', symObjAddr: 0x0, symBinAddr: 0x87C8, symSize: 0x34 }
  - { offset: 0x22076, size: 0x8, addend: 0x0, symName: '__ZN4pyo311conversions3std6string125_$LT$impl$u20$pyo3..conversion..IntoPy$LT$pyo3..instance..Py$LT$pyo3..types..string..PyString$GT$$GT$$u20$for$u20$$RF$str$GT$7into_py17h5b2890b0262c9f5bE', symObjAddr: 0x34, symBinAddr: 0x87FC, symSize: 0x34 }
  - { offset: 0x226C1, size: 0x8, addend: 0x0, symName: __ZN4pyo35impl_5panic9PanicTrap3new17h49c6865c9006e626E, symObjAddr: 0x0, symBinAddr: 0x8830, symSize: 0x18 }
  - { offset: 0x22750, size: 0x8, addend: 0x0, symName: __ZN4pyo35impl_5panic9PanicTrap3new17h49c6865c9006e626E, symObjAddr: 0x0, symBinAddr: 0x8830, symSize: 0x18 }
  - { offset: 0x22772, size: 0x8, addend: 0x0, symName: __ZN4pyo35impl_5panic9PanicTrap6disarm17he0394f1ff740f065E, symObjAddr: 0x18, symBinAddr: 0x8848, symSize: 0x28 }
  - { offset: 0x227B2, size: 0x8, addend: 0x0, symName: '__ZN104_$LT$T$u20$as$u20$pyo3..callback..IntoPyCallbackOutput$LT$$BP$mut$u20$pyo3_ffi..object..PyObject$GT$$GT$7convert17he53a1b1c0b2a1bb0E', symObjAddr: 0x0, symBinAddr: 0x8870, symSize: 0x48 }
  - { offset: 0x23A71, size: 0x8, addend: 0x0, symName: '__ZN104_$LT$T$u20$as$u20$pyo3..callback..IntoPyCallbackOutput$LT$$BP$mut$u20$pyo3_ffi..object..PyObject$GT$$GT$7convert17he53a1b1c0b2a1bb0E', symObjAddr: 0x0, symBinAddr: 0x8870, symSize: 0x48 }
  - { offset: 0x24230, size: 0x8, addend: 0x0, symName: '__ZN104_$LT$core..iter..adapters..copied..Copied$LT$I$GT$$u20$as$u20$core..iter..traits..iterator..Iterator$GT$4next17ha5fece263de7056bE', symObjAddr: 0x0, symBinAddr: 0x88B8, symSize: 0x5C }
  - { offset: 0x25481, size: 0x8, addend: 0x0, symName: '__ZN104_$LT$core..iter..adapters..copied..Copied$LT$I$GT$$u20$as$u20$core..iter..traits..iterator..Iterator$GT$4next17ha5fece263de7056bE', symObjAddr: 0x0, symBinAddr: 0x88B8, symSize: 0x5C }
  - { offset: 0x25526, size: 0x8, addend: 0x0, symName: '__ZN63_$LT$I$u20$as$u20$core..iter..traits..collect..IntoIterator$GT$9into_iter17hdbc0407651ec5b0cE', symObjAddr: 0x5C, symBinAddr: 0x8914, symSize: 0x1C }
  - { offset: 0x25BE2, size: 0x8, addend: 0x0, symName: '__ZN52_$LT$Q$u20$as$u20$hashbrown..Equivalent$LT$K$GT$$GT$10equivalent17hf08e7ab689efd9d3E', symObjAddr: 0x0, symBinAddr: 0x8930, symSize: 0x40 }
  - { offset: 0x25C93, size: 0x8, addend: 0x0, symName: '__ZN52_$LT$Q$u20$as$u20$hashbrown..Equivalent$LT$K$GT$$GT$10equivalent17hf08e7ab689efd9d3E', symObjAddr: 0x0, symBinAddr: 0x8930, symSize: 0x40 }
  - { offset: 0x25D13, size: 0x8, addend: 0x0, symName: _PyInit__planck, symObjAddr: 0x0, symBinAddr: 0x8970, symSize: 0x34 }
  - { offset: 0x25D37, size: 0x8, addend: 0x0, symName: __ZN7_planck7_planck9_PYO3_DEF17h57863cc2df7fc11fE, symObjAddr: 0x50, symBinAddr: 0xC04E8, symSize: 0x0 }
  - { offset: 0x25D44, size: 0x8, addend: 0x0, symName: _PyInit__planck, symObjAddr: 0x0, symBinAddr: 0x8970, symSize: 0x34 }
  - { offset: 0x279BF, size: 0x8, addend: 0x0, symName: '__ZN114_$LT$pyo3..pyclass_init..PyNativeTypeInitializer$LT$T$GT$$u20$as$u20$pyo3..pyclass_init..PyObjectInit$LT$T$GT$$GT$15into_new_object17hf05858f11f4ff041E', symObjAddr: 0x0, symBinAddr: 0x89A4, symSize: 0x3C }
  - { offset: 0x29A61, size: 0x8, addend: 0x0, symName: '__ZN114_$LT$pyo3..pyclass_init..PyNativeTypeInitializer$LT$T$GT$$u20$as$u20$pyo3..pyclass_init..PyObjectInit$LT$T$GT$$GT$15into_new_object17hf05858f11f4ff041E', symObjAddr: 0x0, symBinAddr: 0x89A4, symSize: 0x3C }
  - { offset: 0x29AE5, size: 0x8, addend: 0x0, symName: '__ZN114_$LT$pyo3..pyclass_init..PyNativeTypeInitializer$LT$T$GT$$u20$as$u20$pyo3..pyclass_init..PyObjectInit$LT$T$GT$$GT$17can_be_subclassed17hab357d1160354a89E', symObjAddr: 0x3C, symBinAddr: 0x89E0, symSize: 0x18 }
  - { offset: 0x2A036, size: 0x8, addend: 0x0, symName: '__ZN96_$LT$pyo3..pyclass_init..PyClassInitializer$LT$T$GT$$u20$as$u20$core..convert..From$LT$T$GT$$GT$4from17h1166c325d22ded9bE', symObjAddr: 0x1248, symBinAddr: 0x9BEC, symSize: 0x48 }
  - { offset: 0x2A06E, size: 0x8, addend: 0x0, symName: '__ZN96_$LT$pyo3..pyclass_init..PyClassInitializer$LT$T$GT$$u20$as$u20$core..convert..From$LT$T$GT$$GT$4from17h14aa1802f4d3d6c1E', symObjAddr: 0x1290, symBinAddr: 0x9C34, symSize: 0x48 }
  - { offset: 0x2A0A6, size: 0x8, addend: 0x0, symName: '__ZN96_$LT$pyo3..pyclass_init..PyClassInitializer$LT$T$GT$$u20$as$u20$core..convert..From$LT$T$GT$$GT$4from17h75e2edbd69589981E', symObjAddr: 0x12D8, symBinAddr: 0x9C7C, symSize: 0x48 }
  - { offset: 0x2A0DE, size: 0x8, addend: 0x0, symName: '__ZN96_$LT$pyo3..pyclass_init..PyClassInitializer$LT$T$GT$$u20$as$u20$core..convert..From$LT$T$GT$$GT$4from17h88fde376bbdd47a5E', symObjAddr: 0x1320, symBinAddr: 0x9CC4, symSize: 0x3C }
  - { offset: 0x2ADDD, size: 0x8, addend: 0x0, symName: '__ZN4pyo312pyclass_init27PyClassInitializer$LT$T$GT$19create_class_object17h139c7f452918f725E', symObjAddr: 0x54, symBinAddr: 0x89F8, symSize: 0x98 }
  - { offset: 0x2AE22, size: 0x8, addend: 0x0, symName: '__ZN4pyo312pyclass_init27PyClassInitializer$LT$T$GT$19create_class_object17h2a504b0928774894E', symObjAddr: 0xEC, symBinAddr: 0x8A90, symSize: 0x94 }
  - { offset: 0x2AE67, size: 0x8, addend: 0x0, symName: '__ZN4pyo312pyclass_init27PyClassInitializer$LT$T$GT$19create_class_object17h47179bc4a7bbc585E', symObjAddr: 0x180, symBinAddr: 0x8B24, symSize: 0x98 }
  - { offset: 0x2B17C, size: 0x8, addend: 0x0, symName: '__ZN4pyo312pyclass_init27PyClassInitializer$LT$T$GT$19create_class_object17ha8bc143f55a7c032E', symObjAddr: 0x218, symBinAddr: 0x8BBC, symSize: 0x98 }
  - { offset: 0x2B252, size: 0x8, addend: 0x0, symName: '__ZN4pyo312pyclass_init27PyClassInitializer$LT$T$GT$27create_class_object_of_type17h0a1568b85258191bE', symObjAddr: 0x2B0, symBinAddr: 0x8C54, symSize: 0x308 }
  - { offset: 0x2B495, size: 0x8, addend: 0x0, symName: '__ZN4pyo312pyclass_init27PyClassInitializer$LT$T$GT$27create_class_object_of_type17h2059c5fdfb05d776E', symObjAddr: 0x5B8, symBinAddr: 0x8F5C, symSize: 0x2F8 }
  - { offset: 0x2B6D8, size: 0x8, addend: 0x0, symName: '__ZN4pyo312pyclass_init27PyClassInitializer$LT$T$GT$27create_class_object_of_type17h58cf54b63be238f0E', symObjAddr: 0x8B0, symBinAddr: 0x9254, symSize: 0x308 }
  - { offset: 0x2B91B, size: 0x8, addend: 0x0, symName: '__ZN4pyo312pyclass_init27PyClassInitializer$LT$T$GT$27create_class_object_of_type17hf72c37a4f6ddeef9E', symObjAddr: 0xBB8, symBinAddr: 0x955C, symSize: 0x2D0 }
  - { offset: 0x2BB26, size: 0x8, addend: 0x0, symName: '__ZN4pyo312pyclass_init27PyClassInitializer$LT$T$GT$3new17h2372c083f1a0bdf5E', symObjAddr: 0xE88, symBinAddr: 0x982C, symSize: 0xD8 }
  - { offset: 0x2BB60, size: 0x8, addend: 0x0, symName: '__ZN4pyo312pyclass_init27PyClassInitializer$LT$T$GT$3new17h2f65ea746170ee4bE', symObjAddr: 0xF60, symBinAddr: 0x9904, symSize: 0xF8 }
  - { offset: 0x2BB9B, size: 0x8, addend: 0x0, symName: '__ZN4pyo312pyclass_init27PyClassInitializer$LT$T$GT$3new17h35daae657e224a14E', symObjAddr: 0x1058, symBinAddr: 0x99FC, symSize: 0xF8 }
  - { offset: 0x2BBD6, size: 0x8, addend: 0x0, symName: '__ZN4pyo312pyclass_init27PyClassInitializer$LT$T$GT$3new17h9501d5701e2fccc0E', symObjAddr: 0x1150, symBinAddr: 0x9AF4, symSize: 0xF8 }
  - { offset: 0x2BC43, size: 0x8, addend: 0x0, symName: '__ZN71_$LT$alloc..borrow..Cow$LT$B$GT$$u20$as$u20$core..ops..deref..Deref$GT$5deref17h2589cff3928fa39eE', symObjAddr: 0x0, symBinAddr: 0x9D00, symSize: 0x70 }
  - { offset: 0x2BC5F, size: 0x8, addend: 0x0, symName: '__ZN71_$LT$alloc..borrow..Cow$LT$B$GT$$u20$as$u20$core..ops..deref..Deref$GT$5deref17h2589cff3928fa39eE', symObjAddr: 0x0, symBinAddr: 0x9D00, symSize: 0x70 }
  - { offset: 0x2BE0F, size: 0x8, addend: 0x0, symName: __ZN4core3fmt9Arguments3new17h76008bd007f47b9dE, symObjAddr: 0x0, symBinAddr: 0x9D70, symSize: 0x1C }
  - { offset: 0x2C18D, size: 0x8, addend: 0x0, symName: __ZN4core3fmt9Arguments3new17h76008bd007f47b9dE, symObjAddr: 0x0, symBinAddr: 0x9D70, symSize: 0x1C }
  - { offset: 0x2C1F3, size: 0x8, addend: 0x0, symName: __ZN4core3fmt9Arguments3new17h77c4bf3ed8b63fb4E, symObjAddr: 0x1C, symBinAddr: 0x9D8C, symSize: 0x1C }
  - { offset: 0x2C259, size: 0x8, addend: 0x0, symName: __ZN4core3fmt9Arguments3new17hfc33d1e89dccb12bE, symObjAddr: 0x38, symBinAddr: 0x9DA8, symSize: 0x1C }
  - { offset: 0x2C2A9, size: 0x8, addend: 0x0, symName: __ZN4pyo35impl_10trampoline10trampoline17h008e41b26c4514e8E, symObjAddr: 0x0, symBinAddr: 0x9DC4, symSize: 0x14C }
  - { offset: 0x2D5F9, size: 0x8, addend: 0x0, symName: __ZN4pyo35impl_10trampoline10trampoline17h008e41b26c4514e8E, symObjAddr: 0x0, symBinAddr: 0x9DC4, symSize: 0x14C }
  - { offset: 0x2D69B, size: 0x8, addend: 0x0, symName: __ZN4pyo35impl_10trampoline10trampoline17h328bdab7c7af8094E, symObjAddr: 0x14C, symBinAddr: 0x9F10, symSize: 0x158 }
  - { offset: 0x2D73E, size: 0x8, addend: 0x0, symName: __ZN4pyo35impl_10trampoline10trampoline17h6174f9c9fc12c401E, symObjAddr: 0x2A4, symBinAddr: 0xA068, symSize: 0x158 }
  - { offset: 0x2D7E1, size: 0x8, addend: 0x0, symName: __ZN4pyo35impl_10trampoline10trampoline17h7ec5ad42261dab8bE, symObjAddr: 0x3FC, symBinAddr: 0xA1C0, symSize: 0x160 }
  - { offset: 0x2D88A, size: 0x8, addend: 0x0, symName: '__ZN4pyo35impl_10trampoline10trampoline28_$u7b$$u7b$closure$u7d$$u7d$17h0e3bf32003a9f876E', symObjAddr: 0x55C, symBinAddr: 0xA320, symSize: 0x40 }
  - { offset: 0x2D8D9, size: 0x8, addend: 0x0, symName: '__ZN4pyo35impl_10trampoline10trampoline28_$u7b$$u7b$closure$u7d$$u7d$17h188aade311eaa197E', symObjAddr: 0x59C, symBinAddr: 0xA360, symSize: 0x24 }
  - { offset: 0x2D927, size: 0x8, addend: 0x0, symName: '__ZN4pyo35impl_10trampoline10trampoline28_$u7b$$u7b$closure$u7d$$u7d$17h2dbdc79627e960a0E', symObjAddr: 0x5C0, symBinAddr: 0xA384, symSize: 0x2C }
  - { offset: 0x2D975, size: 0x8, addend: 0x0, symName: '__ZN4pyo35impl_10trampoline10trampoline28_$u7b$$u7b$closure$u7d$$u7d$17hb6328d15fff31252E', symObjAddr: 0x5EC, symBinAddr: 0xA3B0, symSize: 0x2C }
  - { offset: 0x2D9C9, size: 0x8, addend: 0x0, symName: '__ZN4pyo35impl_10trampoline11module_init28_$u7b$$u7b$closure$u7d$$u7d$17hfc2ef23c820d26b3E', symObjAddr: 0x618, symBinAddr: 0xA3DC, symSize: 0x40 }
  - { offset: 0x2DA15, size: 0x8, addend: 0x0, symName: '__ZN4pyo35impl_10trampoline11module_init28_$u7b$$u7b$closure$u7d$$u7d$28_$u7b$$u7b$closure$u7d$$u7d$17h60bae23c790d1efbE', symObjAddr: 0x658, symBinAddr: 0xA41C, symSize: 0x24 }
  - { offset: 0x2DA67, size: 0x8, addend: 0x0, symName: __ZN4pyo35impl_10trampoline21trampoline_unraisable17h9ccfa43906e77fe6E, symObjAddr: 0x67C, symBinAddr: 0xA440, symSize: 0x20C }
  - { offset: 0x2DB0A, size: 0x8, addend: 0x0, symName: '__ZN4pyo35impl_10trampoline21trampoline_unraisable28_$u7b$$u7b$closure$u7d$$u7d$17h42fd264c78197391E', symObjAddr: 0x888, symBinAddr: 0xA64C, symSize: 0x2C }
  - { offset: 0x2DB4F, size: 0x8, addend: 0x0, symName: '__ZN4pyo35impl_10trampoline21trampoline_unraisable28_$u7b$$u7b$closure$u7d$$u7d$17hf3a93ef42d0baae5E', symObjAddr: 0x8B4, symBinAddr: 0xA678, symSize: 0x50 }
  - { offset: 0x2DB9B, size: 0x8, addend: 0x0, symName: '__ZN4pyo35impl_10trampoline22fastcall_with_keywords28_$u7b$$u7b$closure$u7d$$u7d$17h659a7237c45ce931E', symObjAddr: 0x904, symBinAddr: 0xA6C8, symSize: 0x48 }
  - { offset: 0x2DC67, size: 0x8, addend: 0x0, symName: '__ZN4pyo35impl_10trampoline6noargs28_$u7b$$u7b$closure$u7d$$u7d$17h74b72124a3510177E', symObjAddr: 0x94C, symBinAddr: 0xA710, symSize: 0x34 }
  - { offset: 0x2DCE4, size: 0x8, addend: 0x0, symName: '__ZN4pyo35impl_10trampoline7dealloc28_$u7b$$u7b$closure$u7d$$u7d$17h600a78192d16c460E', symObjAddr: 0x980, symBinAddr: 0xA744, symSize: 0x40 }
  - { offset: 0x2DD61, size: 0x8, addend: 0x0, symName: '__ZN4pyo35impl_10trampoline8reprfunc28_$u7b$$u7b$closure$u7d$$u7d$17h8c4e8c63996a513fE', symObjAddr: 0x9C0, symBinAddr: 0xA784, symSize: 0x34 }
  - { offset: 0x2E5F0, size: 0x8, addend: 0x0, symName: '__ZN4core5tuple64_$LT$impl$u20$core..cmp..PartialEq$u20$for$u20$$LP$U$C$T$RP$$GT$2eq17hec7cef72e8d62621E', symObjAddr: 0x0, symBinAddr: 0xA7B8, symSize: 0x60 }
  - { offset: 0x2E60C, size: 0x8, addend: 0x0, symName: '__ZN4core5tuple64_$LT$impl$u20$core..cmp..PartialEq$u20$for$u20$$LP$U$C$T$RP$$GT$2eq17hec7cef72e8d62621E', symObjAddr: 0x0, symBinAddr: 0xA7B8, symSize: 0x60 }
  - { offset: 0x2E6B2, size: 0x8, addend: 0x0, symName: '__ZN4core3str6traits54_$LT$impl$u20$core..cmp..PartialEq$u20$for$u20$str$GT$2eq17h6341fdc76f102132E', symObjAddr: 0x0, symBinAddr: 0xA818, symSize: 0x4C }
  - { offset: 0x2E6F7, size: 0x8, addend: 0x0, symName: '__ZN4core3str6traits54_$LT$impl$u20$core..cmp..PartialEq$u20$for$u20$str$GT$2eq17h6341fdc76f102132E', symObjAddr: 0x0, symBinAddr: 0xA818, symSize: 0x4C }
  - { offset: 0x2E8C8, size: 0x8, addend: 0x0, symName: '__ZN106_$LT$core..ops..range..Range$LT$usize$GT$$u20$as$u20$core..slice..index..SliceIndex$LT$$u5b$T$u5d$$GT$$GT$9index_mut17h2bfc792dd85776daE', symObjAddr: 0x0, symBinAddr: 0xA864, symSize: 0xBC }
  - { offset: 0x2FA9B, size: 0x8, addend: 0x0, symName: '__ZN106_$LT$core..ops..range..Range$LT$usize$GT$$u20$as$u20$core..slice..index..SliceIndex$LT$$u5b$T$u5d$$GT$$GT$9index_mut17h2bfc792dd85776daE', symObjAddr: 0x0, symBinAddr: 0xA864, symSize: 0xBC }
  - { offset: 0x2FB4C, size: 0x8, addend: 0x0, symName: '__ZN108_$LT$core..ops..range..RangeTo$LT$usize$GT$$u20$as$u20$core..slice..index..SliceIndex$LT$$u5b$T$u5d$$GT$$GT$9index_mut17h61aa76fa3d8da187E', symObjAddr: 0xBC, symBinAddr: 0xA920, symSize: 0x54 }
  - { offset: 0x2FBD3, size: 0x8, addend: 0x0, symName: '__ZN110_$LT$core..ops..range..RangeFrom$LT$usize$GT$$u20$as$u20$core..slice..index..SliceIndex$LT$$u5b$T$u5d$$GT$$GT$5index17ha586782876e54d97E', symObjAddr: 0x110, symBinAddr: 0xA974, symSize: 0x70 }
  - { offset: 0x303E4, size: 0x8, addend: 0x0, symName: '__ZN4core3cmp5impls56_$LT$impl$u20$core..cmp..PartialEq$u20$for$u20$usize$GT$2eq17hfcf2bbc5c80058d5E', symObjAddr: 0x0, symBinAddr: 0xA9E4, symSize: 0x2C }
  - { offset: 0x30405, size: 0x8, addend: 0x0, symName: '__ZN4core3cmp5impls56_$LT$impl$u20$core..cmp..PartialEq$u20$for$u20$usize$GT$2eq17hfcf2bbc5c80058d5E', symObjAddr: 0x0, symBinAddr: 0xA9E4, symSize: 0x2C }
  - { offset: 0x3047F, size: 0x8, addend: 0x0, symName: '__ZN119_$LT$pyo3..instance..Bound$LT$pyo3..types..typeobject..PyType$GT$$u20$as$u20$pyo3..types..typeobject..PyTypeMethods$GT$11as_type_ptr17h781e0e936b9421d9E', symObjAddr: 0x0, symBinAddr: 0xAA10, symSize: 0x24 }
  - { offset: 0x31740, size: 0x8, addend: 0x0, symName: '__ZN119_$LT$pyo3..instance..Bound$LT$pyo3..types..typeobject..PyType$GT$$u20$as$u20$pyo3..types..typeobject..PyTypeMethods$GT$11as_type_ptr17h781e0e936b9421d9E', symObjAddr: 0x0, symBinAddr: 0xAA10, symSize: 0x24 }
  - { offset: 0x31E71, size: 0x8, addend: 0x0, symName: '__ZN4pyo38instance36Bound$LT$pyo3..types..any..PyAny$GT$14from_owned_ptr17h3196f03ca723bc6bE', symObjAddr: 0x24, symBinAddr: 0xAA34, symSize: 0x2C }
  - { offset: 0x31EB9, size: 0x8, addend: 0x0, symName: '__ZN4pyo38instance39Borrowed$LT$pyo3..types..any..PyAny$GT$15from_ptr_or_opt17ha39c78870976fddbE', symObjAddr: 0x50, symBinAddr: 0xAA60, symSize: 0x2C }
  - { offset: 0x31EF7, size: 0x8, addend: 0x0, symName: '__ZN4pyo38instance39Borrowed$LT$pyo3..types..any..PyAny$GT$18from_ptr_unchecked17h12d58e911d128317E', symObjAddr: 0x7C, symBinAddr: 0xAA8C, symSize: 0x2C }
  - { offset: 0x31F35, size: 0x8, addend: 0x0, symName: '__ZN4pyo38instance39Borrowed$LT$pyo3..types..any..PyAny$GT$8from_ptr17h2b10b378ac25fb12E', symObjAddr: 0xA8, symBinAddr: 0xAAB8, symSize: 0x34 }
  - { offset: 0x31F9E, size: 0x8, addend: 0x0, symName: '__ZN100_$LT$pyo3..types..tuple..BorrowedTupleIterator$u20$as$u20$core..iter..traits..iterator..Iterator$GT$4next17h713059897c3bb17aE', symObjAddr: 0x0, symBinAddr: 0xAAEC, symSize: 0x9C }
  - { offset: 0x33172, size: 0x8, addend: 0x0, symName: '__ZN100_$LT$pyo3..types..tuple..BorrowedTupleIterator$u20$as$u20$core..iter..traits..iterator..Iterator$GT$4next17h713059897c3bb17aE', symObjAddr: 0x0, symBinAddr: 0xAAEC, symSize: 0x9C }
  - { offset: 0x33848, size: 0x8, addend: 0x0, symName: __ZN4pyo37pyclass18create_type_object18create_type_object17h19f531bc047170f8E, symObjAddr: 0x0, symBinAddr: 0xAB88, symSize: 0x164 }
  - { offset: 0x35061, size: 0x8, addend: 0x0, symName: __ZN4pyo37pyclass18create_type_object18create_type_object17h19f531bc047170f8E, symObjAddr: 0x0, symBinAddr: 0xAB88, symSize: 0x164 }
  - { offset: 0x350C1, size: 0x8, addend: 0x0, symName: __ZN4pyo37pyclass18create_type_object18create_type_object17h65d748b17c7cab80E, symObjAddr: 0x164, symBinAddr: 0xACEC, symSize: 0x164 }
  - { offset: 0x35121, size: 0x8, addend: 0x0, symName: __ZN4pyo37pyclass18create_type_object18create_type_object17h88bf0b37e6b9bb87E, symObjAddr: 0x2C8, symBinAddr: 0xAE50, symSize: 0x164 }
  - { offset: 0x35181, size: 0x8, addend: 0x0, symName: __ZN4pyo37pyclass18create_type_object18create_type_object17hdf4c76c327a04548E, symObjAddr: 0x42C, symBinAddr: 0xAFB4, symSize: 0x164 }
  - { offset: 0x35FEC, size: 0x8, addend: 0x0, symName: '__ZN3std4sync6poison5mutex14Mutex$LT$T$GT$3new17h28285ea28002b3f0E', symObjAddr: 0x0, symBinAddr: 0xB118, symSize: 0x7C }
  - { offset: 0x3646D, size: 0x8, addend: 0x0, symName: '__ZN3std4sync6poison5mutex19MutexGuard$LT$T$GT$3new28_$u7b$$u7b$closure$u7d$$u7d$17hbed8a640bc4dd6b5E', symObjAddr: 0xC4, symBinAddr: 0xB1DC, symSize: 0x18 }
  - { offset: 0x364BC, size: 0x8, addend: 0x0, symName: '__ZN89_$LT$std..sync..poison..mutex..MutexGuard$LT$T$GT$$u20$as$u20$core..ops..deref..Deref$GT$5deref17h183db37b7e629115E', symObjAddr: 0xDC, symBinAddr: 0xB1F4, symSize: 0x1C }
  - { offset: 0x3650E, size: 0x8, addend: 0x0, symName: '__ZN92_$LT$std..sync..poison..mutex..MutexGuard$LT$T$GT$$u20$as$u20$core..ops..deref..DerefMut$GT$9deref_mut17hdf0b83113312bee8E', symObjAddr: 0xF8, symBinAddr: 0xB210, symSize: 0x1C }
  - { offset: 0x36A98, size: 0x8, addend: 0x0, symName: '__ZN3std4sync6poison5mutex14Mutex$LT$T$GT$3new17h28285ea28002b3f0E', symObjAddr: 0x0, symBinAddr: 0xB118, symSize: 0x7C }
  - { offset: 0x36BAA, size: 0x8, addend: 0x0, symName: '__ZN3std4sync6poison5mutex14Mutex$LT$T$GT$4lock17h5469c37b5d6e5fa5E', symObjAddr: 0x7C, symBinAddr: 0xB194, symSize: 0x48 }
  - { offset: 0x36CBB, size: 0x8, addend: 0x0, symName: __ZN9hashbrown7control5group4neon5Group10match_full17hc7dd2d87f2c8fcf0E, symObjAddr: 0x0, symBinAddr: 0xB22C, symSize: 0x68 }
  - { offset: 0x36DD3, size: 0x8, addend: 0x0, symName: __ZN9hashbrown7control5group4neon5Group10match_full17hc7dd2d87f2c8fcf0E, symObjAddr: 0x0, symBinAddr: 0xB22C, symSize: 0x68 }
  - { offset: 0x36E0B, size: 0x8, addend: 0x0, symName: __ZN9hashbrown7control5group4neon5Group22match_empty_or_deleted17h9deac43ae61a9738E, symObjAddr: 0x68, symBinAddr: 0xB294, symSize: 0x68 }
  - { offset: 0x36E43, size: 0x8, addend: 0x0, symName: __ZN9hashbrown7control5group4neon5Group44convert_special_to_empty_and_full_to_deleted17h73e8d546e0320a20E, symObjAddr: 0xD0, symBinAddr: 0xB2FC, symSize: 0x88 }
  - { offset: 0x36E7B, size: 0x8, addend: 0x0, symName: __ZN9hashbrown7control5group4neon5Group9match_tag17h013057fdfaa763cdE, symObjAddr: 0x158, symBinAddr: 0xB384, symSize: 0x7C }
  - { offset: 0x36EE7, size: 0x8, addend: 0x0, symName: '__ZN7_planck7_planck11__pyo3_init28_$u7b$$u7b$closure$u7d$$u7d$17h31c55c3a29837ca2E', symObjAddr: 0x0, symBinAddr: 0xB400, symSize: 0x28 }
  - { offset: 0x38137, size: 0x8, addend: 0x0, symName: '__ZN7_planck7_planck11__pyo3_init28_$u7b$$u7b$closure$u7d$$u7d$17h31c55c3a29837ca2E', symObjAddr: 0x0, symBinAddr: 0xB400, symSize: 0x28 }
  - { offset: 0x38863, size: 0x8, addend: 0x0, symName: '__ZN3std11collections4hash3map20HashMap$LT$K$C$V$GT$3new17hfb48d7b5772ab065E', symObjAddr: 0x0, symBinAddr: 0xB428, symSize: 0x7C }
  - { offset: 0x39156, size: 0x8, addend: 0x0, symName: '__ZN3std11collections4hash3map20HashMap$LT$K$C$V$GT$3new17hfb48d7b5772ab065E', symObjAddr: 0x0, symBinAddr: 0xB428, symSize: 0x7C }
  - { offset: 0x3922C, size: 0x8, addend: 0x0, symName: '__ZN3std11collections4hash3map28HashMap$LT$K$C$V$C$S$C$A$GT$3get17h95e666abf6939e7cE', symObjAddr: 0x7C, symBinAddr: 0xB4A4, symSize: 0x2C }
  - { offset: 0x392E9, size: 0x8, addend: 0x0, symName: '__ZN3std11collections4hash3map28HashMap$LT$K$C$V$C$S$C$A$GT$3len17hd24d7f7654fd4f57E', symObjAddr: 0xA8, symBinAddr: 0xB4D0, symSize: 0x18 }
  - { offset: 0x393AC, size: 0x8, addend: 0x0, symName: '__ZN3std11collections4hash3map28HashMap$LT$K$C$V$C$S$C$A$GT$5clear17hd60fd222aa5c6f27E', symObjAddr: 0xC0, symBinAddr: 0xB4E8, symSize: 0x20 }
  - { offset: 0x39410, size: 0x8, addend: 0x0, symName: '__ZN3std11collections4hash3map28HashMap$LT$K$C$V$C$S$C$A$GT$6insert17h96cedf9e20371c3bE', symObjAddr: 0xE0, symBinAddr: 0xB508, symSize: 0x2C }
  - { offset: 0x39494, size: 0x8, addend: 0x0, symName: __ZN4core3ptr19copy_nonoverlapping18precondition_check17hc5d26e6a56ce8fb8E, symObjAddr: 0x0, symBinAddr: 0xB534, symSize: 0x168 }
  - { offset: 0x3957C, size: 0x8, addend: 0x0, symName: __ZN4core3ptr19copy_nonoverlapping18precondition_check17hc5d26e6a56ce8fb8E, symObjAddr: 0x0, symBinAddr: 0xB534, symSize: 0x168 }
  - { offset: 0x397A3, size: 0x8, addend: 0x0, symName: __ZN4core3ptr25swap_nonoverlapping_bytes17h0cd21db24bd1c2dbE, symObjAddr: 0x168, symBinAddr: 0xB69C, symSize: 0xD8 }
  - { offset: 0x3994C, size: 0x8, addend: 0x0, symName: __ZN4core3ptr25swap_nonoverlapping_bytes25swap_nonoverlapping_short17h9096989afd3e91b9E, symObjAddr: 0x240, symBinAddr: 0xB774, symSize: 0x11C }
  - { offset: 0x39CA8, size: 0x8, addend: 0x0, symName: __ZN3std9panicking12catch_unwind7do_call17h54e91a571b2dd3c7E, symObjAddr: 0x0, symBinAddr: 0xB890, symSize: 0x70 }
  - { offset: 0x3BC1F, size: 0x8, addend: 0x0, symName: __ZN3std9panicking12catch_unwind7do_call17h54e91a571b2dd3c7E, symObjAddr: 0x0, symBinAddr: 0xB890, symSize: 0x70 }
  - { offset: 0x3BD19, size: 0x8, addend: 0x0, symName: __ZN3std9panicking12catch_unwind7do_call17h8c60be70ec3589e1E, symObjAddr: 0x70, symBinAddr: 0xB900, symSize: 0x7C }
  - { offset: 0x3BE13, size: 0x8, addend: 0x0, symName: __ZN3std9panicking12catch_unwind7do_call17h987e19e7cbf40e7cE, symObjAddr: 0xEC, symBinAddr: 0xB97C, symSize: 0x84 }
  - { offset: 0x3BF0E, size: 0x8, addend: 0x0, symName: __ZN3std9panicking12catch_unwind7do_call17hf00ed8ebd0fb0d53E, symObjAddr: 0x170, symBinAddr: 0xBA00, symSize: 0x7C }
  - { offset: 0x3C008, size: 0x8, addend: 0x0, symName: __ZN3std9panicking12catch_unwind7do_call17hf80abfa37bdd83e1E, symObjAddr: 0x1EC, symBinAddr: 0xBA7C, symSize: 0x7C }
  - { offset: 0x3C102, size: 0x8, addend: 0x0, symName: __ZN3std9panicking12catch_unwind8do_catch17h378ece8927881487E, symObjAddr: 0x268, symBinAddr: 0xBAF8, symSize: 0x70 }
  - { offset: 0x3C197, size: 0x8, addend: 0x0, symName: __ZN3std9panicking12catch_unwind8do_catch17h54217280cf585f0eE, symObjAddr: 0x2D8, symBinAddr: 0xBB68, symSize: 0x70 }
  - { offset: 0x3C22C, size: 0x8, addend: 0x0, symName: __ZN3std9panicking12catch_unwind8do_catch17h63085565f1d6c941E, symObjAddr: 0x348, symBinAddr: 0xBBD8, symSize: 0x70 }
  - { offset: 0x3C2C1, size: 0x8, addend: 0x0, symName: __ZN3std9panicking12catch_unwind8do_catch17hb65cd8a96ccf6b13E, symObjAddr: 0x3B8, symBinAddr: 0xBC48, symSize: 0x70 }
  - { offset: 0x3C356, size: 0x8, addend: 0x0, symName: __ZN3std9panicking12catch_unwind8do_catch17hf9b1238d559c00a4E, symObjAddr: 0x428, symBinAddr: 0xBCB8, symSize: 0x70 }
  - { offset: 0x3C7B2, size: 0x8, addend: 0x0, symName: '__ZN97_$LT$alloc..ffi..c_str..CString$u20$as$u20$core..borrow..Borrow$LT$core..ffi..c_str..CStr$GT$$GT$6borrow17h07fc3deb22b87626E', symObjAddr: 0x0, symBinAddr: 0xBD28, symSize: 0x20 }
  - { offset: 0x3C838, size: 0x8, addend: 0x0, symName: '__ZN97_$LT$alloc..ffi..c_str..CString$u20$as$u20$core..borrow..Borrow$LT$core..ffi..c_str..CStr$GT$$GT$6borrow17h07fc3deb22b87626E', symObjAddr: 0x0, symBinAddr: 0xBD28, symSize: 0x20 }
  - { offset: 0x3C9BD, size: 0x8, addend: 0x0, symName: __ZN3std5panic12catch_unwind17h42c5bb6f0cb3fd4fE, symObjAddr: 0x0, symBinAddr: 0xBD48, symSize: 0xC0 }
  - { offset: 0x3E56F, size: 0x8, addend: 0x0, symName: __ZN3std5panic12catch_unwind17h42c5bb6f0cb3fd4fE, symObjAddr: 0x0, symBinAddr: 0xBD48, symSize: 0xC0 }
  - { offset: 0x3E694, size: 0x8, addend: 0x0, symName: __ZN3std5panic12catch_unwind17h42fbc1743d1c76e3E, symObjAddr: 0xC0, symBinAddr: 0xBE08, symSize: 0xD0 }
  - { offset: 0x3E7B9, size: 0x8, addend: 0x0, symName: __ZN3std5panic12catch_unwind17hb2859161d7d5c4ecE, symObjAddr: 0x190, symBinAddr: 0xBED8, symSize: 0xD0 }
  - { offset: 0x3E8DE, size: 0x8, addend: 0x0, symName: __ZN3std5panic12catch_unwind17he445f5c90855dd6cE, symObjAddr: 0x260, symBinAddr: 0xBFA8, symSize: 0x100 }
  - { offset: 0x3EA39, size: 0x8, addend: 0x0, symName: __ZN3std5panic12catch_unwind17hf86ab250db517864E, symObjAddr: 0x360, symBinAddr: 0xC0A8, symSize: 0xD0 }
  - { offset: 0x3F5F6, size: 0x8, addend: 0x0, symName: __ZN4pyo35impl_12deprecations12inspect_type17h1b41faf7285f97d3E, symObjAddr: 0x0, symBinAddr: 0xC1CC, symSize: 0x1C }
  - { offset: 0x40C28, size: 0x8, addend: 0x0, symName: __ZN4pyo35impl_12deprecations12inspect_type17h1b41faf7285f97d3E, symObjAddr: 0x0, symBinAddr: 0xC1CC, symSize: 0x1C }
  - { offset: 0x40C67, size: 0x8, addend: 0x0, symName: __ZN4pyo35impl_12deprecations12inspect_type17h31c42acc30b76319E, symObjAddr: 0x1C, symBinAddr: 0xC1E8, symSize: 0x18 }
  - { offset: 0x40CA6, size: 0x8, addend: 0x0, symName: __ZN4pyo35impl_12deprecations12inspect_type17h6678eb5cca0afaebE, symObjAddr: 0x34, symBinAddr: 0xC200, symSize: 0x18 }
  - { offset: 0x40CE5, size: 0x8, addend: 0x0, symName: __ZN4pyo35impl_12deprecations12inspect_type17h731d530dce0691f7E, symObjAddr: 0x4C, symBinAddr: 0xC218, symSize: 0x18 }
  - { offset: 0x40D24, size: 0x8, addend: 0x0, symName: __ZN4pyo35impl_12deprecations12inspect_type17ha18befea89bd613eE, symObjAddr: 0x64, symBinAddr: 0xC230, symSize: 0x18 }
  - { offset: 0x40D63, size: 0x8, addend: 0x0, symName: __ZN4pyo35impl_12deprecations12inspect_type17ha8fb3c9e592e7cf4E, symObjAddr: 0x7C, symBinAddr: 0xC248, symSize: 0x14 }
  - { offset: 0x40DA2, size: 0x8, addend: 0x0, symName: __ZN4pyo35impl_12deprecations12inspect_type17hb6cfed727011ba11E, symObjAddr: 0x90, symBinAddr: 0xC25C, symSize: 0x18 }
  - { offset: 0x411A5, size: 0x8, addend: 0x0, symName: '__ZN87_$LT$pyo3..impl_..deprecations..GilRefs$LT$T$GT$$u20$as$u20$core..ops..deref..Deref$GT$5deref17h444245f739879cbaE', symObjAddr: 0x134, symBinAddr: 0xC300, symSize: 0x14 }
  - { offset: 0x411DA, size: 0x8, addend: 0x0, symName: '__ZN87_$LT$pyo3..impl_..deprecations..GilRefs$LT$T$GT$$u20$as$u20$core..ops..deref..Deref$GT$5deref17h506f89ad02341858E', symObjAddr: 0x148, symBinAddr: 0xC314, symSize: 0x14 }
  - { offset: 0x4120F, size: 0x8, addend: 0x0, symName: '__ZN87_$LT$pyo3..impl_..deprecations..GilRefs$LT$T$GT$$u20$as$u20$core..ops..deref..Deref$GT$5deref17h5899e785897fe742E', symObjAddr: 0x15C, symBinAddr: 0xC328, symSize: 0x14 }
  - { offset: 0x41244, size: 0x8, addend: 0x0, symName: '__ZN87_$LT$pyo3..impl_..deprecations..GilRefs$LT$T$GT$$u20$as$u20$core..ops..deref..Deref$GT$5deref17h7a436d56a960ae7dE', symObjAddr: 0x170, symBinAddr: 0xC33C, symSize: 0x14 }
  - { offset: 0x41279, size: 0x8, addend: 0x0, symName: '__ZN87_$LT$pyo3..impl_..deprecations..GilRefs$LT$T$GT$$u20$as$u20$core..ops..deref..Deref$GT$5deref17ha3108e4b5f651d8fE', symObjAddr: 0x184, symBinAddr: 0xC350, symSize: 0x14 }
  - { offset: 0x412AE, size: 0x8, addend: 0x0, symName: '__ZN87_$LT$pyo3..impl_..deprecations..GilRefs$LT$T$GT$$u20$as$u20$core..ops..deref..Deref$GT$5deref17hd93dc26db035eb47E', symObjAddr: 0x198, symBinAddr: 0xC364, symSize: 0x14 }
  - { offset: 0x412E3, size: 0x8, addend: 0x0, symName: '__ZN87_$LT$pyo3..impl_..deprecations..GilRefs$LT$T$GT$$u20$as$u20$core..ops..deref..Deref$GT$5deref17he3577fe8bd399784E', symObjAddr: 0x1AC, symBinAddr: 0xC378, symSize: 0x14 }
  - { offset: 0x4131E, size: 0x8, addend: 0x0, symName: '__ZN93_$LT$pyo3..impl_..deprecations..OptionGilRefs$LT$T$GT$$u20$as$u20$core..ops..deref..Deref$GT$5deref17h2c3654d78bba7f6eE', symObjAddr: 0x1C0, symBinAddr: 0xC38C, symSize: 0x14 }
  - { offset: 0x41353, size: 0x8, addend: 0x0, symName: '__ZN93_$LT$pyo3..impl_..deprecations..OptionGilRefs$LT$T$GT$$u20$as$u20$core..ops..deref..Deref$GT$5deref17h48ef7c19945feb56E', symObjAddr: 0x1D4, symBinAddr: 0xC3A0, symSize: 0x14 }
  - { offset: 0x41388, size: 0x8, addend: 0x0, symName: '__ZN93_$LT$pyo3..impl_..deprecations..OptionGilRefs$LT$T$GT$$u20$as$u20$core..ops..deref..Deref$GT$5deref17hbb1f96557079ff14E', symObjAddr: 0x1E8, symBinAddr: 0xC3B4, symSize: 0x14 }
  - { offset: 0x413BD, size: 0x8, addend: 0x0, symName: '__ZN93_$LT$pyo3..impl_..deprecations..OptionGilRefs$LT$T$GT$$u20$as$u20$core..ops..deref..Deref$GT$5deref17hc23395bb55fee366E', symObjAddr: 0x1FC, symBinAddr: 0xC3C8, symSize: 0x14 }
  - { offset: 0x413F2, size: 0x8, addend: 0x0, symName: '__ZN93_$LT$pyo3..impl_..deprecations..OptionGilRefs$LT$T$GT$$u20$as$u20$core..ops..deref..Deref$GT$5deref17hcb6f5560863b3e31E', symObjAddr: 0x210, symBinAddr: 0xC3DC, symSize: 0x14 }
  - { offset: 0x41427, size: 0x8, addend: 0x0, symName: '__ZN93_$LT$pyo3..impl_..deprecations..OptionGilRefs$LT$T$GT$$u20$as$u20$core..ops..deref..Deref$GT$5deref17hd8d82aa9e6e967b7E', symObjAddr: 0x224, symBinAddr: 0xC3F0, symSize: 0x14 }
  - { offset: 0x4145C, size: 0x8, addend: 0x0, symName: '__ZN93_$LT$pyo3..impl_..deprecations..OptionGilRefs$LT$T$GT$$u20$as$u20$core..ops..deref..Deref$GT$5deref17hee01746170ae3105E', symObjAddr: 0x238, symBinAddr: 0xC404, symSize: 0x14 }
  - { offset: 0x41B89, size: 0x8, addend: 0x0, symName: '__ZN4pyo35impl_12deprecations16GilRefs$LT$T$GT$3new17h33d1ed2b5e46428aE', symObjAddr: 0xA8, symBinAddr: 0xC274, symSize: 0x4 }
  - { offset: 0x41BB3, size: 0x8, addend: 0x0, symName: '__ZN4pyo35impl_12deprecations16GilRefs$LT$T$GT$3new17h379dfa831eab3b65E', symObjAddr: 0xAC, symBinAddr: 0xC278, symSize: 0x4 }
  - { offset: 0x41BDD, size: 0x8, addend: 0x0, symName: '__ZN4pyo35impl_12deprecations16GilRefs$LT$T$GT$3new17h9d42153da1f0360dE', symObjAddr: 0xB0, symBinAddr: 0xC27C, symSize: 0x4 }
  - { offset: 0x41C07, size: 0x8, addend: 0x0, symName: '__ZN4pyo35impl_12deprecations16GilRefs$LT$T$GT$3new17hcbd64d9455322932E', symObjAddr: 0xB4, symBinAddr: 0xC280, symSize: 0x4 }
  - { offset: 0x420B2, size: 0x8, addend: 0x0, symName: '__ZN4pyo35impl_12deprecations16GilRefs$LT$T$GT$3new17hd0bdeaf47cc21032E', symObjAddr: 0xB8, symBinAddr: 0xC284, symSize: 0x4 }
  - { offset: 0x420F6, size: 0x8, addend: 0x0, symName: '__ZN4pyo35impl_12deprecations16GilRefs$LT$T$GT$3new17hdc9b81bc991e0edeE', symObjAddr: 0xBC, symBinAddr: 0xC288, symSize: 0x4 }
  - { offset: 0x42113, size: 0x8, addend: 0x0, symName: '__ZN4pyo35impl_12deprecations16GilRefs$LT$T$GT$3new17he62d2f89dbef67a5E', symObjAddr: 0xC0, symBinAddr: 0xC28C, symSize: 0x4 }
  - { offset: 0x4213D, size: 0x8, addend: 0x0, symName: '__ZN4pyo35impl_12deprecations19NotAGilRef$LT$T$GT$12function_arg17h19c78baf74d45079E', symObjAddr: 0xC4, symBinAddr: 0xC290, symSize: 0x10 }
  - { offset: 0x42175, size: 0x8, addend: 0x0, symName: '__ZN4pyo35impl_12deprecations19NotAGilRef$LT$T$GT$12function_arg17h2c02edbd5ed446feE', symObjAddr: 0xD4, symBinAddr: 0xC2A0, symSize: 0x10 }
  - { offset: 0x421AD, size: 0x8, addend: 0x0, symName: '__ZN4pyo35impl_12deprecations19NotAGilRef$LT$T$GT$12function_arg17h5dfb0bac9eccd20fE', symObjAddr: 0xE4, symBinAddr: 0xC2B0, symSize: 0x10 }
  - { offset: 0x421E5, size: 0x8, addend: 0x0, symName: '__ZN4pyo35impl_12deprecations19NotAGilRef$LT$T$GT$12function_arg17h749ef4e5e1e332b2E', symObjAddr: 0xF4, symBinAddr: 0xC2C0, symSize: 0x10 }
  - { offset: 0x4221D, size: 0x8, addend: 0x0, symName: '__ZN4pyo35impl_12deprecations19NotAGilRef$LT$T$GT$12function_arg17hdf6812c2a9551358E', symObjAddr: 0x104, symBinAddr: 0xC2D0, symSize: 0x10 }
  - { offset: 0x42255, size: 0x8, addend: 0x0, symName: '__ZN4pyo35impl_12deprecations19NotAGilRef$LT$T$GT$12function_arg17hdfd334a36a0081e8E', symObjAddr: 0x114, symBinAddr: 0xC2E0, symSize: 0x10 }
  - { offset: 0x4228D, size: 0x8, addend: 0x0, symName: '__ZN4pyo35impl_12deprecations19NotAGilRef$LT$T$GT$12function_arg17hfd31556fcb993a0fE', symObjAddr: 0x124, symBinAddr: 0xC2F0, symSize: 0x10 }
  - { offset: 0x4238C, size: 0x8, addend: 0x0, symName: '__ZN73_$LT$pyo3..types..any..PyAny$u20$as$u20$pyo3..type_object..PyTypeInfo$GT$15type_object_raw17h745323df24fdaad2E', symObjAddr: 0x0, symBinAddr: 0xC418, symSize: 0x24 }
  - { offset: 0x43469, size: 0x8, addend: 0x0, symName: '__ZN73_$LT$pyo3..types..any..PyAny$u20$as$u20$pyo3..type_object..PyTypeInfo$GT$15type_object_raw17h745323df24fdaad2E', symObjAddr: 0x0, symBinAddr: 0xC418, symSize: 0x24 }
  - { offset: 0x439DE, size: 0x8, addend: 0x0, symName: '__ZN100_$LT$pyo3..pycell..impl_..MutableClass$u20$as$u20$pyo3..pycell..impl_..GetBorrowChecker$LT$T$GT$$GT$14borrow_checker17h47baa66568a04356E', symObjAddr: 0x0, symBinAddr: 0xC43C, symSize: 0x14 }
  - { offset: 0x451BD, size: 0x8, addend: 0x0, symName: '__ZN100_$LT$pyo3..pycell..impl_..MutableClass$u20$as$u20$pyo3..pycell..impl_..GetBorrowChecker$LT$T$GT$$GT$14borrow_checker17h47baa66568a04356E', symObjAddr: 0x0, symBinAddr: 0xC43C, symSize: 0x14 }
  - { offset: 0x451F2, size: 0x8, addend: 0x0, symName: '__ZN100_$LT$pyo3..pycell..impl_..MutableClass$u20$as$u20$pyo3..pycell..impl_..GetBorrowChecker$LT$T$GT$$GT$14borrow_checker17h6aaba63ec40784bdE', symObjAddr: 0x14, symBinAddr: 0xC450, symSize: 0x14 }
  - { offset: 0x45227, size: 0x8, addend: 0x0, symName: '__ZN100_$LT$pyo3..pycell..impl_..MutableClass$u20$as$u20$pyo3..pycell..impl_..GetBorrowChecker$LT$T$GT$$GT$14borrow_checker17h788a286df2308c80E', symObjAddr: 0x28, symBinAddr: 0xC464, symSize: 0x14 }
  - { offset: 0x45262, size: 0x8, addend: 0x0, symName: '__ZN102_$LT$pyo3..pycell..impl_..ImmutableClass$u20$as$u20$pyo3..pycell..impl_..GetBorrowChecker$LT$T$GT$$GT$14borrow_checker17h14caaaf06ddcd437E', symObjAddr: 0x3C, symBinAddr: 0xC478, symSize: 0x14 }
  - { offset: 0x4529D, size: 0x8, addend: 0x0, symName: '__ZN113_$LT$pyo3..pycell..impl_..PyClassObject$LT$T$GT$$u20$as$u20$pyo3..pycell..impl_..PyClassObjectLayout$LT$T$GT$$GT$10tp_dealloc17h2fc40eaa6514e1c4E', symObjAddr: 0x50, symBinAddr: 0xC48C, symSize: 0xB4 }
  - { offset: 0x45301, size: 0x8, addend: 0x0, symName: '__ZN113_$LT$pyo3..pycell..impl_..PyClassObject$LT$T$GT$$u20$as$u20$pyo3..pycell..impl_..PyClassObjectLayout$LT$T$GT$$GT$10tp_dealloc17h569355cdb58269cbE', symObjAddr: 0x104, symBinAddr: 0xC540, symSize: 0xB4 }
  - { offset: 0x45365, size: 0x8, addend: 0x0, symName: '__ZN113_$LT$pyo3..pycell..impl_..PyClassObject$LT$T$GT$$u20$as$u20$pyo3..pycell..impl_..PyClassObjectLayout$LT$T$GT$$GT$10tp_dealloc17h7b29440ade6bb415E', symObjAddr: 0x1B8, symBinAddr: 0xC5F4, symSize: 0xB4 }
  - { offset: 0x453C9, size: 0x8, addend: 0x0, symName: '__ZN113_$LT$pyo3..pycell..impl_..PyClassObject$LT$T$GT$$u20$as$u20$pyo3..pycell..impl_..PyClassObjectLayout$LT$T$GT$$GT$10tp_dealloc17heb21bfd8a6642178E', symObjAddr: 0x26C, symBinAddr: 0xC6A8, symSize: 0xB4 }
  - { offset: 0x4542D, size: 0x8, addend: 0x0, symName: '__ZN113_$LT$pyo3..pycell..impl_..PyClassObject$LT$T$GT$$u20$as$u20$pyo3..pycell..impl_..PyClassObjectLayout$LT$T$GT$$GT$17ensure_threadsafe17h02ffb56085277232E', symObjAddr: 0x320, symBinAddr: 0xC75C, symSize: 0x30 }
  - { offset: 0x45460, size: 0x8, addend: 0x0, symName: '__ZN113_$LT$pyo3..pycell..impl_..PyClassObject$LT$T$GT$$u20$as$u20$pyo3..pycell..impl_..PyClassObjectLayout$LT$T$GT$$GT$17ensure_threadsafe17h2320b8f1254a5fc6E', symObjAddr: 0x350, symBinAddr: 0xC78C, symSize: 0x30 }
  - { offset: 0x45493, size: 0x8, addend: 0x0, symName: '__ZN113_$LT$pyo3..pycell..impl_..PyClassObject$LT$T$GT$$u20$as$u20$pyo3..pycell..impl_..PyClassObjectLayout$LT$T$GT$$GT$17ensure_threadsafe17hed86f6a27938bce2E', symObjAddr: 0x380, symBinAddr: 0xC7BC, symSize: 0x30 }
  - { offset: 0x454C6, size: 0x8, addend: 0x0, symName: '__ZN113_$LT$pyo3..pycell..impl_..PyClassObject$LT$T$GT$$u20$as$u20$pyo3..pycell..impl_..PyClassObjectLayout$LT$T$GT$$GT$17ensure_threadsafe17hffec4a3573ff8158E', symObjAddr: 0x3B0, symBinAddr: 0xC7EC, symSize: 0x30 }
  - { offset: 0x454FF, size: 0x8, addend: 0x0, symName: '__ZN117_$LT$pyo3..pycell..impl_..PyClassObjectBase$LT$U$GT$$u20$as$u20$pyo3..pycell..impl_..PyClassObjectLayout$LT$T$GT$$GT$10tp_dealloc17hb7e58550460ed046E', symObjAddr: 0x3E0, symBinAddr: 0xC81C, symSize: 0x270 }
  - { offset: 0x45602, size: 0x8, addend: 0x0, symName: '__ZN117_$LT$pyo3..pycell..impl_..PyClassObjectBase$LT$U$GT$$u20$as$u20$pyo3..pycell..impl_..PyClassObjectLayout$LT$T$GT$$GT$17ensure_threadsafe17hbf1a812c6fda8c51E', symObjAddr: 0x650, symBinAddr: 0xCA8C, symSize: 0x10 }
  - { offset: 0x4626E, size: 0x8, addend: 0x0, symName: '__ZN4pyo36pycell5impl_22PyClassObject$LT$T$GT$14borrow_checker17h235c5efc6cc96197E', symObjAddr: 0x660, symBinAddr: 0xCA9C, symSize: 0x24 }
  - { offset: 0x462BB, size: 0x8, addend: 0x0, symName: '__ZN4pyo36pycell5impl_22PyClassObject$LT$T$GT$14borrow_checker17h2960cb007779b9fbE', symObjAddr: 0x684, symBinAddr: 0xCAC0, symSize: 0x24 }
  - { offset: 0x462F4, size: 0x8, addend: 0x0, symName: '__ZN4pyo36pycell5impl_22PyClassObject$LT$T$GT$14borrow_checker17hb167d173cf6fde26E', symObjAddr: 0x6A8, symBinAddr: 0xCAE4, symSize: 0x24 }
  - { offset: 0x465FD, size: 0x8, addend: 0x0, symName: '__ZN4pyo36pycell5impl_22PyClassObject$LT$T$GT$14borrow_checker17hb644b034d154137eE', symObjAddr: 0x6CC, symBinAddr: 0xCB08, symSize: 0x24 }
  - { offset: 0x46636, size: 0x8, addend: 0x0, symName: '__ZN4pyo36pycell5impl_22PyClassObject$LT$T$GT$7get_ptr17h1705b70deef332d7E', symObjAddr: 0x6F0, symBinAddr: 0xCB2C, symSize: 0x24 }
  - { offset: 0x4666F, size: 0x8, addend: 0x0, symName: '__ZN4pyo36pycell5impl_22PyClassObject$LT$T$GT$7get_ptr17h5659280abfd768cdE', symObjAddr: 0x714, symBinAddr: 0xCB50, symSize: 0x24 }
  - { offset: 0x466A8, size: 0x8, addend: 0x0, symName: '__ZN4pyo36pycell5impl_22PyClassObject$LT$T$GT$7get_ptr17h69d25c26c5a968c2E', symObjAddr: 0x738, symBinAddr: 0xCB74, symSize: 0x24 }
  - { offset: 0x466E1, size: 0x8, addend: 0x0, symName: '__ZN4pyo36pycell5impl_22PyClassObject$LT$T$GT$7get_ptr17h835fd58918e17c28E', symObjAddr: 0x75C, symBinAddr: 0xCB98, symSize: 0x24 }
  - { offset: 0x467B1, size: 0x8, addend: 0x0, symName: __ZN4pyo36marker6Python19assume_gil_acquired17h446777d87bb619d4E, symObjAddr: 0x0, symBinAddr: 0xCBBC, symSize: 0x4 }
  - { offset: 0x468F3, size: 0x8, addend: 0x0, symName: __ZN4pyo36marker6Python19assume_gil_acquired17h446777d87bb619d4E, symObjAddr: 0x0, symBinAddr: 0xCBBC, symSize: 0x4 }
  - { offset: 0x46924, size: 0x8, addend: 0x0, symName: __ZN4pyo311type_object10PyTypeInfo17type_object_bound17hc52e334c05f8ad33E, symObjAddr: 0x0, symBinAddr: 0xCBC0, symSize: 0x30 }
  - { offset: 0x47AAA, size: 0x8, addend: 0x0, symName: __ZN4pyo311type_object10PyTypeInfo17type_object_bound17hc52e334c05f8ad33E, symObjAddr: 0x0, symBinAddr: 0xCBC0, symSize: 0x30 }
  - { offset: 0x47B00, size: 0x8, addend: 0x0, symName: '__ZN73_$LT$pyo3..types..any..PyAny$u20$as$u20$pyo3..type_object..PyTypeInfo$GT$15type_object_raw28_$u7b$$u7b$closure$u7d$$u7d$17haf4e873c3aa91af4E', symObjAddr: 0x30, symBinAddr: 0xCBF0, symSize: 0x18 }
  - { offset: 0x4812C, size: 0x8, addend: 0x0, symName: __ZN4core4iter6traits8iterator8Iterator6copied17hd714ea148383ad72E, symObjAddr: 0x0, symBinAddr: 0xCC08, symSize: 0x1C }
  - { offset: 0x48913, size: 0x8, addend: 0x0, symName: __ZN4core4iter6traits8iterator8Iterator6copied17hd714ea148383ad72E, symObjAddr: 0x0, symBinAddr: 0xCC08, symSize: 0x1C }
  - { offset: 0x497FD, size: 0x8, addend: 0x0, symName: '__ZN91_$LT$core..slice..iter..Iter$LT$T$GT$$u20$as$u20$core..iter..traits..iterator..Iterator$GT$4next17h0c9e5e269cb11a85E', symObjAddr: 0x6C, symBinAddr: 0xCC74, symSize: 0x84 }
  - { offset: 0x49902, size: 0x8, addend: 0x0, symName: '__ZN91_$LT$core..slice..iter..Iter$LT$T$GT$$u20$as$u20$core..iter..traits..iterator..Iterator$GT$8position17h6f2742fbf5f71198E', symObjAddr: 0xF0, symBinAddr: 0xCCF8, symSize: 0x1D0 }
  - { offset: 0x49B5F, size: 0x8, addend: 0x0, symName: '__ZN91_$LT$core..slice..iter..Iter$LT$T$GT$$u20$as$u20$core..iter..traits..iterator..Iterator$GT$8position17h7238896e284ff469E', symObjAddr: 0x2C0, symBinAddr: 0xCEC8, symSize: 0x1D0 }
  - { offset: 0x4A5D2, size: 0x8, addend: 0x0, symName: '__ZN4core5slice4iter13Iter$LT$T$GT$3new17h985e0e287168158cE', symObjAddr: 0x1C, symBinAddr: 0xCC24, symSize: 0x50 }
  - { offset: 0x4A897, size: 0x8, addend: 0x0, symName: __ZN4pyo35types10typeobject6PyType22from_borrowed_type_ptr17h7860e5ed65e01a3bE, symObjAddr: 0x0, symBinAddr: 0xD098, symSize: 0x34 }
  - { offset: 0x4BFEA, size: 0x8, addend: 0x0, symName: __ZN4pyo35types10typeobject6PyType22from_borrowed_type_ptr17h7860e5ed65e01a3bE, symObjAddr: 0x0, symBinAddr: 0xD098, symSize: 0x34 }
  - { offset: 0x4C043, size: 0x8, addend: 0x0, symName: __ZN4core4iter6traits8iterator8Iterator3zip17h3f034301008fa788E, symObjAddr: 0x0, symBinAddr: 0xD0CC, symSize: 0xB4 }
  - { offset: 0x4C8D1, size: 0x8, addend: 0x0, symName: __ZN4core4iter6traits8iterator8Iterator3zip17h3f034301008fa788E, symObjAddr: 0x0, symBinAddr: 0xD0CC, symSize: 0xB4 }
  - { offset: 0x4DA25, size: 0x8, addend: 0x0, symName: '__ZN87_$LT$$BP$mut$u20$pyo3_ffi..object..PyObject$u20$as$u20$pyo3..ffi_ptr_ext..FfiPtrExt$GT$12assume_owned17h9a283699a0dffa65E', symObjAddr: 0x0, symBinAddr: 0xD180, symSize: 0x24 }
  - { offset: 0x4DA78, size: 0x8, addend: 0x0, symName: __ZN8pyo3_ffi6object18PyObject_TypeCheck17ha9c71f85118a4566E, symObjAddr: 0x90, symBinAddr: 0xD210, symSize: 0x74 }
  - { offset: 0x4DAB5, size: 0x8, addend: 0x0, symName: __ZN8pyo3_ffi6object7Py_None17h2ceef67df9dad3d3E, symObjAddr: 0x104, symBinAddr: 0xD284, symSize: 0xC }
  - { offset: 0x4DAD3, size: 0x8, addend: 0x0, symName: __ZN8pyo3_ffi6object7Py_TYPE17hd37ed3288542fbc0E, symObjAddr: 0x110, symBinAddr: 0xD290, symSize: 0x74 }
  - { offset: 0x4ECA5, size: 0x8, addend: 0x0, symName: '__ZN87_$LT$$BP$mut$u20$pyo3_ffi..object..PyObject$u20$as$u20$pyo3..ffi_ptr_ext..FfiPtrExt$GT$12assume_owned17h9a283699a0dffa65E', symObjAddr: 0x0, symBinAddr: 0xD180, symSize: 0x24 }
  - { offset: 0x4ECEA, size: 0x8, addend: 0x0, symName: '__ZN87_$LT$$BP$mut$u20$pyo3_ffi..object..PyObject$u20$as$u20$pyo3..ffi_ptr_ext..FfiPtrExt$GT$15assume_borrowed17h109d3d0dbaad7b3eE', symObjAddr: 0x24, symBinAddr: 0xD1A4, symSize: 0x24 }
  - { offset: 0x4ED2F, size: 0x8, addend: 0x0, symName: '__ZN87_$LT$$BP$mut$u20$pyo3_ffi..object..PyObject$u20$as$u20$pyo3..ffi_ptr_ext..FfiPtrExt$GT$22assume_borrowed_or_opt17ha5fbb46044d377beE', symObjAddr: 0x48, symBinAddr: 0xD1C8, symSize: 0x24 }
  - { offset: 0x4ED74, size: 0x8, addend: 0x0, symName: '__ZN87_$LT$$BP$mut$u20$pyo3_ffi..object..PyObject$u20$as$u20$pyo3..ffi_ptr_ext..FfiPtrExt$GT$25assume_borrowed_unchecked17hf1e251ebda83a69aE', symObjAddr: 0x6C, symBinAddr: 0xD1EC, symSize: 0x24 }
  - { offset: 0x4F3BE, size: 0x8, addend: 0x0, symName: __ZN4core3ptr5write17h06731ae3f092a4b2E, symObjAddr: 0x0, symBinAddr: 0xD304, symSize: 0x2C }
  - { offset: 0x4F666, size: 0x8, addend: 0x0, symName: __ZN4core3ptr5write17h06731ae3f092a4b2E, symObjAddr: 0x0, symBinAddr: 0xD304, symSize: 0x2C }
  - { offset: 0x4F6A9, size: 0x8, addend: 0x0, symName: __ZN4core3ptr5write17h071befd57418d437E, symObjAddr: 0x2C, symBinAddr: 0xD330, symSize: 0x2C }
  - { offset: 0x4F6EC, size: 0x8, addend: 0x0, symName: __ZN4core3ptr5write17h71cd83c7d38c6669E, symObjAddr: 0x58, symBinAddr: 0xD35C, symSize: 0x2C }
  - { offset: 0x4F72F, size: 0x8, addend: 0x0, symName: __ZN4core3ptr5write17hf9ad348ef3c7213cE, symObjAddr: 0x84, symBinAddr: 0xD388, symSize: 0x2C }
  - { offset: 0x50364, size: 0x8, addend: 0x0, symName: '__ZN87_$LT$T$u20$as$u20$alloc..slice..$LT$impl$u20$$u5b$T$u5d$$GT$..to_vec_in..ConvertVec$GT$6to_vec17he8eb199ce9ad1208E', symObjAddr: 0x0, symBinAddr: 0xD3B4, symSize: 0x100 }
  - { offset: 0x505D6, size: 0x8, addend: 0x0, symName: '__ZN87_$LT$T$u20$as$u20$alloc..slice..$LT$impl$u20$$u5b$T$u5d$$GT$..to_vec_in..ConvertVec$GT$6to_vec17he8eb199ce9ad1208E', symObjAddr: 0x0, symBinAddr: 0xD3B4, symSize: 0x100 }
  - { offset: 0x50C2A, size: 0x8, addend: 0x0, symName: __ZN4pyo33err5PyErr22write_unraisable_bound17h57e614fa547a32a0E, symObjAddr: 0x0, symBinAddr: 0xD4B4, symSize: 0x4C }
  - { offset: 0x525B8, size: 0x8, addend: 0x0, symName: __ZN4pyo33err5PyErr22write_unraisable_bound17h57e614fa547a32a0E, symObjAddr: 0x0, symBinAddr: 0xD4B4, symSize: 0x4C }
  - { offset: 0x52622, size: 0x8, addend: 0x0, symName: __ZN4pyo33err5PyErr7restore17hfe9a16338e7b77caE, symObjAddr: 0x4C, symBinAddr: 0xD500, symSize: 0x68 }
  - { offset: 0x5269D, size: 0x8, addend: 0x0, symName: '__ZN4core5slice29_$LT$impl$u20$$u5b$T$u5d$$GT$18split_at_unchecked18precondition_check17h938a80a33aa405d6E', symObjAddr: 0x0, symBinAddr: 0xD568, symSize: 0x60 }
  - { offset: 0x526BE, size: 0x8, addend: 0x0, symName: '__ZN4core5slice29_$LT$impl$u20$$u5b$T$u5d$$GT$18split_at_unchecked18precondition_check17h938a80a33aa405d6E', symObjAddr: 0x0, symBinAddr: 0xD568, symSize: 0x60 }
  - { offset: 0x52768, size: 0x8, addend: 0x0, symName: __ZN3std4sync6poison10map_result17h0a1684c5abf31cb3E, symObjAddr: 0x0, symBinAddr: 0xD5C8, symSize: 0xC4 }
  - { offset: 0x52784, size: 0x8, addend: 0x0, symName: __ZN3std4sync6poison10map_result17h0a1684c5abf31cb3E, symObjAddr: 0x0, symBinAddr: 0xD5C8, symSize: 0xC4 }
  - { offset: 0x5281D, size: 0x8, addend: 0x0, symName: '__ZN76_$LT$std..sync..poison..PoisonError$LT$T$GT$$u20$as$u20$core..fmt..Debug$GT$3fmt17h33a6e5dab0c2d42eE', symObjAddr: 0xC4, symBinAddr: 0xD68C, symSize: 0x50 }
  - { offset: 0x53293, size: 0x8, addend: 0x0, symName: __ZN4core9core_arch10arm_shared4neon9generated18vreinterpret_s8_u817h5507a5137977ca16E, symObjAddr: 0x0, symBinAddr: 0xD6DC, symSize: 0xC }
  - { offset: 0x532B9, size: 0x8, addend: 0x0, symName: __ZN4core9core_arch10arm_shared4neon9generated18vreinterpret_s8_u817h5507a5137977ca16E, symObjAddr: 0x0, symBinAddr: 0xD6DC, symSize: 0xC }
  - { offset: 0x532E7, size: 0x8, addend: 0x0, symName: __ZN4core9core_arch10arm_shared4neon9generated19vreinterpret_u64_u817hf1b82bf81d918f58E, symObjAddr: 0xC, symBinAddr: 0xD6E8, symSize: 0xC }
  - { offset: 0x53315, size: 0x8, addend: 0x0, symName: __ZN4core9core_arch10arm_shared4neon9generated7vceq_u817h2987d5fe362b63ccE, symObjAddr: 0x18, symBinAddr: 0xD6F4, symSize: 0x14 }
  - { offset: 0x53352, size: 0x8, addend: 0x0, symName: __ZN4core9core_arch10arm_shared4neon9generated7vorr_u817h6c62bf4f9655b62bE, symObjAddr: 0x2C, symBinAddr: 0xD708, symSize: 0x14 }
  - { offset: 0x5338F, size: 0x8, addend: 0x0, symName: __ZN4core9core_arch10arm_shared4neon9generated9vdup_n_u817he0a17f0140be4c6bE, symObjAddr: 0x40, symBinAddr: 0xD71C, symSize: 0x2C }
  - { offset: 0x534FD, size: 0x8, addend: 0x0, symName: '__ZN102_$LT$pyo3..internal..get_slot..Slot$LT$74_i32$GT$$u20$as$u20$pyo3..internal..get_slot..GetSlotImpl$GT$8get_slot17h7165d11f39567ed9E', symObjAddr: 0x0, symBinAddr: 0xD748, symSize: 0x74 }
  - { offset: 0x5458B, size: 0x8, addend: 0x0, symName: '__ZN102_$LT$pyo3..internal..get_slot..Slot$LT$74_i32$GT$$u20$as$u20$pyo3..internal..get_slot..GetSlotImpl$GT$8get_slot17h7165d11f39567ed9E', symObjAddr: 0x0, symBinAddr: 0xD748, symSize: 0x74 }
  - { offset: 0x54A52, size: 0x8, addend: 0x0, symName: '__ZN7_planck156_$LT$impl$u20$pyo3..impl_..pyclass..PyMethods$LT$_planck..PlanCache$GT$$u20$for$u20$pyo3..impl_..pyclass..PyClassImplCollector$LT$_planck..PlanCache$GT$$GT$10py_methods17ha27a8d5c34b13076E', symObjAddr: 0x0, symBinAddr: 0xD7BC, symSize: 0x14 }
  - { offset: 0x5624F, size: 0x8, addend: 0x0, symName: '__ZN7_planck156_$LT$impl$u20$pyo3..impl_..pyclass..PyMethods$LT$_planck..PlanCache$GT$$u20$for$u20$pyo3..impl_..pyclass..PyClassImplCollector$LT$_planck..PlanCache$GT$$GT$10py_methods17ha27a8d5c34b13076E', symObjAddr: 0x0, symBinAddr: 0xD7BC, symSize: 0x14 }
  - { offset: 0x5628C, size: 0x8, addend: 0x0, symName: '__ZN7_planck158_$LT$impl$u20$pyo3..impl_..pyclass..PyMethods$LT$_planck..PyPlanView$GT$$u20$for$u20$pyo3..impl_..pyclass..PyClassImplCollector$LT$_planck..PyPlanView$GT$$GT$10py_methods17haa07a8d20ff0d3d9E', symObjAddr: 0x14, symBinAddr: 0xD7D0, symSize: 0x14 }
  - { offset: 0x562C9, size: 0x8, addend: 0x0, symName: '__ZN7_planck162_$LT$impl$u20$pyo3..impl_..pyclass..PyMethods$LT$_planck..PlanCompiler$GT$$u20$for$u20$pyo3..impl_..pyclass..PyClassImplCollector$LT$_planck..PlanCompiler$GT$$GT$10py_methods17h213746c102366ef0E', symObjAddr: 0x28, symBinAddr: 0xD7E4, symSize: 0x14 }
  - { offset: 0x56306, size: 0x8, addend: 0x0, symName: '__ZN7_planck166_$LT$impl$u20$pyo3..impl_..pyclass..PyMethods$LT$_planck..PyPlanTemplate$GT$$u20$for$u20$pyo3..impl_..pyclass..PyClassImplCollector$LT$_planck..PyPlanTemplate$GT$$GT$10py_methods17h2adf3cf1740de8a1E', symObjAddr: 0x3C, symBinAddr: 0xD7F8, symSize: 0x14 }
  - { offset: 0x573D4, size: 0x8, addend: 0x0, symName: __ZN4pyo35impl_10trampoline11module_init17hb8e8f0b70018d18fE, symObjAddr: 0x0, symBinAddr: 0xD80C, symSize: 0x28 }
  - { offset: 0x586A4, size: 0x8, addend: 0x0, symName: __ZN4pyo35impl_10trampoline11module_init17hb8e8f0b70018d18fE, symObjAddr: 0x0, symBinAddr: 0xD80C, symSize: 0x28 }
  - { offset: 0x586D0, size: 0x8, addend: 0x0, symName: __ZN4pyo35impl_10trampoline22fastcall_with_keywords17h0b009ac91f9972edE, symObjAddr: 0x28, symBinAddr: 0xD834, symSize: 0x5C }
  - { offset: 0x58734, size: 0x8, addend: 0x0, symName: __ZN4pyo35impl_10trampoline6noargs17h1e9c3b1810712c87E, symObjAddr: 0x84, symBinAddr: 0xD890, symSize: 0x64 }
  - { offset: 0x5877C, size: 0x8, addend: 0x0, symName: __ZN4pyo35impl_10trampoline7dealloc17hb63c14c1d7c4e852E, symObjAddr: 0xE8, symBinAddr: 0xD8F4, symSize: 0x34 }
  - { offset: 0x587B2, size: 0x8, addend: 0x0, symName: __ZN4pyo35impl_10trampoline8reprfunc17h0b3e6e05df446c4aE, symObjAddr: 0x11C, symBinAddr: 0xD928, symSize: 0x30 }
  - { offset: 0x58F31, size: 0x8, addend: 0x0, symName: __ZN4core5slice3raw14from_raw_parts18precondition_check17haecac1a256f37358E, symObjAddr: 0x0, symBinAddr: 0xD958, symSize: 0x10C }
  - { offset: 0x59017, size: 0x8, addend: 0x0, symName: __ZN4core5slice3raw14from_raw_parts18precondition_check17haecac1a256f37358E, symObjAddr: 0x0, symBinAddr: 0xD958, symSize: 0x10C }
  - { offset: 0x591AC, size: 0x8, addend: 0x0, symName: __ZN4pyo35impl_16extract_argument16extract_argument17h396b729c02494ddeE, symObjAddr: 0x0, symBinAddr: 0xDA64, symSize: 0x11C }
  - { offset: 0x5B30E, size: 0x8, addend: 0x0, symName: __ZN4pyo35impl_16extract_argument16extract_argument17h396b729c02494ddeE, symObjAddr: 0x0, symBinAddr: 0xDA64, symSize: 0x11C }
  - { offset: 0x5B392, size: 0x8, addend: 0x0, symName: __ZN4pyo35impl_16extract_argument16extract_argument17hfaaba71baa4a752cE, symObjAddr: 0x11C, symBinAddr: 0xDB80, symSize: 0x128 }
  - { offset: 0x5B51F, size: 0x8, addend: 0x0, symName: '__ZN4pyo35impl_16extract_argument19FunctionDescription26extract_arguments_fastcall28_$u7b$$u7b$closure$u7d$$u7d$17h6da69cabffb2dfdcE', symObjAddr: 0xF4C, symBinAddr: 0xE9B0, symSize: 0x24 }
  - { offset: 0x5B577, size: 0x8, addend: 0x0, symName: '__ZN4pyo35impl_16extract_argument19FunctionDescription36find_keyword_parameter_in_positional28_$u7b$$u7b$closure$u7d$$u7d$17hcc00b7e0fb5d2b6eE', symObjAddr: 0xF70, symBinAddr: 0xE9D4, symSize: 0x48 }
  - { offset: 0x5B5D7, size: 0x8, addend: 0x0, symName: '__ZN4pyo35impl_16extract_argument19FunctionDescription38find_keyword_parameter_in_keyword_only28_$u7b$$u7b$closure$u7d$$u7d$17hf6d26a947bd52fd4E', symObjAddr: 0xFB8, symBinAddr: 0xEA1C, symSize: 0x38 }
  - { offset: 0x5B619, size: 0x8, addend: 0x0, symName: __ZN4pyo35impl_16extract_argument19extract_pyclass_ref17ha28c65f1c1ae58c1E, symObjAddr: 0xFF0, symBinAddr: 0xEA54, symSize: 0xB0 }
  - { offset: 0x5B67A, size: 0x8, addend: 0x0, symName: __ZN4pyo35impl_16extract_argument19extract_pyclass_ref17ha89154538be9a1c5E, symObjAddr: 0x10A0, symBinAddr: 0xEB04, symSize: 0xB0 }
  - { offset: 0x5B6DB, size: 0x8, addend: 0x0, symName: __ZN4pyo35impl_16extract_argument19extract_pyclass_ref17hc42a8b8125bd48d0E, symObjAddr: 0x1150, symBinAddr: 0xEBB4, symSize: 0xB0 }
  - { offset: 0x5B73C, size: 0x8, addend: 0x0, symName: __ZN4pyo35impl_16extract_argument19extract_pyclass_ref17he40dbc37df8c9475E, symObjAddr: 0x1200, symBinAddr: 0xEC64, symSize: 0xB0 }
  - { offset: 0x5B79D, size: 0x8, addend: 0x0, symName: __ZN4pyo35impl_16extract_argument29extract_argument_with_default17h471a1518e3da80f9E, symObjAddr: 0x12B0, symBinAddr: 0xED14, symSize: 0x8C }
  - { offset: 0x5B819, size: 0x8, addend: 0x0, symName: __ZN4pyo35impl_16extract_argument29extract_argument_with_default17h4a34ae48ed3067fbE, symObjAddr: 0x133C, symBinAddr: 0xEDA0, symSize: 0x90 }
  - { offset: 0x5B89A, size: 0x8, addend: 0x0, symName: '__ZN71_$LT$T$u20$as$u20$pyo3..impl_..extract_argument..PyFunctionArgument$GT$7extract17h23f48b2aaeab45ebE', symObjAddr: 0x13CC, symBinAddr: 0xEE30, symSize: 0x28 }
  - { offset: 0x5B8D9, size: 0x8, addend: 0x0, symName: '__ZN71_$LT$T$u20$as$u20$pyo3..impl_..extract_argument..PyFunctionArgument$GT$7extract17h63c176a3f91e5d77E', symObjAddr: 0x13F4, symBinAddr: 0xEE58, symSize: 0x28 }
  - { offset: 0x5C379, size: 0x8, addend: 0x0, symName: __ZN4pyo35impl_16extract_argument19FunctionDescription13handle_kwargs17h08631ed9fe9bef52E, symObjAddr: 0x244, symBinAddr: 0xDCA8, symSize: 0x6F8 }
  - { offset: 0x5C596, size: 0x8, addend: 0x0, symName: __ZN4pyo35impl_16extract_argument19FunctionDescription26extract_arguments_fastcall17h145629c510838cadE, symObjAddr: 0x93C, symBinAddr: 0xE3A0, symSize: 0x610 }
  - { offset: 0x5D003, size: 0x8, addend: 0x0, symName: '__ZN9hashbrown3map11make_hasher28_$u7b$$u7b$closure$u7d$$u7d$17h0a8d08c46415506cE', symObjAddr: 0x0, symBinAddr: 0xEE80, symSize: 0x3C }
  - { offset: 0x5D058, size: 0x8, addend: 0x0, symName: '__ZN9hashbrown3map11make_hasher28_$u7b$$u7b$closure$u7d$$u7d$17h0a8d08c46415506cE', symObjAddr: 0x0, symBinAddr: 0xEE80, symSize: 0x3C }
  - { offset: 0x5D0DA, size: 0x8, addend: 0x0, symName: '__ZN9hashbrown3map14equivalent_key28_$u7b$$u7b$closure$u7d$$u7d$17h0d6e6ffe7c1c99b7E', symObjAddr: 0x3C, symBinAddr: 0xEEBC, symSize: 0x30 }
  - { offset: 0x5DD6C, size: 0x8, addend: 0x0, symName: '__ZN9hashbrown3map28HashMap$LT$K$C$V$C$S$C$A$GT$3get17h19d4d0beb71ebb94E', symObjAddr: 0x6C, symBinAddr: 0xEEEC, symSize: 0x104 }
  - { offset: 0x5E06E, size: 0x8, addend: 0x0, symName: '__ZN9hashbrown3map28HashMap$LT$K$C$V$C$S$C$A$GT$6insert17h8fcd7a7c7456149eE', symObjAddr: 0x170, symBinAddr: 0xEFF0, symSize: 0x250 }
  - { offset: 0x5E283, size: 0x8, addend: 0x0, symName: __ZN4core5slice3raw14from_raw_parts17ha760332fbfe7ac39E, symObjAddr: 0x0, symBinAddr: 0xF240, symSize: 0x58 }
  - { offset: 0x5EA60, size: 0x8, addend: 0x0, symName: __ZN4core5slice3raw14from_raw_parts17ha760332fbfe7ac39E, symObjAddr: 0x0, symBinAddr: 0xF240, symSize: 0x58 }
  - { offset: 0x5EAA3, size: 0x8, addend: 0x0, symName: __ZN4core5slice3raw14from_raw_parts17hd6859cc2833f31bcE, symObjAddr: 0x58, symBinAddr: 0xF298, symSize: 0x58 }
  - { offset: 0x5FAF7, size: 0x8, addend: 0x0, symName: __ZN4core3fmt9Arguments17from_str_nonconst17h2b6a0bb4610dca3dE, symObjAddr: 0x0, symBinAddr: 0xF2F0, symSize: 0x28 }
  - { offset: 0x5FE43, size: 0x8, addend: 0x0, symName: __ZN4core3fmt9Arguments17from_str_nonconst17h2b6a0bb4610dca3dE, symObjAddr: 0x0, symBinAddr: 0xF2F0, symSize: 0x28 }
  - { offset: 0x5FE66, size: 0x8, addend: 0x0, symName: __ZN4core3fmt9Arguments8from_str17h74d4060e717e055cE, symObjAddr: 0x28, symBinAddr: 0xF318, symSize: 0x20 }
  - { offset: 0x5FEA7, size: 0x8, addend: 0x0, symName: __ZN4core3fmt2rt8Argument11new_display17h722f9bd3c8b85b0cE, symObjAddr: 0x0, symBinAddr: 0xF338, symSize: 0x2C }
  - { offset: 0x60172, size: 0x8, addend: 0x0, symName: __ZN4core3fmt2rt8Argument11new_display17h722f9bd3c8b85b0cE, symObjAddr: 0x0, symBinAddr: 0xF338, symSize: 0x2C }
  - { offset: 0x601AA, size: 0x8, addend: 0x0, symName: __ZN4core3fmt2rt8Argument11new_display17h815cb841b67c5544E, symObjAddr: 0x2C, symBinAddr: 0xF364, symSize: 0x2C }
  - { offset: 0x601F3, size: 0x8, addend: 0x0, symName: '__ZN106_$LT$pyo3..impl_..extract_argument..NoVarargs$u20$as$u20$pyo3..impl_..extract_argument..VarargsHandler$GT$23handle_varargs_fastcall17h5b6b9aa49bd4b8a7E', symObjAddr: 0x0, symBinAddr: 0xF390, symSize: 0xA8 }
  - { offset: 0x618EB, size: 0x8, addend: 0x0, symName: '__ZN106_$LT$pyo3..impl_..extract_argument..NoVarargs$u20$as$u20$pyo3..impl_..extract_argument..VarargsHandler$GT$23handle_varargs_fastcall17h5b6b9aa49bd4b8a7E', symObjAddr: 0x0, symBinAddr: 0xF390, symSize: 0xA8 }
  - { offset: 0x6195F, size: 0x8, addend: 0x0, symName: '__ZN114_$LT$pyo3..impl_..extract_argument..NoVarkeywords$u20$as$u20$pyo3..impl_..extract_argument..VarkeywordsHandler$GT$17handle_varkeyword17h966d50af1f373194E', symObjAddr: 0xA8, symBinAddr: 0xF438, symSize: 0x60 }
  - { offset: 0x61A9E, size: 0x8, addend: 0x0, symName: __ZN4pyo35impl_16extract_argument24unwrap_required_argument17h8a308e1caf9551e3E, symObjAddr: 0x4A4, symBinAddr: 0xF834, symSize: 0x58 }
  - { offset: 0x61D75, size: 0x8, addend: 0x0, symName: __ZN4pyo35impl_16extract_argument19FunctionDescription36find_keyword_parameter_in_positional17h49ee9d10882ef164E, symObjAddr: 0x108, symBinAddr: 0xF498, symSize: 0x5C }
  - { offset: 0x61DA7, size: 0x8, addend: 0x0, symName: __ZN4pyo35impl_16extract_argument19FunctionDescription38find_keyword_parameter_in_keyword_only17h0211d418af849726E, symObjAddr: 0x164, symBinAddr: 0xF4F4, symSize: 0x5C }
  - { offset: 0x622E4, size: 0x8, addend: 0x0, symName: __ZN4pyo35impl_16extract_argument19FunctionDescription44ensure_no_missing_required_keyword_arguments17he1ca3859c35c5ffdE, symObjAddr: 0x1C0, symBinAddr: 0xF550, symSize: 0x154 }
  - { offset: 0x623B0, size: 0x8, addend: 0x0, symName: __ZN4pyo35impl_16extract_argument19FunctionDescription47ensure_no_missing_required_positional_arguments17h84dcb0ebba0b4c42E, symObjAddr: 0x314, symBinAddr: 0xF6A4, symSize: 0x190 }
  - { offset: 0x62538, size: 0x8, addend: 0x0, symName: '__ZN5alloc7raw_vec19RawVec$LT$T$C$A$GT$8grow_one17h9fbb439e720a2c89E', symObjAddr: 0x0, symBinAddr: 0xF88C, symSize: 0x88 }
  - { offset: 0x62AA6, size: 0x8, addend: 0x0, symName: '__ZN5alloc7raw_vec19RawVec$LT$T$C$A$GT$8grow_one17h9fbb439e720a2c89E', symObjAddr: 0x0, symBinAddr: 0xF88C, symSize: 0x88 }
  - { offset: 0x62B2F, size: 0x8, addend: 0x0, symName: '__ZN4pyo35impl_7pyclass16lazy_type_object23LazyTypeObject$LT$T$GT$11get_or_init17h38c283673301b793E', symObjAddr: 0x0, symBinAddr: 0xF914, symSize: 0x40 }
  - { offset: 0x648C0, size: 0x8, addend: 0x0, symName: '__ZN4pyo35impl_7pyclass16lazy_type_object23LazyTypeObject$LT$T$GT$11get_or_init28_$u7b$$u7b$closure$u7d$$u7d$17h18d9a9c34a7c5f97E', symObjAddr: 0x100, symBinAddr: 0xFA14, symSize: 0xA8 }
  - { offset: 0x64949, size: 0x8, addend: 0x0, symName: '__ZN4pyo35impl_7pyclass16lazy_type_object23LazyTypeObject$LT$T$GT$11get_or_init28_$u7b$$u7b$closure$u7d$$u7d$17h66ccb1ccc6e616beE', symObjAddr: 0x1A8, symBinAddr: 0xFABC, symSize: 0xA8 }
  - { offset: 0x649D2, size: 0x8, addend: 0x0, symName: '__ZN4pyo35impl_7pyclass16lazy_type_object23LazyTypeObject$LT$T$GT$11get_or_init28_$u7b$$u7b$closure$u7d$$u7d$17h7557e6b18ed6feb5E', symObjAddr: 0x250, symBinAddr: 0xFB64, symSize: 0xA8 }
  - { offset: 0x64A5B, size: 0x8, addend: 0x0, symName: '__ZN4pyo35impl_7pyclass16lazy_type_object23LazyTypeObject$LT$T$GT$11get_or_init28_$u7b$$u7b$closure$u7d$$u7d$17h7ccfefd721d55016E', symObjAddr: 0x2F8, symBinAddr: 0xFC0C, symSize: 0xA8 }
  - { offset: 0x658DA, size: 0x8, addend: 0x0, symName: '__ZN4pyo35impl_7pyclass16lazy_type_object23LazyTypeObject$LT$T$GT$11get_or_init17h38c283673301b793E', symObjAddr: 0x0, symBinAddr: 0xF914, symSize: 0x40 }
  - { offset: 0x65932, size: 0x8, addend: 0x0, symName: '__ZN4pyo35impl_7pyclass16lazy_type_object23LazyTypeObject$LT$T$GT$11get_or_init17h552ab9a3e369349aE', symObjAddr: 0x40, symBinAddr: 0xF954, symSize: 0x40 }
  - { offset: 0x65AFA, size: 0x8, addend: 0x0, symName: '__ZN4pyo35impl_7pyclass16lazy_type_object23LazyTypeObject$LT$T$GT$11get_or_init17h6c878fb790566407E', symObjAddr: 0x80, symBinAddr: 0xF994, symSize: 0x40 }
  - { offset: 0x65B4B, size: 0x8, addend: 0x0, symName: '__ZN4pyo35impl_7pyclass16lazy_type_object23LazyTypeObject$LT$T$GT$11get_or_init17hfa72d7b943a3f37aE', symObjAddr: 0xC0, symBinAddr: 0xF9D4, symSize: 0x40 }
  - { offset: 0x65B8F, size: 0x8, addend: 0x0, symName: '__ZN4pyo35impl_7pyclass16lazy_type_object23LazyTypeObject$LT$T$GT$15get_or_try_init17h604c81991c6955bcE', symObjAddr: 0x3A0, symBinAddr: 0xFCB4, symSize: 0x58 }
  - { offset: 0x65BD3, size: 0x8, addend: 0x0, symName: '__ZN4pyo35impl_7pyclass16lazy_type_object23LazyTypeObject$LT$T$GT$15get_or_try_init17h67e9cba82892da22E', symObjAddr: 0x3F8, symBinAddr: 0xFD0C, symSize: 0x58 }
  - { offset: 0x65C17, size: 0x8, addend: 0x0, symName: '__ZN4pyo35impl_7pyclass16lazy_type_object23LazyTypeObject$LT$T$GT$15get_or_try_init17h72f3a708c2a72739E', symObjAddr: 0x450, symBinAddr: 0xFD64, symSize: 0x58 }
  - { offset: 0x65C5B, size: 0x8, addend: 0x0, symName: '__ZN4pyo35impl_7pyclass16lazy_type_object23LazyTypeObject$LT$T$GT$15get_or_try_init17hb935ba6cd3c45fb1E', symObjAddr: 0x4A8, symBinAddr: 0xFDBC, symSize: 0x58 }
  - { offset: 0x65DAA, size: 0x8, addend: 0x0, symName: '__ZN118_$LT$pyo3..impl_..pyclass..SendablePyClass$LT$T$GT$$u20$as$u20$pyo3..impl_..pyclass..PyClassThreadChecker$LT$T$GT$$GT$3new17h24962372b051f532E', symObjAddr: 0x0, symBinAddr: 0xFE14, symSize: 0x4 }
  - { offset: 0x673AA, size: 0x8, addend: 0x0, symName: '__ZN118_$LT$pyo3..impl_..pyclass..SendablePyClass$LT$T$GT$$u20$as$u20$pyo3..impl_..pyclass..PyClassThreadChecker$LT$T$GT$$GT$3new17h24962372b051f532E', symObjAddr: 0x0, symBinAddr: 0xFE14, symSize: 0x4 }
  - { offset: 0x673CE, size: 0x8, addend: 0x0, symName: '__ZN118_$LT$pyo3..impl_..pyclass..SendablePyClass$LT$T$GT$$u20$as$u20$pyo3..impl_..pyclass..PyClassThreadChecker$LT$T$GT$$GT$3new17h6f43828f85002536E', symObjAddr: 0x4, symBinAddr: 0xFE18, symSize: 0x4 }
  - { offset: 0x673F2, size: 0x8, addend: 0x0, symName: '__ZN118_$LT$pyo3..impl_..pyclass..SendablePyClass$LT$T$GT$$u20$as$u20$pyo3..impl_..pyclass..PyClassThreadChecker$LT$T$GT$$GT$3new17h7508d19c789cc6dfE', symObjAddr: 0x8, symBinAddr: 0xFE1C, symSize: 0x4 }
  - { offset: 0x67416, size: 0x8, addend: 0x0, symName: '__ZN118_$LT$pyo3..impl_..pyclass..SendablePyClass$LT$T$GT$$u20$as$u20$pyo3..impl_..pyclass..PyClassThreadChecker$LT$T$GT$$GT$3new17h8b29bc9dab0b3724E', symObjAddr: 0xC, symBinAddr: 0xFE20, symSize: 0x4 }
  - { offset: 0x6743A, size: 0x8, addend: 0x0, symName: '__ZN118_$LT$pyo3..impl_..pyclass..SendablePyClass$LT$T$GT$$u20$as$u20$pyo3..impl_..pyclass..PyClassThreadChecker$LT$T$GT$$GT$6ensure17h19756ce15a0e8c0cE', symObjAddr: 0x10, symBinAddr: 0xFE24, symSize: 0x10 }
  - { offset: 0x6746D, size: 0x8, addend: 0x0, symName: '__ZN118_$LT$pyo3..impl_..pyclass..SendablePyClass$LT$T$GT$$u20$as$u20$pyo3..impl_..pyclass..PyClassThreadChecker$LT$T$GT$$GT$6ensure17h40e183e5d00cb2daE', symObjAddr: 0x20, symBinAddr: 0xFE34, symSize: 0x10 }
  - { offset: 0x674A0, size: 0x8, addend: 0x0, symName: '__ZN118_$LT$pyo3..impl_..pyclass..SendablePyClass$LT$T$GT$$u20$as$u20$pyo3..impl_..pyclass..PyClassThreadChecker$LT$T$GT$$GT$6ensure17h44057caec9250e5bE', symObjAddr: 0x30, symBinAddr: 0xFE44, symSize: 0x10 }
  - { offset: 0x674D3, size: 0x8, addend: 0x0, symName: '__ZN118_$LT$pyo3..impl_..pyclass..SendablePyClass$LT$T$GT$$u20$as$u20$pyo3..impl_..pyclass..PyClassThreadChecker$LT$T$GT$$GT$6ensure17h9cd25971d4e33ee2E', symObjAddr: 0x40, symBinAddr: 0xFE54, symSize: 0x10 }
  - { offset: 0x67506, size: 0x8, addend: 0x0, symName: '__ZN118_$LT$pyo3..impl_..pyclass..SendablePyClass$LT$T$GT$$u20$as$u20$pyo3..impl_..pyclass..PyClassThreadChecker$LT$T$GT$$GT$8can_drop17h0eb523f2103dc52bE', symObjAddr: 0x50, symBinAddr: 0xFE64, symSize: 0x18 }
  - { offset: 0x67558, size: 0x8, addend: 0x0, symName: '__ZN118_$LT$pyo3..impl_..pyclass..SendablePyClass$LT$T$GT$$u20$as$u20$pyo3..impl_..pyclass..PyClassThreadChecker$LT$T$GT$$GT$8can_drop17hacc5c4ff6f9b3a7fE', symObjAddr: 0x68, symBinAddr: 0xFE7C, symSize: 0x18 }
  - { offset: 0x675AA, size: 0x8, addend: 0x0, symName: '__ZN118_$LT$pyo3..impl_..pyclass..SendablePyClass$LT$T$GT$$u20$as$u20$pyo3..impl_..pyclass..PyClassThreadChecker$LT$T$GT$$GT$8can_drop17hd7f892b2999f7f42E', symObjAddr: 0x80, symBinAddr: 0xFE94, symSize: 0x18 }
  - { offset: 0x675FC, size: 0x8, addend: 0x0, symName: '__ZN118_$LT$pyo3..impl_..pyclass..SendablePyClass$LT$T$GT$$u20$as$u20$pyo3..impl_..pyclass..PyClassThreadChecker$LT$T$GT$$GT$8can_drop17heaa2a9875a51c699E', symObjAddr: 0x98, symBinAddr: 0xFEAC, symSize: 0x18 }
  - { offset: 0x67654, size: 0x8, addend: 0x0, symName: '__ZN130_$LT$$RF$pyo3..impl_..pyclass..PyClassImplCollector$LT$T$GT$$u20$as$u20$pyo3..impl_..pyclass..PyClassNewTextSignature$LT$T$GT$$GT$18new_text_signature17h061194540d713381E', symObjAddr: 0xB0, symBinAddr: 0xFEC4, symSize: 0x14 }
  - { offset: 0x6768B, size: 0x8, addend: 0x0, symName: '__ZN130_$LT$$RF$pyo3..impl_..pyclass..PyClassImplCollector$LT$T$GT$$u20$as$u20$pyo3..impl_..pyclass..PyClassNewTextSignature$LT$T$GT$$GT$18new_text_signature17h5d3ba39d20228b75E', symObjAddr: 0xC4, symBinAddr: 0xFED8, symSize: 0x14 }
  - { offset: 0x676C2, size: 0x8, addend: 0x0, symName: '__ZN130_$LT$$RF$pyo3..impl_..pyclass..PyClassImplCollector$LT$T$GT$$u20$as$u20$pyo3..impl_..pyclass..PyClassNewTextSignature$LT$T$GT$$GT$18new_text_signature17h96113f1152d7a2c6E', symObjAddr: 0xD8, symBinAddr: 0xFEEC, symSize: 0x14 }
  - { offset: 0x676F9, size: 0x8, addend: 0x0, symName: '__ZN130_$LT$$RF$pyo3..impl_..pyclass..PyClassImplCollector$LT$T$GT$$u20$as$u20$pyo3..impl_..pyclass..PyClassNewTextSignature$LT$T$GT$$GT$18new_text_signature17hbdb05b9d25d958e6E', symObjAddr: 0xEC, symBinAddr: 0xFF00, symSize: 0x14 }
  - { offset: 0x67731, size: 0x8, addend: 0x0, symName: __ZN4pyo35impl_7pyclass10tp_dealloc17h24253c3f4430e58eE, symObjAddr: 0x100, symBinAddr: 0xFF14, symSize: 0x34 }
  - { offset: 0x67764, size: 0x8, addend: 0x0, symName: __ZN4pyo35impl_7pyclass10tp_dealloc17h469df63c156e0083E, symObjAddr: 0x134, symBinAddr: 0xFF48, symSize: 0x34 }
  - { offset: 0x67797, size: 0x8, addend: 0x0, symName: __ZN4pyo35impl_7pyclass10tp_dealloc17h6cf55e778b9f5756E, symObjAddr: 0x168, symBinAddr: 0xFF7C, symSize: 0x34 }
  - { offset: 0x677CA, size: 0x8, addend: 0x0, symName: __ZN4pyo35impl_7pyclass10tp_dealloc17ha2fbe93e6c656c46E, symObjAddr: 0x19C, symBinAddr: 0xFFB0, symSize: 0x34 }
  - { offset: 0x67802, size: 0x8, addend: 0x0, symName: __ZN4pyo35impl_7pyclass11PyClassDict10clear_dict17h2a4f5725928efad6E, symObjAddr: 0x1D0, symBinAddr: 0xFFE4, symSize: 0x10 }
  - { offset: 0x67852, size: 0x8, addend: 0x0, symName: __ZN4pyo35impl_7pyclass14PyClassWeakRef14clear_weakrefs17he9ba74d206849c76E, symObjAddr: 0x1E0, symBinAddr: 0xFFF4, symSize: 0x14 }
  - { offset: 0x678AB, size: 0x8, addend: 0x0, symName: __ZN4pyo35impl_7pyclass18tp_dealloc_with_gc17h164c166898e76db4E, symObjAddr: 0x1F4, symBinAddr: 0x10008, symSize: 0x4C }
  - { offset: 0x678FC, size: 0x8, addend: 0x0, symName: __ZN4pyo35impl_7pyclass18tp_dealloc_with_gc17h18a34e81fb1a5fa5E, symObjAddr: 0x240, symBinAddr: 0x10054, symSize: 0x4C }
  - { offset: 0x6794D, size: 0x8, addend: 0x0, symName: __ZN4pyo35impl_7pyclass18tp_dealloc_with_gc17h28bea79428318a29E, symObjAddr: 0x28C, symBinAddr: 0x100A0, symSize: 0x4C }
  - { offset: 0x6799E, size: 0x8, addend: 0x0, symName: __ZN4pyo35impl_7pyclass18tp_dealloc_with_gc17h6cca3cd28c8e5911E, symObjAddr: 0x2D8, symBinAddr: 0x100EC, symSize: 0x4C }
  - { offset: 0x682FB, size: 0x8, addend: 0x0, symName: '__ZN4pyo35impl_7pyclass29PyClassImplCollector$LT$T$GT$3new17h51d0d1b6d4ec85daE', symObjAddr: 0x324, symBinAddr: 0x10138, symSize: 0x4 }
  - { offset: 0x68318, size: 0x8, addend: 0x0, symName: '__ZN4pyo35impl_7pyclass29PyClassImplCollector$LT$T$GT$3new17h5fed37e2c259acc5E', symObjAddr: 0x328, symBinAddr: 0x1013C, symSize: 0x4 }
  - { offset: 0x68605, size: 0x8, addend: 0x0, symName: '__ZN4pyo35impl_7pyclass29PyClassImplCollector$LT$T$GT$3new17h69fa69aa76d8eeddE', symObjAddr: 0x32C, symBinAddr: 0x10140, symSize: 0x4 }
  - { offset: 0x68622, size: 0x8, addend: 0x0, symName: '__ZN4pyo35impl_7pyclass29PyClassImplCollector$LT$T$GT$3new17hd991dc5d086a48b6E', symObjAddr: 0x330, symBinAddr: 0x10144, symSize: 0x4 }
  - { offset: 0x68738, size: 0x8, addend: 0x0, symName: __ZN9hashbrown3raw11TableLayout20calculate_layout_for17h6185236f8dd318e8E, symObjAddr: 0x0, symBinAddr: 0x10148, symSize: 0x220 }
  - { offset: 0x69E60, size: 0x8, addend: 0x0, symName: __ZN9hashbrown3raw11TableLayout20calculate_layout_for17h6185236f8dd318e8E, symObjAddr: 0x0, symBinAddr: 0x10148, symSize: 0x220 }
  - { offset: 0x6A39F, size: 0x8, addend: 0x0, symName: __ZN9hashbrown3raw13RawTableInner15rehash_in_place17hf35dc1b51358f078E, symObjAddr: 0x220, symBinAddr: 0x10368, symSize: 0x41C }
  - { offset: 0x6AD00, size: 0x8, addend: 0x0, symName: __ZN9hashbrown3raw13RawTableInner16fix_insert_index17hc27948a9735ebf0bE, symObjAddr: 0x63C, symBinAddr: 0x10784, symSize: 0x100 }
  - { offset: 0x6AF72, size: 0x8, addend: 0x0, symName: __ZN9hashbrown3raw13RawTableInner17find_insert_index17h8e5d273ddbd221baE, symObjAddr: 0x73C, symBinAddr: 0x10884, symSize: 0xFC }
  - { offset: 0x6B26F, size: 0x8, addend: 0x0, symName: __ZN9hashbrown3raw13RawTableInner23prepare_rehash_in_place17hc1e8a8551c6c680eE, symObjAddr: 0x838, symBinAddr: 0x10980, symSize: 0x204 }
  - { offset: 0x6B865, size: 0x8, addend: 0x0, symName: __ZN9hashbrown3raw13RawTableInner26find_insert_index_in_group17hb0221a5d09aa4134E, symObjAddr: 0xA3C, symBinAddr: 0x10B84, symSize: 0x120 }
  - { offset: 0x6BB22, size: 0x8, addend: 0x0, symName: __ZN9hashbrown3raw13RawTableInner31find_or_find_insert_index_inner17hd672234d58e66a15E, symObjAddr: 0xB5C, symBinAddr: 0x10CA4, symSize: 0x2A0 }
  - { offset: 0x6BECE, size: 0x8, addend: 0x0, symName: '__ZN4core4cell13Cell$LT$T$GT$3new17hbe08f5fc20080994E', symObjAddr: 0x0, symBinAddr: 0x10F44, symSize: 0x10 }
  - { offset: 0x6BF70, size: 0x8, addend: 0x0, symName: '__ZN4core4cell13Cell$LT$T$GT$3new17hbe08f5fc20080994E', symObjAddr: 0x0, symBinAddr: 0x10F44, symSize: 0x10 }
  - { offset: 0x6BFBA, size: 0x8, addend: 0x0, symName: '__ZN4pyo34sync20GILOnceCell$LT$T$GT$15get_or_try_init17h390e4f8664ce0a7bE', symObjAddr: 0x0, symBinAddr: 0x10F54, symSize: 0xB4 }
  - { offset: 0x6DEA3, size: 0x8, addend: 0x0, symName: '__ZN4pyo34sync20GILOnceCell$LT$T$GT$15get_or_try_init17h390e4f8664ce0a7bE', symObjAddr: 0x0, symBinAddr: 0x10F54, symSize: 0xB4 }
  - { offset: 0x6DF1C, size: 0x8, addend: 0x0, symName: '__ZN4pyo34sync20GILOnceCell$LT$T$GT$15get_or_try_init17ha4df3abebc7c8e23E', symObjAddr: 0xB4, symBinAddr: 0x11008, symSize: 0xB4 }
  - { offset: 0x6DF95, size: 0x8, addend: 0x0, symName: '__ZN4pyo34sync20GILOnceCell$LT$T$GT$15get_or_try_init17ha8268899b7343dacE', symObjAddr: 0x168, symBinAddr: 0x110BC, symSize: 0xB4 }
  - { offset: 0x6E00E, size: 0x8, addend: 0x0, symName: '__ZN4pyo34sync20GILOnceCell$LT$T$GT$15get_or_try_init17hfc3b461f904b12bcE', symObjAddr: 0x21C, symBinAddr: 0x11170, symSize: 0xB4 }
  - { offset: 0x6E087, size: 0x8, addend: 0x0, symName: '__ZN4pyo34sync20GILOnceCell$LT$T$GT$3get17h5dcca8cc19b8c997E', symObjAddr: 0x2D0, symBinAddr: 0x11224, symSize: 0x70 }
  - { offset: 0x6E108, size: 0x8, addend: 0x0, symName: '__ZN4pyo34sync20GILOnceCell$LT$T$GT$3set17hba07e2b13c9c88c3E', symObjAddr: 0x340, symBinAddr: 0x11294, symSize: 0x194 }
  - { offset: 0x6E201, size: 0x8, addend: 0x0, symName: '__ZN4pyo34sync20GILOnceCell$LT$T$GT$4init17h22cb4c07149175d2E', symObjAddr: 0x4D4, symBinAddr: 0x74620, symSize: 0x190 }
  - { offset: 0x6E2D7, size: 0x8, addend: 0x0, symName: '__ZN4pyo34sync20GILOnceCell$LT$T$GT$4init17h26903ef9bd7eee97E', symObjAddr: 0x664, symBinAddr: 0x747B0, symSize: 0x190 }
  - { offset: 0x6E3AD, size: 0x8, addend: 0x0, symName: '__ZN4pyo34sync20GILOnceCell$LT$T$GT$4init17h4c305b2ee703b74fE', symObjAddr: 0x7F4, symBinAddr: 0x74940, symSize: 0x190 }
  - { offset: 0x6E483, size: 0x8, addend: 0x0, symName: '__ZN4pyo34sync20GILOnceCell$LT$T$GT$4init17hbfacd261bf6e7288E', symObjAddr: 0x984, symBinAddr: 0x74AD0, symSize: 0x190 }
  - { offset: 0x6E584, size: 0x8, addend: 0x0, symName: __ZN4pyo33gil8GILGuard6python17h77314f7c38480bceE, symObjAddr: 0x0, symBinAddr: 0x11428, symSize: 0x20 }
  - { offset: 0x6E634, size: 0x8, addend: 0x0, symName: __ZN4pyo33gil8GILGuard6python17h77314f7c38480bceE, symObjAddr: 0x0, symBinAddr: 0x11428, symSize: 0x20 }
  - { offset: 0x6E674, size: 0x8, addend: 0x0, symName: '__ZN71_$LT$std..hash..random..DefaultHasher$u20$as$u20$core..hash..Hasher$GT$6finish17hd64d4b254c342008E', symObjAddr: 0x0, symBinAddr: 0x11448, symSize: 0x20 }
  - { offset: 0x6E7F5, size: 0x8, addend: 0x0, symName: '__ZN71_$LT$std..hash..random..DefaultHasher$u20$as$u20$core..hash..Hasher$GT$6finish17hd64d4b254c342008E', symObjAddr: 0x0, symBinAddr: 0x11448, symSize: 0x20 }
  - { offset: 0x6E843, size: 0x8, addend: 0x0, symName: '__ZN74_$LT$std..hash..random..RandomState$u20$as$u20$core..hash..BuildHasher$GT$12build_hasher17h35ef056af76c7be3E', symObjAddr: 0x20, symBinAddr: 0x11468, symSize: 0xCC }
  - { offset: 0x6E997, size: 0x8, addend: 0x0, symName: '__ZN102_$LT$core..iter..adapters..zip..Zip$LT$A$C$B$GT$$u20$as$u20$core..iter..traits..iterator..Iterator$GT$4next17hc0d0518f5b462a11E', symObjAddr: 0x0, symBinAddr: 0x11534, symSize: 0x24 }
  - { offset: 0x6F17E, size: 0x8, addend: 0x0, symName: '__ZN102_$LT$core..iter..adapters..zip..Zip$LT$A$C$B$GT$$u20$as$u20$core..iter..traits..iterator..Iterator$GT$4next17hc0d0518f5b462a11E', symObjAddr: 0x0, symBinAddr: 0x11534, symSize: 0x24 }
  - { offset: 0x6F1C2, size: 0x8, addend: 0x0, symName: '__ZN111_$LT$core..iter..adapters..zip..Zip$LT$A$C$B$GT$$u20$as$u20$core..iter..adapters..zip..ZipImpl$LT$A$C$B$GT$$GT$3new17hd5859228ce90bdc7E', symObjAddr: 0x24, symBinAddr: 0x11558, symSize: 0x3C }
  - { offset: 0x6F20E, size: 0x8, addend: 0x0, symName: '__ZN111_$LT$core..iter..adapters..zip..Zip$LT$A$C$B$GT$$u20$as$u20$core..iter..adapters..zip..ZipImpl$LT$A$C$B$GT$$GT$4next17hee43fadd98cc37efE', symObjAddr: 0x60, symBinAddr: 0x11594, symSize: 0xE0 }
  - { offset: 0x6F43B, size: 0x8, addend: 0x0, symName: '__ZN63_$LT$I$u20$as$u20$core..iter..traits..collect..IntoIterator$GT$9into_iter17h416f1efa0d3ce47cE', symObjAddr: 0x140, symBinAddr: 0x11674, symSize: 0x30 }
  - { offset: 0x6F473, size: 0x8, addend: 0x0, symName: '__ZN63_$LT$I$u20$as$u20$core..iter..traits..collect..IntoIterator$GT$9into_iter17hf7c6fd94f750d64bE', symObjAddr: 0x170, symBinAddr: 0x116A4, symSize: 0x30 }
  - { offset: 0x708F8, size: 0x8, addend: 0x0, symName: __ZN5alloc3fmt6format17h35ba6f2b531ca701E, symObjAddr: 0x0, symBinAddr: 0x116D4, symSize: 0xD8 }
  - { offset: 0x70E10, size: 0x8, addend: 0x0, symName: __ZN5alloc3fmt6format17h35ba6f2b531ca701E, symObjAddr: 0x0, symBinAddr: 0x116D4, symSize: 0xD8 }
  - { offset: 0x70FC0, size: 0x8, addend: 0x0, symName: '__ZN5alloc3vec16Vec$LT$T$C$A$GT$7set_len18precondition_check17hdee231094b82e1ffE', symObjAddr: 0x0, symBinAddr: 0x117AC, symSize: 0x60 }
  - { offset: 0x70FE1, size: 0x8, addend: 0x0, symName: '__ZN5alloc3vec16Vec$LT$T$C$A$GT$7set_len18precondition_check17hdee231094b82e1ffE', symObjAddr: 0x0, symBinAddr: 0x117AC, symSize: 0x60 }
  - { offset: 0x7108B, size: 0x8, addend: 0x0, symName: '__ZN4pyo36pycell14PyRef$LT$T$GT$10try_borrow17h145cd1c97e6f9d22E', symObjAddr: 0x0, symBinAddr: 0x1180C, symSize: 0x4C }
  - { offset: 0x72B9D, size: 0x8, addend: 0x0, symName: '__ZN50_$LT$T$u20$as$u20$core..convert..Into$LT$U$GT$$GT$4into17hc3826f3fa2fc90f4E', symObjAddr: 0x1C0, symBinAddr: 0x119CC, symSize: 0x1C }
  - { offset: 0x72F98, size: 0x8, addend: 0x0, symName: '__ZN4pyo36pycell14PyRef$LT$T$GT$10try_borrow28_$u7b$$u7b$closure$u7d$$u7d$17h26d2086d15800495E', symObjAddr: 0x130, symBinAddr: 0x1193C, symSize: 0x24 }
  - { offset: 0x72FDC, size: 0x8, addend: 0x0, symName: '__ZN4pyo36pycell14PyRef$LT$T$GT$10try_borrow28_$u7b$$u7b$closure$u7d$$u7d$17h55c32635b2f27394E', symObjAddr: 0x154, symBinAddr: 0x11960, symSize: 0x24 }
  - { offset: 0x73020, size: 0x8, addend: 0x0, symName: '__ZN4pyo36pycell14PyRef$LT$T$GT$10try_borrow28_$u7b$$u7b$closure$u7d$$u7d$17h8b1919f1a6e9942bE', symObjAddr: 0x178, symBinAddr: 0x11984, symSize: 0x24 }
  - { offset: 0x73064, size: 0x8, addend: 0x0, symName: '__ZN4pyo36pycell14PyRef$LT$T$GT$10try_borrow28_$u7b$$u7b$closure$u7d$$u7d$17hf4d147bb3cf6e384E', symObjAddr: 0x19C, symBinAddr: 0x119A8, symSize: 0x24 }
  - { offset: 0x730AF, size: 0x8, addend: 0x0, symName: '__ZN72_$LT$pyo3..pycell..PyRef$LT$T$GT$$u20$as$u20$core..ops..deref..Deref$GT$5deref17h5bf2ce7b7c094673E', symObjAddr: 0x2AC, symBinAddr: 0x11AB8, symSize: 0x74 }
  - { offset: 0x730E6, size: 0x8, addend: 0x0, symName: '__ZN72_$LT$pyo3..pycell..PyRef$LT$T$GT$$u20$as$u20$core..ops..deref..Deref$GT$5deref17h7060d7575c82c9a8E', symObjAddr: 0x320, symBinAddr: 0x11B2C, symSize: 0x74 }
  - { offset: 0x7311D, size: 0x8, addend: 0x0, symName: '__ZN72_$LT$pyo3..pycell..PyRef$LT$T$GT$$u20$as$u20$core..ops..deref..Deref$GT$5deref17h7fa9c33d22d098d9E', symObjAddr: 0x394, symBinAddr: 0x11BA0, symSize: 0x74 }
  - { offset: 0x73154, size: 0x8, addend: 0x0, symName: '__ZN72_$LT$pyo3..pycell..PyRef$LT$T$GT$$u20$as$u20$core..ops..deref..Deref$GT$5deref17hb9e13c064ad0a733E', symObjAddr: 0x408, symBinAddr: 0x11C14, symSize: 0x74 }
  - { offset: 0x736FA, size: 0x8, addend: 0x0, symName: '__ZN57_$LT$T$u20$as$u20$pyo3..conversion..FromPyObjectBound$GT$20from_py_object_bound17h1c338532c2444f22E', symObjAddr: 0x1DC, symBinAddr: 0x119E8, symSize: 0x34 }
  - { offset: 0x73731, size: 0x8, addend: 0x0, symName: '__ZN57_$LT$T$u20$as$u20$pyo3..conversion..FromPyObjectBound$GT$20from_py_object_bound17h27baa3cce94ec042E', symObjAddr: 0x210, symBinAddr: 0x11A1C, symSize: 0x34 }
  - { offset: 0x73768, size: 0x8, addend: 0x0, symName: '__ZN57_$LT$T$u20$as$u20$pyo3..conversion..FromPyObjectBound$GT$20from_py_object_bound17h97e43e8707c8c009E', symObjAddr: 0x244, symBinAddr: 0x11A50, symSize: 0x34 }
  - { offset: 0x7379F, size: 0x8, addend: 0x0, symName: '__ZN57_$LT$T$u20$as$u20$pyo3..conversion..FromPyObjectBound$GT$20from_py_object_bound17h99c1253459b1dcebE', symObjAddr: 0x278, symBinAddr: 0x11A84, symSize: 0x34 }
  - { offset: 0x737DC, size: 0x8, addend: 0x0, symName: '__ZN79_$LT$pyo3..pycell..PyRef$LT$T$GT$$u20$as$u20$pyo3..conversion..FromPyObject$GT$13extract_bound17h4786cd017d3f5cb3E', symObjAddr: 0x47C, symBinAddr: 0x11C88, symSize: 0xA4 }
  - { offset: 0x73832, size: 0x8, addend: 0x0, symName: '__ZN79_$LT$pyo3..pycell..PyRef$LT$T$GT$$u20$as$u20$pyo3..conversion..FromPyObject$GT$13extract_bound17h77efb3fa8243fbc4E', symObjAddr: 0x520, symBinAddr: 0x11D2C, symSize: 0xA4 }
  - { offset: 0x73888, size: 0x8, addend: 0x0, symName: '__ZN79_$LT$pyo3..pycell..PyRef$LT$T$GT$$u20$as$u20$pyo3..conversion..FromPyObject$GT$13extract_bound17h8098f5487d59163eE', symObjAddr: 0x5C4, symBinAddr: 0x11DD0, symSize: 0xA4 }
  - { offset: 0x738DE, size: 0x8, addend: 0x0, symName: '__ZN79_$LT$pyo3..pycell..PyRef$LT$T$GT$$u20$as$u20$pyo3..conversion..FromPyObject$GT$13extract_bound17hbb31d0b2841a8c34E', symObjAddr: 0x668, symBinAddr: 0x11E74, symSize: 0xA4 }
  - { offset: 0x74298, size: 0x8, addend: 0x0, symName: '__ZN4pyo36pycell14PyRef$LT$T$GT$10try_borrow17h145cd1c97e6f9d22E', symObjAddr: 0x0, symBinAddr: 0x1180C, symSize: 0x4C }
  - { offset: 0x745D3, size: 0x8, addend: 0x0, symName: '__ZN4pyo36pycell14PyRef$LT$T$GT$10try_borrow17h36d3bf084acb7490E', symObjAddr: 0x4C, symBinAddr: 0x11858, symSize: 0x4C }
  - { offset: 0x7462A, size: 0x8, addend: 0x0, symName: '__ZN4pyo36pycell14PyRef$LT$T$GT$10try_borrow17h6a1c4963142f8b65E', symObjAddr: 0x98, symBinAddr: 0x118A4, symSize: 0x4C }
  - { offset: 0x74681, size: 0x8, addend: 0x0, symName: '__ZN4pyo36pycell14PyRef$LT$T$GT$10try_borrow17hebc57eae308cda1dE', symObjAddr: 0xE4, symBinAddr: 0x118F0, symSize: 0x4C }
  - { offset: 0x7480E, size: 0x8, addend: 0x0, symName: __ZN5alloc6string6String6as_str17h45260adf51313e2aE, symObjAddr: 0x0, symBinAddr: 0x11F18, symSize: 0x20 }
  - { offset: 0x74B87, size: 0x8, addend: 0x0, symName: __ZN5alloc6string6String6as_str17h45260adf51313e2aE, symObjAddr: 0x0, symBinAddr: 0x11F18, symSize: 0x20 }
  - { offset: 0x74C35, size: 0x8, addend: 0x0, symName: __ZN4pyo311type_object10PyTypeInfo16is_type_of_bound17h0686cf737e79b7dbE, symObjAddr: 0x0, symBinAddr: 0x11F38, symSize: 0x50 }
  - { offset: 0x75434, size: 0x8, addend: 0x0, symName: '__ZN50_$LT$T$u20$as$u20$core..convert..Into$LT$U$GT$$GT$4into17h85ee7c9973e08210E', symObjAddr: 0x180, symBinAddr: 0x120B8, symSize: 0x14 }
  - { offset: 0x75475, size: 0x8, addend: 0x0, symName: '__ZN50_$LT$T$u20$as$u20$core..convert..Into$LT$U$GT$$GT$4into17hba75ea173baf2954E', symObjAddr: 0x194, symBinAddr: 0x120CC, symSize: 0x14 }
  - { offset: 0x754B6, size: 0x8, addend: 0x0, symName: '__ZN50_$LT$T$u20$as$u20$core..convert..Into$LT$U$GT$$GT$4into17hcb21be3cb258482fE', symObjAddr: 0x1A8, symBinAddr: 0x120E0, symSize: 0x14 }
  - { offset: 0x754F7, size: 0x8, addend: 0x0, symName: '__ZN50_$LT$T$u20$as$u20$core..convert..Into$LT$U$GT$$GT$4into17hde8a11f605cac0b4E', symObjAddr: 0x1BC, symBinAddr: 0x120F4, symSize: 0x14 }
  - { offset: 0x76657, size: 0x8, addend: 0x0, symName: __ZN4pyo311type_object10PyTypeInfo16is_type_of_bound17h0686cf737e79b7dbE, symObjAddr: 0x0, symBinAddr: 0x11F38, symSize: 0x50 }
  - { offset: 0x7668C, size: 0x8, addend: 0x0, symName: __ZN4pyo311type_object10PyTypeInfo16is_type_of_bound17h253dbe899747c2ddE, symObjAddr: 0x50, symBinAddr: 0x11F88, symSize: 0x50 }
  - { offset: 0x766C1, size: 0x8, addend: 0x0, symName: __ZN4pyo311type_object10PyTypeInfo16is_type_of_bound17h9be660419e5234c3E, symObjAddr: 0xA0, symBinAddr: 0x11FD8, symSize: 0x50 }
  - { offset: 0x766F6, size: 0x8, addend: 0x0, symName: __ZN4pyo311type_object10PyTypeInfo16is_type_of_bound17hde29ac2984c9d4c2E, symObjAddr: 0xF0, symBinAddr: 0x12028, symSize: 0x50 }
  - { offset: 0x76731, size: 0x8, addend: 0x0, symName: '__ZN52_$LT$T$u20$as$u20$pyo3..type_object..PyTypeCheck$GT$10type_check17h136ee939f1edd5f7E', symObjAddr: 0x1D0, symBinAddr: 0x12108, symSize: 0x24 }
  - { offset: 0x76766, size: 0x8, addend: 0x0, symName: '__ZN52_$LT$T$u20$as$u20$pyo3..type_object..PyTypeCheck$GT$10type_check17h65931f0760ff9234E', symObjAddr: 0x1F4, symBinAddr: 0x1212C, symSize: 0x24 }
  - { offset: 0x7679B, size: 0x8, addend: 0x0, symName: '__ZN52_$LT$T$u20$as$u20$pyo3..type_object..PyTypeCheck$GT$10type_check17h7f257655a9f4b5b8E', symObjAddr: 0x218, symBinAddr: 0x12150, symSize: 0x24 }
  - { offset: 0x767D0, size: 0x8, addend: 0x0, symName: '__ZN52_$LT$T$u20$as$u20$pyo3..type_object..PyTypeCheck$GT$10type_check17hb5fe6eae66e927d6E', symObjAddr: 0x23C, symBinAddr: 0x12174, symSize: 0x24 }
  - { offset: 0x76816, size: 0x8, addend: 0x0, symName: __ZN4pyo35impl_7pyclass11PyClassImpl11dict_offset17h666d5af114a9fc44E, symObjAddr: 0x140, symBinAddr: 0x12078, symSize: 0x8 }
  - { offset: 0x7683D, size: 0x8, addend: 0x0, symName: __ZN4pyo35impl_7pyclass11PyClassImpl11dict_offset17haccf374b338c17d2E, symObjAddr: 0x148, symBinAddr: 0x12080, symSize: 0x8 }
  - { offset: 0x76864, size: 0x8, addend: 0x0, symName: __ZN4pyo35impl_7pyclass11PyClassImpl11dict_offset17hd95b46b6e0d08b91E, symObjAddr: 0x150, symBinAddr: 0x12088, symSize: 0x8 }
  - { offset: 0x7688B, size: 0x8, addend: 0x0, symName: __ZN4pyo35impl_7pyclass11PyClassImpl11dict_offset17hfa495de17bd4b060E, symObjAddr: 0x158, symBinAddr: 0x12090, symSize: 0x8 }
  - { offset: 0x768B2, size: 0x8, addend: 0x0, symName: __ZN4pyo35impl_7pyclass11PyClassImpl15weaklist_offset17h2c966b0ca4d2d8a1E, symObjAddr: 0x160, symBinAddr: 0x12098, symSize: 0x8 }
  - { offset: 0x768D9, size: 0x8, addend: 0x0, symName: __ZN4pyo35impl_7pyclass11PyClassImpl15weaklist_offset17h369c20593df5d526E, symObjAddr: 0x168, symBinAddr: 0x120A0, symSize: 0x8 }
  - { offset: 0x76900, size: 0x8, addend: 0x0, symName: __ZN4pyo35impl_7pyclass11PyClassImpl15weaklist_offset17h561b8cd6676a45b5E, symObjAddr: 0x170, symBinAddr: 0x120A8, symSize: 0x8 }
  - { offset: 0x76927, size: 0x8, addend: 0x0, symName: __ZN4pyo35impl_7pyclass11PyClassImpl15weaklist_offset17hc7e84c73bee142b2E, symObjAddr: 0x178, symBinAddr: 0x120B0, symSize: 0x8 }
  - { offset: 0x769D2, size: 0x8, addend: 0x0, symName: '__ZN56_$LT$T$u20$as$u20$pyo3..impl_..wrap..OkWrap$LT$T$GT$$GT$4wrap17h3cd01a8803204dc8E', symObjAddr: 0x260, symBinAddr: 0x12198, symSize: 0x30 }
  - { offset: 0x76A08, size: 0x8, addend: 0x0, symName: '__ZN56_$LT$T$u20$as$u20$pyo3..impl_..wrap..OkWrap$LT$T$GT$$GT$4wrap17hbc44e3ab250b1d14E', symObjAddr: 0x290, symBinAddr: 0x121C8, symSize: 0x14 }
  - { offset: 0x76A3D, size: 0x8, addend: 0x0, symName: '__ZN56_$LT$T$u20$as$u20$pyo3..impl_..wrap..OkWrap$LT$T$GT$$GT$4wrap17hfdbc4f95780c34a8E', symObjAddr: 0x2A4, symBinAddr: 0x121DC, symSize: 0x30 }
  - { offset: 0x76FA5, size: 0x8, addend: 0x0, symName: '__ZN72_$LT$_planck..PlanCache$u20$as$u20$pyo3..impl_..pyclass..PyClassImpl$GT$3doc28_$u7b$$u7b$closure$u7d$$u7d$17h36b263f3a6d2aa44E', symObjAddr: 0x2D4, symBinAddr: 0x1220C, symSize: 0x58 }
  - { offset: 0x76FFD, size: 0x8, addend: 0x0, symName: '__ZN73_$LT$_planck..PyPlanView$u20$as$u20$pyo3..impl_..pyclass..PyClassImpl$GT$3doc28_$u7b$$u7b$closure$u7d$$u7d$17h44158da1e4a51522E', symObjAddr: 0x32C, symBinAddr: 0x12264, symSize: 0x58 }
  - { offset: 0x77055, size: 0x8, addend: 0x0, symName: '__ZN75_$LT$_planck..PlanCompiler$u20$as$u20$pyo3..impl_..pyclass..PyClassImpl$GT$3doc28_$u7b$$u7b$closure$u7d$$u7d$17hc55beb482db5c3f0E', symObjAddr: 0x384, symBinAddr: 0x122BC, symSize: 0x58 }
  - { offset: 0x770AD, size: 0x8, addend: 0x0, symName: '__ZN77_$LT$_planck..PyPlanTemplate$u20$as$u20$pyo3..impl_..pyclass..PyClassImpl$GT$3doc28_$u7b$$u7b$closure$u7d$$u7d$17hac0056e56ecdb7dcE', symObjAddr: 0x3DC, symBinAddr: 0x12314, symSize: 0x58 }
  - { offset: 0x77105, size: 0x8, addend: 0x0, symName: '__ZN7_planck12PlanCompiler16compile_template28_$u7b$$u7b$closure$u7d$$u7d$17h791f077795245b21E', symObjAddr: 0x434, symBinAddr: 0x1236C, symSize: 0x64 }
  - { offset: 0x77189, size: 0x8, addend: 0x0, symName: '__ZN7_planck12PlanCompiler17compile_allreduce28_$u7b$$u7b$closure$u7d$$u7d$17hdf42448737ab0fb3E', symObjAddr: 0x498, symBinAddr: 0x123D0, symSize: 0x64 }
  - { offset: 0x77213, size: 0x8, addend: 0x0, symName: '__ZN7_planck12PlanCompiler29__pymethod_compile_template__28_$u7b$$u7b$closure$u7d$$u7d$17h63b7592b30d85c86E', symObjAddr: 0x4FC, symBinAddr: 0x12434, symSize: 0x18 }
  - { offset: 0x7723B, size: 0x8, addend: 0x0, symName: '__ZN7_planck12PlanCompiler29__pymethod_compile_template__28_$u7b$$u7b$closure$u7d$$u7d$17hc745d954f723f819E', symObjAddr: 0x514, symBinAddr: 0x1244C, symSize: 0x20 }
  - { offset: 0x77263, size: 0x8, addend: 0x0, symName: '__ZN7_planck12PlanCompiler29__pymethod_compile_template__28_$u7b$$u7b$closure$u7d$$u7d$17hda06479fba6fc687E', symObjAddr: 0x534, symBinAddr: 0x1246C, symSize: 0x18 }
  - { offset: 0x772A6, size: 0x8, addend: 0x0, symName: '__ZN7_planck12PlanCompiler30__pymethod_compile_allreduce__28_$u7b$$u7b$closure$u7d$$u7d$17h571fa899bb7d9091E', symObjAddr: 0x54C, symBinAddr: 0x12484, symSize: 0x20 }
  - { offset: 0x772CE, size: 0x8, addend: 0x0, symName: '__ZN7_planck12PlanCompiler30__pymethod_compile_allreduce__28_$u7b$$u7b$closure$u7d$$u7d$17hd855c44c22e19f23E', symObjAddr: 0x56C, symBinAddr: 0x124A4, symSize: 0x18 }
  - { offset: 0x77310, size: 0x8, addend: 0x0, symName: '__ZN7_planck9PlanCache26__pymethod_get_allreduce__28_$u7b$$u7b$closure$u7d$$u7d$17haee32275ea0959bbE', symObjAddr: 0x584, symBinAddr: 0x124BC, symSize: 0x20 }
  - { offset: 0x77338, size: 0x8, addend: 0x0, symName: '__ZN7_planck9PlanCache26__pymethod_get_allreduce__28_$u7b$$u7b$closure$u7d$$u7d$17hd2cacb991864d9d2E', symObjAddr: 0x5A4, symBinAddr: 0x124DC, symSize: 0x18 }
  - { offset: 0x77F89, size: 0x8, addend: 0x0, symName: __ZN4pyo36marker6Python13allow_threads17h7871fef27ecbd03bE, symObjAddr: 0x0, symBinAddr: 0x124F4, symSize: 0xCC }
  - { offset: 0x786BA, size: 0x8, addend: 0x0, symName: __ZN4pyo36marker6Python13allow_threads17h7871fef27ecbd03bE, symObjAddr: 0x0, symBinAddr: 0x124F4, symSize: 0xCC }
  - { offset: 0x78729, size: 0x8, addend: 0x0, symName: __ZN4pyo36marker6Python13allow_threads17hb59e77b760ef0d75E, symObjAddr: 0xCC, symBinAddr: 0x125C0, symSize: 0xCC }
  - { offset: 0x787D7, size: 0x8, addend: 0x0, symName: __ZN4core4hint16assert_unchecked18precondition_check17hb27d5dcf86d71f24E, symObjAddr: 0x0, symBinAddr: 0x1268C, symSize: 0x58 }
  - { offset: 0x787F3, size: 0x8, addend: 0x0, symName: __ZN4core4hint16assert_unchecked18precondition_check17hb27d5dcf86d71f24E, symObjAddr: 0x0, symBinAddr: 0x1268C, symSize: 0x58 }
  - { offset: 0x7883E, size: 0x8, addend: 0x0, symName: __ZN4core4hint21unreachable_unchecked18precondition_check17hd9ff34f577c90c63E, symObjAddr: 0x58, symBinAddr: 0x126E4, symSize: 0x3C }
  - { offset: 0x788D2, size: 0x8, addend: 0x0, symName: '__ZN153_$LT$core..result..Result$LT$T$C$F$GT$$u20$as$u20$core..ops..try_trait..FromResidual$LT$core..result..Result$LT$core..convert..Infallible$C$E$GT$$GT$$GT$13from_residual17h03fa45ca13bbd3d2E', symObjAddr: 0x0, symBinAddr: 0x12720, symSize: 0x58 }
  - { offset: 0x790D1, size: 0x8, addend: 0x0, symName: '__ZN153_$LT$core..result..Result$LT$T$C$F$GT$$u20$as$u20$core..ops..try_trait..FromResidual$LT$core..result..Result$LT$core..convert..Infallible$C$E$GT$$GT$$GT$13from_residual17h03fa45ca13bbd3d2E', symObjAddr: 0x0, symBinAddr: 0x12720, symSize: 0x58 }
  - { offset: 0x79139, size: 0x8, addend: 0x0, symName: '__ZN153_$LT$core..result..Result$LT$T$C$F$GT$$u20$as$u20$core..ops..try_trait..FromResidual$LT$core..result..Result$LT$core..convert..Infallible$C$E$GT$$GT$$GT$13from_residual17h1ca0fd55b58424faE', symObjAddr: 0x58, symBinAddr: 0x12778, symSize: 0x48 }
  - { offset: 0x791BE, size: 0x8, addend: 0x0, symName: '__ZN153_$LT$core..result..Result$LT$T$C$F$GT$$u20$as$u20$core..ops..try_trait..FromResidual$LT$core..result..Result$LT$core..convert..Infallible$C$E$GT$$GT$$GT$13from_residual17h1ca9873c31f5aa28E', symObjAddr: 0xA0, symBinAddr: 0x127C0, symSize: 0x48 }
  - { offset: 0x79243, size: 0x8, addend: 0x0, symName: '__ZN153_$LT$core..result..Result$LT$T$C$F$GT$$u20$as$u20$core..ops..try_trait..FromResidual$LT$core..result..Result$LT$core..convert..Infallible$C$E$GT$$GT$$GT$13from_residual17h26694e77380c6fd1E', symObjAddr: 0xE8, symBinAddr: 0x12808, symSize: 0x48 }
  - { offset: 0x792C8, size: 0x8, addend: 0x0, symName: '__ZN153_$LT$core..result..Result$LT$T$C$F$GT$$u20$as$u20$core..ops..try_trait..FromResidual$LT$core..result..Result$LT$core..convert..Infallible$C$E$GT$$GT$$GT$13from_residual17h296e45825a4a1d9fE', symObjAddr: 0x130, symBinAddr: 0x12850, symSize: 0x48 }
  - { offset: 0x7934D, size: 0x8, addend: 0x0, symName: '__ZN153_$LT$core..result..Result$LT$T$C$F$GT$$u20$as$u20$core..ops..try_trait..FromResidual$LT$core..result..Result$LT$core..convert..Infallible$C$E$GT$$GT$$GT$13from_residual17h2dba9b3ab3d4037fE', symObjAddr: 0x178, symBinAddr: 0x12898, symSize: 0x48 }
  - { offset: 0x793D2, size: 0x8, addend: 0x0, symName: '__ZN153_$LT$core..result..Result$LT$T$C$F$GT$$u20$as$u20$core..ops..try_trait..FromResidual$LT$core..result..Result$LT$core..convert..Infallible$C$E$GT$$GT$$GT$13from_residual17h31aa8964f8f21b6eE', symObjAddr: 0x1C0, symBinAddr: 0x128E0, symSize: 0x48 }
  - { offset: 0x79457, size: 0x8, addend: 0x0, symName: '__ZN153_$LT$core..result..Result$LT$T$C$F$GT$$u20$as$u20$core..ops..try_trait..FromResidual$LT$core..result..Result$LT$core..convert..Infallible$C$E$GT$$GT$$GT$13from_residual17h51008bddada2c50aE', symObjAddr: 0x208, symBinAddr: 0x12928, symSize: 0x48 }
  - { offset: 0x794DC, size: 0x8, addend: 0x0, symName: '__ZN153_$LT$core..result..Result$LT$T$C$F$GT$$u20$as$u20$core..ops..try_trait..FromResidual$LT$core..result..Result$LT$core..convert..Infallible$C$E$GT$$GT$$GT$13from_residual17h98e7b6ff13877c6cE', symObjAddr: 0x250, symBinAddr: 0x12970, symSize: 0x48 }
  - { offset: 0x79561, size: 0x8, addend: 0x0, symName: '__ZN153_$LT$core..result..Result$LT$T$C$F$GT$$u20$as$u20$core..ops..try_trait..FromResidual$LT$core..result..Result$LT$core..convert..Infallible$C$E$GT$$GT$$GT$13from_residual17ha4ff2be9d9e9d336E', symObjAddr: 0x298, symBinAddr: 0x129B8, symSize: 0x48 }
  - { offset: 0x795E6, size: 0x8, addend: 0x0, symName: '__ZN153_$LT$core..result..Result$LT$T$C$F$GT$$u20$as$u20$core..ops..try_trait..FromResidual$LT$core..result..Result$LT$core..convert..Infallible$C$E$GT$$GT$$GT$13from_residual17hb215a26a83781f3aE', symObjAddr: 0x2E0, symBinAddr: 0x12A00, symSize: 0x58 }
  - { offset: 0x7964E, size: 0x8, addend: 0x0, symName: '__ZN153_$LT$core..result..Result$LT$T$C$F$GT$$u20$as$u20$core..ops..try_trait..FromResidual$LT$core..result..Result$LT$core..convert..Infallible$C$E$GT$$GT$$GT$13from_residual17hb30fb0a05be00071E', symObjAddr: 0x338, symBinAddr: 0x12A58, symSize: 0x48 }
  - { offset: 0x796D3, size: 0x8, addend: 0x0, symName: '__ZN153_$LT$core..result..Result$LT$T$C$F$GT$$u20$as$u20$core..ops..try_trait..FromResidual$LT$core..result..Result$LT$core..convert..Infallible$C$E$GT$$GT$$GT$13from_residual17hccc7598ce9fe746cE', symObjAddr: 0x380, symBinAddr: 0x12AA0, symSize: 0x58 }
  - { offset: 0x7973B, size: 0x8, addend: 0x0, symName: '__ZN153_$LT$core..result..Result$LT$T$C$F$GT$$u20$as$u20$core..ops..try_trait..FromResidual$LT$core..result..Result$LT$core..convert..Infallible$C$E$GT$$GT$$GT$13from_residual17hdc1ecd81cf411b08E', symObjAddr: 0x3D8, symBinAddr: 0x12AF8, symSize: 0x48 }
  - { offset: 0x797C0, size: 0x8, addend: 0x0, symName: '__ZN153_$LT$core..result..Result$LT$T$C$F$GT$$u20$as$u20$core..ops..try_trait..FromResidual$LT$core..result..Result$LT$core..convert..Infallible$C$E$GT$$GT$$GT$13from_residual17he534a58b1b80f922E', symObjAddr: 0x420, symBinAddr: 0x12B40, symSize: 0x58 }
  - { offset: 0x79828, size: 0x8, addend: 0x0, symName: '__ZN153_$LT$core..result..Result$LT$T$C$F$GT$$u20$as$u20$core..ops..try_trait..FromResidual$LT$core..result..Result$LT$core..convert..Infallible$C$E$GT$$GT$$GT$13from_residual17head21afd5c844893E', symObjAddr: 0x478, symBinAddr: 0x12B98, symSize: 0x48 }
  - { offset: 0x798AD, size: 0x8, addend: 0x0, symName: '__ZN153_$LT$core..result..Result$LT$T$C$F$GT$$u20$as$u20$core..ops..try_trait..FromResidual$LT$core..result..Result$LT$core..convert..Infallible$C$E$GT$$GT$$GT$13from_residual17hf291829bce9865caE', symObjAddr: 0x4C0, symBinAddr: 0x12BE0, symSize: 0x48 }
  - { offset: 0x7B397, size: 0x8, addend: 0x0, symName: '__ZN79_$LT$core..result..Result$LT$T$C$E$GT$$u20$as$u20$core..ops..try_trait..Try$GT$6branch17h00d7fd6765787987E', symObjAddr: 0x1538, symBinAddr: 0x13C58, symSize: 0x80 }
  - { offset: 0x7B415, size: 0x8, addend: 0x0, symName: '__ZN79_$LT$core..result..Result$LT$T$C$E$GT$$u20$as$u20$core..ops..try_trait..Try$GT$6branch17h0392ed5f6f1ce86dE', symObjAddr: 0x15B8, symBinAddr: 0x13CD8, symSize: 0x80 }
  - { offset: 0x7B493, size: 0x8, addend: 0x0, symName: '__ZN79_$LT$core..result..Result$LT$T$C$E$GT$$u20$as$u20$core..ops..try_trait..Try$GT$6branch17h12f78ddadaa17ac8E', symObjAddr: 0x1638, symBinAddr: 0x13D58, symSize: 0x80 }
  - { offset: 0x7B511, size: 0x8, addend: 0x0, symName: '__ZN79_$LT$core..result..Result$LT$T$C$E$GT$$u20$as$u20$core..ops..try_trait..Try$GT$6branch17h154d3144770ecc73E', symObjAddr: 0x16B8, symBinAddr: 0x13DD8, symSize: 0x80 }
  - { offset: 0x7B58F, size: 0x8, addend: 0x0, symName: '__ZN79_$LT$core..result..Result$LT$T$C$E$GT$$u20$as$u20$core..ops..try_trait..Try$GT$6branch17h2348196630f80ab8E', symObjAddr: 0x1738, symBinAddr: 0x13E58, symSize: 0x8C }
  - { offset: 0x7B60D, size: 0x8, addend: 0x0, symName: '__ZN79_$LT$core..result..Result$LT$T$C$E$GT$$u20$as$u20$core..ops..try_trait..Try$GT$6branch17h2967ac99ed36657fE', symObjAddr: 0x17C4, symBinAddr: 0x13EE4, symSize: 0x80 }
  - { offset: 0x7B68B, size: 0x8, addend: 0x0, symName: '__ZN79_$LT$core..result..Result$LT$T$C$E$GT$$u20$as$u20$core..ops..try_trait..Try$GT$6branch17h2bc6f529188d5058E', symObjAddr: 0x1844, symBinAddr: 0x13F64, symSize: 0x88 }
  - { offset: 0x7B709, size: 0x8, addend: 0x0, symName: '__ZN79_$LT$core..result..Result$LT$T$C$E$GT$$u20$as$u20$core..ops..try_trait..Try$GT$6branch17h36a3dcca7a8e848cE', symObjAddr: 0x18CC, symBinAddr: 0x13FEC, symSize: 0xB0 }
  - { offset: 0x7B786, size: 0x8, addend: 0x0, symName: '__ZN79_$LT$core..result..Result$LT$T$C$E$GT$$u20$as$u20$core..ops..try_trait..Try$GT$6branch17h440476ff97cfdc6bE', symObjAddr: 0x197C, symBinAddr: 0x1409C, symSize: 0x80 }
  - { offset: 0x7B804, size: 0x8, addend: 0x0, symName: '__ZN79_$LT$core..result..Result$LT$T$C$E$GT$$u20$as$u20$core..ops..try_trait..Try$GT$6branch17h4c744318fd6f1ae3E', symObjAddr: 0x19FC, symBinAddr: 0x1411C, symSize: 0x94 }
  - { offset: 0x7B881, size: 0x8, addend: 0x0, symName: '__ZN79_$LT$core..result..Result$LT$T$C$E$GT$$u20$as$u20$core..ops..try_trait..Try$GT$6branch17h763f5a3f56955f19E', symObjAddr: 0x1A90, symBinAddr: 0x141B0, symSize: 0x80 }
  - { offset: 0x7B8FF, size: 0x8, addend: 0x0, symName: '__ZN79_$LT$core..result..Result$LT$T$C$E$GT$$u20$as$u20$core..ops..try_trait..Try$GT$6branch17h9e73865fafc0dc7aE', symObjAddr: 0x1B10, symBinAddr: 0x14230, symSize: 0x80 }
  - { offset: 0x7B97D, size: 0x8, addend: 0x0, symName: '__ZN79_$LT$core..result..Result$LT$T$C$E$GT$$u20$as$u20$core..ops..try_trait..Try$GT$6branch17hb87faa4341cbe2d6E', symObjAddr: 0x1B90, symBinAddr: 0x142B0, symSize: 0x80 }
  - { offset: 0x7B9FB, size: 0x8, addend: 0x0, symName: '__ZN79_$LT$core..result..Result$LT$T$C$E$GT$$u20$as$u20$core..ops..try_trait..Try$GT$6branch17hc248396912554019E', symObjAddr: 0x1C10, symBinAddr: 0x14330, symSize: 0x88 }
  - { offset: 0x7BA79, size: 0x8, addend: 0x0, symName: '__ZN79_$LT$core..result..Result$LT$T$C$E$GT$$u20$as$u20$core..ops..try_trait..Try$GT$6branch17hde66939b6a28d994E', symObjAddr: 0x1C98, symBinAddr: 0x143B8, symSize: 0x80 }
  - { offset: 0x7BAF7, size: 0x8, addend: 0x0, symName: '__ZN79_$LT$core..result..Result$LT$T$C$E$GT$$u20$as$u20$core..ops..try_trait..Try$GT$6branch17heeb70d82a5e39d72E', symObjAddr: 0x1D18, symBinAddr: 0x14438, symSize: 0x88 }
  - { offset: 0x7BB75, size: 0x8, addend: 0x0, symName: '__ZN79_$LT$core..result..Result$LT$T$C$E$GT$$u20$as$u20$core..ops..try_trait..Try$GT$6branch17hf337857df76a3043E', symObjAddr: 0x1DA0, symBinAddr: 0x144C0, symSize: 0x70 }
  - { offset: 0x7BBF3, size: 0x8, addend: 0x0, symName: '__ZN79_$LT$core..result..Result$LT$T$C$E$GT$$u20$as$u20$core..ops..try_trait..Try$GT$6branch17hf5f6dcaf79794cf4E', symObjAddr: 0x1E10, symBinAddr: 0x14530, symSize: 0x88 }
  - { offset: 0x7BC71, size: 0x8, addend: 0x0, symName: '__ZN79_$LT$core..result..Result$LT$T$C$E$GT$$u20$as$u20$core..ops..try_trait..Try$GT$6branch17hfa4a0dbbb7998ae9E', symObjAddr: 0x1E98, symBinAddr: 0x145B8, symSize: 0x80 }
  - { offset: 0x7E3A6, size: 0x8, addend: 0x0, symName: '__ZN88_$LT$core..result..Result$LT$T$C$E$GT$$u20$as$u20$pyo3..impl_..wrap..OkWrap$LT$T$GT$$GT$4wrap17h6b2678950f61f48cE', symObjAddr: 0x1F18, symBinAddr: 0x14638, symSize: 0x30 }
  - { offset: 0x7E3E5, size: 0x8, addend: 0x0, symName: '__ZN88_$LT$core..result..Result$LT$T$C$E$GT$$u20$as$u20$pyo3..impl_..wrap..OkWrap$LT$T$GT$$GT$4wrap17he931338ba5843209E', symObjAddr: 0x1F48, symBinAddr: 0x14668, symSize: 0x30 }
  - { offset: 0x7EA5D, size: 0x8, addend: 0x0, symName: '__ZN4core6result19Result$LT$T$C$E$GT$14unwrap_or_else17h05c323755c0cd78eE', symObjAddr: 0x508, symBinAddr: 0x12C28, symSize: 0x7C }
  - { offset: 0x7EAC9, size: 0x8, addend: 0x0, symName: '__ZN4core6result19Result$LT$T$C$E$GT$14unwrap_or_else17h073c6b4384a5f77aE', symObjAddr: 0x584, symBinAddr: 0x12CA4, symSize: 0x7C }
  - { offset: 0x7EB6A, size: 0x8, addend: 0x0, symName: '__ZN4core6result19Result$LT$T$C$E$GT$14unwrap_or_else17h1da76ee338e2d61cE', symObjAddr: 0x600, symBinAddr: 0x12D20, symSize: 0x74 }
  - { offset: 0x7EBD6, size: 0x8, addend: 0x0, symName: '__ZN4core6result19Result$LT$T$C$E$GT$14unwrap_or_else17h4afaf309d7d45401E', symObjAddr: 0x674, symBinAddr: 0x12D94, symSize: 0x7C }
  - { offset: 0x7EC42, size: 0x8, addend: 0x0, symName: '__ZN4core6result19Result$LT$T$C$E$GT$14unwrap_or_else17h762d2307b3c42dacE', symObjAddr: 0x6F0, symBinAddr: 0x12E10, symSize: 0x7C }
  - { offset: 0x7ECAE, size: 0x8, addend: 0x0, symName: '__ZN4core6result19Result$LT$T$C$E$GT$3map17h10897b407f02372dE', symObjAddr: 0x76C, symBinAddr: 0x12E8C, symSize: 0x80 }
  - { offset: 0x7F48A, size: 0x8, addend: 0x0, symName: '__ZN4core6result19Result$LT$T$C$E$GT$3map17h1100349ae83434cfE', symObjAddr: 0x7EC, symBinAddr: 0x12F0C, symSize: 0x4C }
  - { offset: 0x7F529, size: 0x8, addend: 0x0, symName: '__ZN4core6result19Result$LT$T$C$E$GT$3map17h15a027b47df3350bE', symObjAddr: 0x838, symBinAddr: 0x12F58, symSize: 0x4C }
  - { offset: 0x7F5D3, size: 0x8, addend: 0x0, symName: '__ZN4core6result19Result$LT$T$C$E$GT$3map17h4500df8b855d7247E', symObjAddr: 0x884, symBinAddr: 0x12FA4, symSize: 0x80 }
  - { offset: 0x7F6D0, size: 0x8, addend: 0x0, symName: '__ZN4core6result19Result$LT$T$C$E$GT$3map17h61b08e9743b1a0eeE', symObjAddr: 0x904, symBinAddr: 0x13024, symSize: 0x84 }
  - { offset: 0x7F770, size: 0x8, addend: 0x0, symName: '__ZN4core6result19Result$LT$T$C$E$GT$3map17h7aacff418d47a8e6E', symObjAddr: 0x988, symBinAddr: 0x130A8, symSize: 0x4C }
  - { offset: 0x7F802, size: 0x8, addend: 0x0, symName: '__ZN4core6result19Result$LT$T$C$E$GT$3map17h7cc64c26870706a4E', symObjAddr: 0x9D4, symBinAddr: 0x130F4, symSize: 0x8C }
  - { offset: 0x7F895, size: 0x8, addend: 0x0, symName: '__ZN4core6result19Result$LT$T$C$E$GT$3map17h83b449ae817ac990E', symObjAddr: 0xA60, symBinAddr: 0x13180, symSize: 0xCC }
  - { offset: 0x7F928, size: 0x8, addend: 0x0, symName: '__ZN4core6result19Result$LT$T$C$E$GT$3map17h86a86d961b42fb68E', symObjAddr: 0xB2C, symBinAddr: 0x1324C, symSize: 0x80 }
  - { offset: 0x7F9BB, size: 0x8, addend: 0x0, symName: '__ZN4core6result19Result$LT$T$C$E$GT$3map17h8e4556dcfdbdae4cE', symObjAddr: 0xBAC, symBinAddr: 0x132CC, symSize: 0x8C }
  - { offset: 0x7FA5B, size: 0x8, addend: 0x0, symName: '__ZN4core6result19Result$LT$T$C$E$GT$3map17h93766ecb047b9352E', symObjAddr: 0xC38, symBinAddr: 0x13358, symSize: 0x4C }
  - { offset: 0x7FB05, size: 0x8, addend: 0x0, symName: '__ZN4core6result19Result$LT$T$C$E$GT$3map17hb1fd178561595dd8E', symObjAddr: 0xC84, symBinAddr: 0x133A4, symSize: 0x80 }
  - { offset: 0x7FB98, size: 0x8, addend: 0x0, symName: '__ZN4core6result19Result$LT$T$C$E$GT$3map17hd6af18dbb2a81096E', symObjAddr: 0xD04, symBinAddr: 0x13424, symSize: 0xB8 }
  - { offset: 0x7FC2B, size: 0x8, addend: 0x0, symName: '__ZN4core6result19Result$LT$T$C$E$GT$3map17he0eb6f1a926b7d32E', symObjAddr: 0xDBC, symBinAddr: 0x134DC, symSize: 0xCC }
  - { offset: 0x7FCD6, size: 0x8, addend: 0x0, symName: '__ZN4core6result19Result$LT$T$C$E$GT$3map17he871bd444700aee3E', symObjAddr: 0xE88, symBinAddr: 0x135A8, symSize: 0x80 }
  - { offset: 0x7FD69, size: 0x8, addend: 0x0, symName: '__ZN4core6result19Result$LT$T$C$E$GT$3map17heb18f04cb5561a4cE', symObjAddr: 0xF08, symBinAddr: 0x13628, symSize: 0xCC }
  - { offset: 0x7FE14, size: 0x8, addend: 0x0, symName: '__ZN4core6result19Result$LT$T$C$E$GT$3map17hf78c91a3e37c6108E', symObjAddr: 0xFD4, symBinAddr: 0x136F4, symSize: 0x80 }
  - { offset: 0x7FEE0, size: 0x8, addend: 0x0, symName: '__ZN4core6result19Result$LT$T$C$E$GT$6is_err17h45295d8d50d0e9bfE', symObjAddr: 0x1054, symBinAddr: 0x13774, symSize: 0x20 }
  - { offset: 0x7FF4B, size: 0x8, addend: 0x0, symName: '__ZN4core6result19Result$LT$T$C$E$GT$7map_err17h526cb2c82cba1be2E', symObjAddr: 0x1074, symBinAddr: 0x13794, symSize: 0x78 }
  - { offset: 0x7FFF5, size: 0x8, addend: 0x0, symName: '__ZN4core6result19Result$LT$T$C$E$GT$7map_err17h5fd582271a7523a4E', symObjAddr: 0x10EC, symBinAddr: 0x1380C, symSize: 0x54 }
  - { offset: 0x80082, size: 0x8, addend: 0x0, symName: '__ZN4core6result19Result$LT$T$C$E$GT$7map_err17h66f219f182c7864aE', symObjAddr: 0x1140, symBinAddr: 0x13860, symSize: 0xBC }
  - { offset: 0x80116, size: 0x8, addend: 0x0, symName: '__ZN4core6result19Result$LT$T$C$E$GT$7map_err17h87f16bbb3e713af1E', symObjAddr: 0x11FC, symBinAddr: 0x1391C, symSize: 0x78 }
  - { offset: 0x801A8, size: 0x8, addend: 0x0, symName: '__ZN4core6result19Result$LT$T$C$E$GT$7map_err17h95e3269403bc4646E', symObjAddr: 0x1274, symBinAddr: 0x13994, symSize: 0xBC }
  - { offset: 0x8023C, size: 0x8, addend: 0x0, symName: '__ZN4core6result19Result$LT$T$C$E$GT$7map_err17h9edde976d4317642E', symObjAddr: 0x1330, symBinAddr: 0x13A50, symSize: 0x20 }
  - { offset: 0x802B0, size: 0x8, addend: 0x0, symName: '__ZN4core6result19Result$LT$T$C$E$GT$7map_err17ha53a5dc4f9023127E', symObjAddr: 0x1350, symBinAddr: 0x13A70, symSize: 0x78 }
  - { offset: 0x80342, size: 0x8, addend: 0x0, symName: '__ZN4core6result19Result$LT$T$C$E$GT$7map_err17hb1d032f37f2ea8d7E', symObjAddr: 0x13C8, symBinAddr: 0x13AE8, symSize: 0x30 }
  - { offset: 0x803B6, size: 0x8, addend: 0x0, symName: '__ZN4core6result19Result$LT$T$C$E$GT$7map_err17hb47f9705baa554b1E', symObjAddr: 0x13F8, symBinAddr: 0x13B18, symSize: 0x54 }
  - { offset: 0x8042B, size: 0x8, addend: 0x0, symName: '__ZN4core6result19Result$LT$T$C$E$GT$7map_err17hbbe8b2dd87b1011aE', symObjAddr: 0x144C, symBinAddr: 0x13B6C, symSize: 0x30 }
  - { offset: 0x8049F, size: 0x8, addend: 0x0, symName: '__ZN4core6result19Result$LT$T$C$E$GT$7map_err17hbc99cabd9cba75d6E', symObjAddr: 0x147C, symBinAddr: 0x13B9C, symSize: 0x78 }
  - { offset: 0x80531, size: 0x8, addend: 0x0, symName: '__ZN4core6result19Result$LT$T$C$E$GT$7map_err17he55a649b893a6b1bE', symObjAddr: 0x14F4, symBinAddr: 0x13C14, symSize: 0x44 }
  - { offset: 0x80624, size: 0x8, addend: 0x0, symName: '__ZN4core3mem13manually_drop21ManuallyDrop$LT$T$GT$4drop17h2f8d082a48676aa1E', symObjAddr: 0x0, symBinAddr: 0x14698, symSize: 0x20 }
  - { offset: 0x80F4C, size: 0x8, addend: 0x0, symName: '__ZN4core3mem13manually_drop21ManuallyDrop$LT$T$GT$4drop17h2f8d082a48676aa1E', symObjAddr: 0x0, symBinAddr: 0x14698, symSize: 0x20 }
  - { offset: 0x8127E, size: 0x8, addend: 0x0, symName: '__ZN4core3mem13manually_drop21ManuallyDrop$LT$T$GT$4drop17h37dfa5c754efe476E', symObjAddr: 0x20, symBinAddr: 0x146B8, symSize: 0x20 }
  - { offset: 0x812B7, size: 0x8, addend: 0x0, symName: '__ZN4core3mem13manually_drop21ManuallyDrop$LT$T$GT$4drop17h85c3c36c789818baE', symObjAddr: 0x40, symBinAddr: 0x146D8, symSize: 0x20 }
  - { offset: 0x812F0, size: 0x8, addend: 0x0, symName: '__ZN4core3mem13manually_drop21ManuallyDrop$LT$T$GT$4drop17hbd0fdee8b0dc460aE', symObjAddr: 0x60, symBinAddr: 0x146F8, symSize: 0x20 }
  - { offset: 0x8133A, size: 0x8, addend: 0x0, symName: __ZN4core5slice20copy_from_slice_impl17hc32f96c00f461061E, symObjAddr: 0x0, symBinAddr: 0x14718, symSize: 0xAC }
  - { offset: 0x81B66, size: 0x8, addend: 0x0, symName: __ZN4core5slice20copy_from_slice_impl17hc32f96c00f461061E, symObjAddr: 0x0, symBinAddr: 0x14718, symSize: 0xAC }
  - { offset: 0x82C4C, size: 0x8, addend: 0x0, symName: '__ZN103_$LT$pyo3..instance..Bound$LT$pyo3..types..any..PyAny$GT$$u20$as$u20$pyo3..types..any..PyAnyMethods$GT$18downcast_unchecked17h2366b6ab57772a76E', symObjAddr: 0x0, symBinAddr: 0x147C4, symSize: 0x74 }
  - { offset: 0x83468, size: 0x8, addend: 0x0, symName: '__ZN4core5slice29_$LT$impl$u20$$u5b$T$u5d$$GT$4iter17h0c872548c23e7df6E', symObjAddr: 0xB1C, symBinAddr: 0x152E0, symSize: 0x28 }
  - { offset: 0x853BA, size: 0x8, addend: 0x0, symName: '__ZN103_$LT$pyo3..instance..Bound$LT$pyo3..types..any..PyAny$GT$$u20$as$u20$pyo3..types..any..PyAnyMethods$GT$18downcast_unchecked17h2366b6ab57772a76E', symObjAddr: 0x0, symBinAddr: 0x147C4, symSize: 0x74 }
  - { offset: 0x853F1, size: 0x8, addend: 0x0, symName: '__ZN103_$LT$pyo3..instance..Bound$LT$pyo3..types..any..PyAny$GT$$u20$as$u20$pyo3..types..any..PyAnyMethods$GT$18downcast_unchecked17h582cb3785ac1a02cE', symObjAddr: 0x74, symBinAddr: 0x14838, symSize: 0x74 }
  - { offset: 0x85428, size: 0x8, addend: 0x0, symName: '__ZN103_$LT$pyo3..instance..Bound$LT$pyo3..types..any..PyAny$GT$$u20$as$u20$pyo3..types..any..PyAnyMethods$GT$18downcast_unchecked17he6d21ad6168f7d0aE', symObjAddr: 0xE8, symBinAddr: 0x148AC, symSize: 0x74 }
  - { offset: 0x8545F, size: 0x8, addend: 0x0, symName: '__ZN103_$LT$pyo3..instance..Bound$LT$pyo3..types..any..PyAny$GT$$u20$as$u20$pyo3..types..any..PyAnyMethods$GT$18downcast_unchecked17hfc449a1cdbc4d10fE', symObjAddr: 0x15C, symBinAddr: 0x14920, symSize: 0x74 }
  - { offset: 0x85496, size: 0x8, addend: 0x0, symName: '__ZN103_$LT$pyo3..instance..Bound$LT$pyo3..types..any..PyAny$GT$$u20$as$u20$pyo3..types..any..PyAnyMethods$GT$23downcast_into_unchecked17h4a821847511e5a0cE', symObjAddr: 0x1D0, symBinAddr: 0x14994, symSize: 0x14 }
  - { offset: 0x854CD, size: 0x8, addend: 0x0, symName: '__ZN103_$LT$pyo3..instance..Bound$LT$pyo3..types..any..PyAny$GT$$u20$as$u20$pyo3..types..any..PyAnyMethods$GT$23downcast_into_unchecked17h7db5908808e00625E', symObjAddr: 0x1E4, symBinAddr: 0x149A8, symSize: 0x14 }
  - { offset: 0x85504, size: 0x8, addend: 0x0, symName: '__ZN103_$LT$pyo3..instance..Bound$LT$pyo3..types..any..PyAny$GT$$u20$as$u20$pyo3..types..any..PyAnyMethods$GT$23downcast_into_unchecked17h84100cf1e4f34862E', symObjAddr: 0x1F8, symBinAddr: 0x149BC, symSize: 0x14 }
  - { offset: 0x8553B, size: 0x8, addend: 0x0, symName: '__ZN103_$LT$pyo3..instance..Bound$LT$pyo3..types..any..PyAny$GT$$u20$as$u20$pyo3..types..any..PyAnyMethods$GT$23downcast_into_unchecked17hbcc74975d0939325E', symObjAddr: 0x20C, symBinAddr: 0x149D0, symSize: 0x14 }
  - { offset: 0x85572, size: 0x8, addend: 0x0, symName: '__ZN103_$LT$pyo3..instance..Bound$LT$pyo3..types..any..PyAny$GT$$u20$as$u20$pyo3..types..any..PyAnyMethods$GT$7extract17h6d634b3690c2c187E', symObjAddr: 0x220, symBinAddr: 0x149E4, symSize: 0x30 }
  - { offset: 0x855A9, size: 0x8, addend: 0x0, symName: '__ZN103_$LT$pyo3..instance..Bound$LT$pyo3..types..any..PyAny$GT$$u20$as$u20$pyo3..types..any..PyAnyMethods$GT$7extract17h9f6237dacc7fd371E', symObjAddr: 0x250, symBinAddr: 0x14A14, symSize: 0x30 }
  - { offset: 0x855E0, size: 0x8, addend: 0x0, symName: '__ZN103_$LT$pyo3..instance..Bound$LT$pyo3..types..any..PyAny$GT$$u20$as$u20$pyo3..types..any..PyAnyMethods$GT$7extract17hc15da106a9b28307E', symObjAddr: 0x280, symBinAddr: 0x14A44, symSize: 0x30 }
  - { offset: 0x85617, size: 0x8, addend: 0x0, symName: '__ZN103_$LT$pyo3..instance..Bound$LT$pyo3..types..any..PyAny$GT$$u20$as$u20$pyo3..types..any..PyAnyMethods$GT$7extract17he9b8a2189a986980E', symObjAddr: 0x2B0, symBinAddr: 0x14A74, symSize: 0x30 }
  - { offset: 0x8564E, size: 0x8, addend: 0x0, symName: '__ZN103_$LT$pyo3..instance..Bound$LT$pyo3..types..any..PyAny$GT$$u20$as$u20$pyo3..types..any..PyAnyMethods$GT$7extract17hed1b46b6fcdc9b10E', symObjAddr: 0x2E0, symBinAddr: 0x14AA4, symSize: 0x30 }
  - { offset: 0x85685, size: 0x8, addend: 0x0, symName: '__ZN103_$LT$pyo3..instance..Bound$LT$pyo3..types..any..PyAny$GT$$u20$as$u20$pyo3..types..any..PyAnyMethods$GT$8downcast17h424c7a6f82416f6bE', symObjAddr: 0x310, symBinAddr: 0x14AD4, symSize: 0x84 }
  - { offset: 0x856BC, size: 0x8, addend: 0x0, symName: '__ZN103_$LT$pyo3..instance..Bound$LT$pyo3..types..any..PyAny$GT$$u20$as$u20$pyo3..types..any..PyAnyMethods$GT$8downcast17h7476dc560a174061E', symObjAddr: 0x394, symBinAddr: 0x14B58, symSize: 0x84 }
  - { offset: 0x856F3, size: 0x8, addend: 0x0, symName: '__ZN103_$LT$pyo3..instance..Bound$LT$pyo3..types..any..PyAny$GT$$u20$as$u20$pyo3..types..any..PyAnyMethods$GT$8downcast17h90ee661273e0b662E', symObjAddr: 0x418, symBinAddr: 0x14BDC, symSize: 0x84 }
  - { offset: 0x8572A, size: 0x8, addend: 0x0, symName: '__ZN103_$LT$pyo3..instance..Bound$LT$pyo3..types..any..PyAny$GT$$u20$as$u20$pyo3..types..any..PyAnyMethods$GT$8downcast17hbc431845468e692cE', symObjAddr: 0x49C, symBinAddr: 0x14C60, symSize: 0x84 }
  - { offset: 0x85782, size: 0x8, addend: 0x0, symName: '__ZN115_$LT$pyo3..instance..Bound$LT$pyo3..types..module..PyModule$GT$$u20$as$u20$pyo3..types..module..PyModuleMethods$GT$3add17h0ccc21850ed1034dE', symObjAddr: 0x520, symBinAddr: 0x14CE4, symSize: 0x14C }
  - { offset: 0x857F6, size: 0x8, addend: 0x0, symName: '__ZN115_$LT$pyo3..instance..Bound$LT$pyo3..types..module..PyModule$GT$$u20$as$u20$pyo3..types..module..PyModuleMethods$GT$3add17h699a4891f916e9b6E', symObjAddr: 0x66C, symBinAddr: 0x14E30, symSize: 0x140 }
  - { offset: 0x8586A, size: 0x8, addend: 0x0, symName: '__ZN115_$LT$pyo3..instance..Bound$LT$pyo3..types..module..PyModule$GT$$u20$as$u20$pyo3..types..module..PyModuleMethods$GT$9add_class17h2e940fb8741f1705E', symObjAddr: 0x7AC, symBinAddr: 0x14F70, symSize: 0xB8 }
  - { offset: 0x858DE, size: 0x8, addend: 0x0, symName: '__ZN115_$LT$pyo3..instance..Bound$LT$pyo3..types..module..PyModule$GT$$u20$as$u20$pyo3..types..module..PyModuleMethods$GT$9add_class17h71e9cdefab25eefcE', symObjAddr: 0x864, symBinAddr: 0x15028, symSize: 0xB8 }
  - { offset: 0x85952, size: 0x8, addend: 0x0, symName: '__ZN115_$LT$pyo3..instance..Bound$LT$pyo3..types..module..PyModule$GT$$u20$as$u20$pyo3..types..module..PyModuleMethods$GT$9add_class17haeaca2ce7c10c2e9E', symObjAddr: 0x91C, symBinAddr: 0x150E0, symSize: 0xB8 }
  - { offset: 0x859C6, size: 0x8, addend: 0x0, symName: '__ZN115_$LT$pyo3..instance..Bound$LT$pyo3..types..module..PyModule$GT$$u20$as$u20$pyo3..types..module..PyModuleMethods$GT$9add_class17hcb8f653213a92435E', symObjAddr: 0x9D4, symBinAddr: 0x15198, symSize: 0xB8 }
  - { offset: 0x85AAD, size: 0x8, addend: 0x0, symName: '__ZN129_$LT$pyo3..instance..Py$LT$T$GT$$u20$as$u20$pyo3..conversion..IntoPy$LT$pyo3..instance..Py$LT$pyo3..types..any..PyAny$GT$$GT$$GT$7into_py17h187f6c6ea2457f80E', symObjAddr: 0xA8C, symBinAddr: 0x15250, symSize: 0x24 }
  - { offset: 0x85AFF, size: 0x8, addend: 0x0, symName: '__ZN129_$LT$pyo3..instance..Py$LT$T$GT$$u20$as$u20$pyo3..conversion..IntoPy$LT$pyo3..instance..Py$LT$pyo3..types..any..PyAny$GT$$GT$$GT$7into_py17h39559fb811c868c2E', symObjAddr: 0xAB0, symBinAddr: 0x15274, symSize: 0x24 }
  - { offset: 0x85B51, size: 0x8, addend: 0x0, symName: '__ZN129_$LT$pyo3..instance..Py$LT$T$GT$$u20$as$u20$pyo3..conversion..IntoPy$LT$pyo3..instance..Py$LT$pyo3..types..any..PyAny$GT$$GT$$GT$7into_py17h3cb9fe078aaa9712E', symObjAddr: 0xAD4, symBinAddr: 0x15298, symSize: 0x24 }
  - { offset: 0x85BA3, size: 0x8, addend: 0x0, symName: '__ZN129_$LT$pyo3..instance..Py$LT$T$GT$$u20$as$u20$pyo3..conversion..IntoPy$LT$pyo3..instance..Py$LT$pyo3..types..any..PyAny$GT$$GT$$GT$7into_py17ha18a432d80e4bd8aE', symObjAddr: 0xAF8, symBinAddr: 0x152BC, symSize: 0x24 }
  - { offset: 0x86451, size: 0x8, addend: 0x0, symName: '__ZN4pyo38instance39Borrowed$LT$pyo3..types..any..PyAny$GT$15from_ptr_or_opt28_$u7b$$u7b$closure$u7d$$u7d$17h7467edb6e1b93488E', symObjAddr: 0x1938, symBinAddr: 0x160FC, symSize: 0x20 }
  - { offset: 0x865D7, size: 0x8, addend: 0x0, symName: '__ZN69_$LT$pyo3..instance..Bound$LT$T$GT$$u20$as$u20$core..clone..Clone$GT$5clone17h442d668be5286886E', symObjAddr: 0x19A8, symBinAddr: 0x1616C, symSize: 0x34 }
  - { offset: 0x8660E, size: 0x8, addend: 0x0, symName: '__ZN69_$LT$pyo3..instance..Bound$LT$T$GT$$u20$as$u20$core..clone..Clone$GT$5clone17ha2b2323f5852ea12E', symObjAddr: 0x19DC, symBinAddr: 0x161A0, symSize: 0x34 }
  - { offset: 0x86645, size: 0x8, addend: 0x0, symName: '__ZN69_$LT$pyo3..instance..Bound$LT$T$GT$$u20$as$u20$core..clone..Clone$GT$5clone17hea459d3d29325f44E', symObjAddr: 0x1A10, symBinAddr: 0x161D4, symSize: 0x34 }
  - { offset: 0x8667C, size: 0x8, addend: 0x0, symName: '__ZN69_$LT$pyo3..instance..Bound$LT$T$GT$$u20$as$u20$core..clone..Clone$GT$5clone17hfe79a6805107d692E', symObjAddr: 0x1A44, symBinAddr: 0x16208, symSize: 0x34 }
  - { offset: 0x8676C, size: 0x8, addend: 0x0, symName: '__ZN4pyo35impl_9pymethods133_$LT$impl$u20$core..convert..From$LT$pyo3..impl_..pymethods..BoundRef$LT$T$GT$$GT$$u20$for$u20$$RF$pyo3..instance..Bound$LT$T$GT$$GT$4from17h2a191330de86f3a6E', symObjAddr: 0xB44, symBinAddr: 0x15308, symSize: 0x14 }
  - { offset: 0x8686E, size: 0x8, addend: 0x0, symName: '__ZN56_$LT$T$u20$as$u20$pyo3..impl_..wrap..OkWrap$LT$T$GT$$GT$4wrap17hc4084f484dc80ba4E', symObjAddr: 0x1994, symBinAddr: 0x16158, symSize: 0x14 }
  - { offset: 0x87540, size: 0x8, addend: 0x0, symName: '__ZN4pyo38instance11Py$LT$T$GT$10into_bound17h0a44c4fa82dee3faE', symObjAddr: 0xB58, symBinAddr: 0x1531C, symSize: 0x1C }
  - { offset: 0x87857, size: 0x8, addend: 0x0, symName: '__ZN4pyo38instance11Py$LT$T$GT$10into_bound17h1c624d558b199f5cE', symObjAddr: 0xB74, symBinAddr: 0x15338, symSize: 0x1C }
  - { offset: 0x8789E, size: 0x8, addend: 0x0, symName: '__ZN4pyo38instance11Py$LT$T$GT$10into_bound17ha93fd414b7cd8ab1E', symObjAddr: 0xB90, symBinAddr: 0x15354, symSize: 0x1C }
  - { offset: 0x878E5, size: 0x8, addend: 0x0, symName: '__ZN4pyo38instance11Py$LT$T$GT$10into_bound17hc5f4971675986607E', symObjAddr: 0xBAC, symBinAddr: 0x15370, symSize: 0x1C }
  - { offset: 0x8792C, size: 0x8, addend: 0x0, symName: '__ZN4pyo38instance11Py$LT$T$GT$13from_non_null17h07813b39f7d31da5E', symObjAddr: 0xBC8, symBinAddr: 0x1538C, symSize: 0x14 }
  - { offset: 0x87958, size: 0x8, addend: 0x0, symName: '__ZN4pyo38instance11Py$LT$T$GT$13from_non_null17h49b79cada5fbbe89E', symObjAddr: 0xBDC, symBinAddr: 0x153A0, symSize: 0x14 }
  - { offset: 0x87984, size: 0x8, addend: 0x0, symName: '__ZN4pyo38instance11Py$LT$T$GT$13from_non_null17h742fb80551512623E', symObjAddr: 0xBF0, symBinAddr: 0x153B4, symSize: 0x14 }
  - { offset: 0x879B0, size: 0x8, addend: 0x0, symName: '__ZN4pyo38instance11Py$LT$T$GT$13from_non_null17haea34de62eab6ed8E', symObjAddr: 0xC04, symBinAddr: 0x153C8, symSize: 0x14 }
  - { offset: 0x879F6, size: 0x8, addend: 0x0, symName: '__ZN4pyo38instance11Py$LT$T$GT$16get_class_object17haa35292f1be46612E', symObjAddr: 0xC18, symBinAddr: 0x153DC, symSize: 0x78 }
  - { offset: 0x87A52, size: 0x8, addend: 0x0, symName: '__ZN4pyo38instance11Py$LT$T$GT$16get_class_object17hd8fa9a4e23e8b03eE', symObjAddr: 0xC90, symBinAddr: 0x15454, symSize: 0x78 }
  - { offset: 0x87AB5, size: 0x8, addend: 0x0, symName: '__ZN4pyo38instance11Py$LT$T$GT$16get_class_object17hde00687ec8f2436dE', symObjAddr: 0xD08, symBinAddr: 0x154CC, symSize: 0x78 }
  - { offset: 0x87B11, size: 0x8, addend: 0x0, symName: '__ZN4pyo38instance11Py$LT$T$GT$16get_class_object17hf0ac65d9150a8376E', symObjAddr: 0xD80, symBinAddr: 0x15544, symSize: 0x78 }
  - { offset: 0x87B9B, size: 0x8, addend: 0x0, symName: '__ZN4pyo38instance11Py$LT$T$GT$3new17h49b97bd62ddf8197E', symObjAddr: 0xDF8, symBinAddr: 0x155BC, symSize: 0x50 }
  - { offset: 0x87BEC, size: 0x8, addend: 0x0, symName: '__ZN4pyo38instance11Py$LT$T$GT$3new17h5ac855c4baf848e3E', symObjAddr: 0xE48, symBinAddr: 0x1560C, symSize: 0x50 }
  - { offset: 0x87C3D, size: 0x8, addend: 0x0, symName: '__ZN4pyo38instance11Py$LT$T$GT$3new17h7baeb63aa7f16139E', symObjAddr: 0xE98, symBinAddr: 0x1565C, symSize: 0x4C }
  - { offset: 0x87C8E, size: 0x8, addend: 0x0, symName: '__ZN4pyo38instance11Py$LT$T$GT$3new17hf80ebda68e01a769E', symObjAddr: 0xEE4, symBinAddr: 0x156A8, symSize: 0x50 }
  - { offset: 0x87CDF, size: 0x8, addend: 0x0, symName: '__ZN4pyo38instance11Py$LT$T$GT$6as_ptr17h28b844a977e31c6aE', symObjAddr: 0xF34, symBinAddr: 0x156F8, symSize: 0x1C }
  - { offset: 0x87D0B, size: 0x8, addend: 0x0, symName: '__ZN4pyo38instance11Py$LT$T$GT$6as_ptr17h2ff02a9cc7cc387bE', symObjAddr: 0xF50, symBinAddr: 0x15714, symSize: 0x1C }
  - { offset: 0x87D37, size: 0x8, addend: 0x0, symName: '__ZN4pyo38instance11Py$LT$T$GT$6as_ptr17h426caf27376effe2E', symObjAddr: 0xF6C, symBinAddr: 0x15730, symSize: 0x1C }
  - { offset: 0x87D63, size: 0x8, addend: 0x0, symName: '__ZN4pyo38instance11Py$LT$T$GT$6as_ptr17hc2d04f916858aabbE', symObjAddr: 0xF88, symBinAddr: 0x1574C, symSize: 0x1C }
  - { offset: 0x87D8F, size: 0x8, addend: 0x0, symName: '__ZN4pyo38instance11Py$LT$T$GT$8into_any17h24bafd4542b2cae4E', symObjAddr: 0xFA4, symBinAddr: 0x15768, symSize: 0x3C }
  - { offset: 0x87DBB, size: 0x8, addend: 0x0, symName: '__ZN4pyo38instance11Py$LT$T$GT$8into_any17h9d83925544b65705E', symObjAddr: 0xFE0, symBinAddr: 0x157A4, symSize: 0x3C }
  - { offset: 0x87DE7, size: 0x8, addend: 0x0, symName: '__ZN4pyo38instance11Py$LT$T$GT$8into_any17hc917c4d8c52a0082E', symObjAddr: 0x101C, symBinAddr: 0x157E0, symSize: 0x3C }
  - { offset: 0x87E13, size: 0x8, addend: 0x0, symName: '__ZN4pyo38instance11Py$LT$T$GT$8into_any17hf293a857e317d99aE', symObjAddr: 0x1058, symBinAddr: 0x1581C, symSize: 0x3C }
  - { offset: 0x87E3F, size: 0x8, addend: 0x0, symName: '__ZN4pyo38instance11Py$LT$T$GT$8into_ptr17h5701bc327eb19fbbE', symObjAddr: 0x1094, symBinAddr: 0x15858, symSize: 0x30 }
  - { offset: 0x87E6B, size: 0x8, addend: 0x0, symName: '__ZN4pyo38instance11Py$LT$T$GT$9clone_ref17h150aa33f1386c8bbE', symObjAddr: 0x10C4, symBinAddr: 0x15888, symSize: 0x100 }
  - { offset: 0x87F1A, size: 0x8, addend: 0x0, symName: '__ZN4pyo38instance11Py$LT$T$GT$9clone_ref17h8352fca189b1aec0E', symObjAddr: 0x11C4, symBinAddr: 0x15988, symSize: 0x100 }
  - { offset: 0x87FC9, size: 0x8, addend: 0x0, symName: '__ZN4pyo38instance11Py$LT$T$GT$9clone_ref17ha64e011aa16efc92E', symObjAddr: 0x12C4, symBinAddr: 0x15A88, symSize: 0x100 }
  - { offset: 0x88078, size: 0x8, addend: 0x0, symName: '__ZN4pyo38instance11Py$LT$T$GT$9clone_ref17had545caae44921ffE', symObjAddr: 0x13C4, symBinAddr: 0x15B88, symSize: 0x100 }
  - { offset: 0x88134, size: 0x8, addend: 0x0, symName: '__ZN4pyo38instance14Bound$LT$T$GT$10try_borrow17h0dde30494b8fd3baE', symObjAddr: 0x14C4, symBinAddr: 0x15C88, symSize: 0x24 }
  - { offset: 0x8816D, size: 0x8, addend: 0x0, symName: '__ZN4pyo38instance14Bound$LT$T$GT$10try_borrow17h8c8046b331683804E', symObjAddr: 0x14E8, symBinAddr: 0x15CAC, symSize: 0x24 }
  - { offset: 0x881A6, size: 0x8, addend: 0x0, symName: '__ZN4pyo38instance14Bound$LT$T$GT$10try_borrow17h8f8a61c0b710d0ddE', symObjAddr: 0x150C, symBinAddr: 0x15CD0, symSize: 0x24 }
  - { offset: 0x881DF, size: 0x8, addend: 0x0, symName: '__ZN4pyo38instance14Bound$LT$T$GT$10try_borrow17hc38e128d5acc11e7E', symObjAddr: 0x1530, symBinAddr: 0x15CF4, symSize: 0x24 }
  - { offset: 0x8820B, size: 0x8, addend: 0x0, symName: '__ZN4pyo38instance14Bound$LT$T$GT$16get_class_object17h560eebd4d455d2fdE', symObjAddr: 0x1554, symBinAddr: 0x15D18, symSize: 0x2C }
  - { offset: 0x88237, size: 0x8, addend: 0x0, symName: '__ZN4pyo38instance14Bound$LT$T$GT$16get_class_object17h7130ac8b6944efceE', symObjAddr: 0x1580, symBinAddr: 0x15D44, symSize: 0x2C }
  - { offset: 0x88263, size: 0x8, addend: 0x0, symName: '__ZN4pyo38instance14Bound$LT$T$GT$16get_class_object17h8c78bee354769a35E', symObjAddr: 0x15AC, symBinAddr: 0x15D70, symSize: 0x2C }
  - { offset: 0x8828F, size: 0x8, addend: 0x0, symName: '__ZN4pyo38instance14Bound$LT$T$GT$16get_class_object17hd7d02ada2db80165E', symObjAddr: 0x15D8, symBinAddr: 0x15D9C, symSize: 0x2C }
  - { offset: 0x882BB, size: 0x8, addend: 0x0, symName: '__ZN4pyo38instance14Bound$LT$T$GT$3new17h2fd9e27e5ee2cf77E', symObjAddr: 0x1604, symBinAddr: 0x15DC8, symSize: 0x60 }
  - { offset: 0x8830B, size: 0x8, addend: 0x0, symName: '__ZN4pyo38instance14Bound$LT$T$GT$3new17h8388c7c58566eb80E', symObjAddr: 0x1664, symBinAddr: 0x15E28, symSize: 0x58 }
  - { offset: 0x8835B, size: 0x8, addend: 0x0, symName: '__ZN4pyo38instance14Bound$LT$T$GT$3new17h9295cb06de15fc90E', symObjAddr: 0x16BC, symBinAddr: 0x15E80, symSize: 0x54 }
  - { offset: 0x883A9, size: 0x8, addend: 0x0, symName: '__ZN4pyo38instance14Bound$LT$T$GT$3new17hbab194f8cfa60a2eE', symObjAddr: 0x1710, symBinAddr: 0x15ED4, symSize: 0x58 }
  - { offset: 0x883F9, size: 0x8, addend: 0x0, symName: '__ZN4pyo38instance14Bound$LT$T$GT$6as_ptr17h0b27d5fc1b674686E', symObjAddr: 0x1768, symBinAddr: 0x15F2C, symSize: 0x2C }
  - { offset: 0x88425, size: 0x8, addend: 0x0, symName: '__ZN4pyo38instance14Bound$LT$T$GT$6as_ptr17h81d243d18b22558cE', symObjAddr: 0x1794, symBinAddr: 0x15F58, symSize: 0x2C }
  - { offset: 0x88451, size: 0x8, addend: 0x0, symName: '__ZN4pyo38instance14Bound$LT$T$GT$6as_ptr17hb45eaade6a111ae1E', symObjAddr: 0x17C0, symBinAddr: 0x15F84, symSize: 0x2C }
  - { offset: 0x8847D, size: 0x8, addend: 0x0, symName: '__ZN4pyo38instance14Bound$LT$T$GT$6as_ptr17hb5d2f53f6a0ddcb3E', symObjAddr: 0x17EC, symBinAddr: 0x15FB0, symSize: 0x2C }
  - { offset: 0x884A9, size: 0x8, addend: 0x0, symName: '__ZN4pyo38instance14Bound$LT$T$GT$6unbind17h3f1ae241ee59880bE', symObjAddr: 0x1818, symBinAddr: 0x15FDC, symSize: 0x48 }
  - { offset: 0x884F3, size: 0x8, addend: 0x0, symName: '__ZN4pyo38instance14Bound$LT$T$GT$6unbind17h719bc4b4fbfa6e9cE', symObjAddr: 0x1860, symBinAddr: 0x16024, symSize: 0x48 }
  - { offset: 0x8853D, size: 0x8, addend: 0x0, symName: '__ZN4pyo38instance14Bound$LT$T$GT$6unbind17h73ad867a3fe270bfE', symObjAddr: 0x18A8, symBinAddr: 0x1606C, symSize: 0x48 }
  - { offset: 0x88587, size: 0x8, addend: 0x0, symName: '__ZN4pyo38instance14Bound$LT$T$GT$6unbind17h8d7895188c40220eE', symObjAddr: 0x18F0, symBinAddr: 0x160B4, symSize: 0x48 }
  - { offset: 0x885EB, size: 0x8, addend: 0x0, symName: '__ZN4pyo38instance39Borrowed$LT$pyo3..types..any..PyAny$GT$18downcast_unchecked17h941f4093c1323ba9E', symObjAddr: 0x1958, symBinAddr: 0x1611C, symSize: 0x14 }
  - { offset: 0x88624, size: 0x8, addend: 0x0, symName: '__ZN4pyo38internal8get_slot78_$LT$impl$u20$pyo3..instance..Bound$LT$pyo3..types..typeobject..PyType$GT$$GT$8get_slot17h6064ea50441bbbb9E', symObjAddr: 0x196C, symBinAddr: 0x16130, symSize: 0x28 }
  - { offset: 0x88740, size: 0x8, addend: 0x0, symName: __ZN4core9ub_checks23maybe_is_nonoverlapping7runtime17h1f8abb46639d70b4E, symObjAddr: 0x0, symBinAddr: 0x1623C, symSize: 0xD8 }
  - { offset: 0x888C5, size: 0x8, addend: 0x0, symName: __ZN4core9ub_checks23maybe_is_nonoverlapping7runtime17h1f8abb46639d70b4E, symObjAddr: 0x0, symBinAddr: 0x1623C, symSize: 0xD8 }
  - { offset: 0x88AD8, size: 0x8, addend: 0x0, symName: '__ZN4core3ptr9const_ptr33_$LT$impl$u20$$BP$const$u20$T$GT$20offset_from_unsigned18precondition_check17hd9c3836c620957acE', symObjAddr: 0x0, symBinAddr: 0x16314, symSize: 0x60 }
  - { offset: 0x88AFE, size: 0x8, addend: 0x0, symName: '__ZN4core3ptr9const_ptr33_$LT$impl$u20$$BP$const$u20$T$GT$20offset_from_unsigned18precondition_check17hd9c3836c620957acE', symObjAddr: 0x0, symBinAddr: 0x16314, symSize: 0x60 }
  - { offset: 0x88BE7, size: 0x8, addend: 0x0, symName: '__ZN4core3ptr9const_ptr33_$LT$impl$u20$$BP$const$u20$T$GT$6offset18precondition_check17h62781691f4c76376E', symObjAddr: 0x60, symBinAddr: 0x16374, symSize: 0xC4 }
  - { offset: 0x88FCE, size: 0x8, addend: 0x0, symName: '__ZN51_$LT$T$u20$as$u20$core..borrow..Borrow$LT$T$GT$$GT$6borrow17hddeeefec8a1c09adE', symObjAddr: 0x0, symBinAddr: 0x16438, symSize: 0x14 }
  - { offset: 0x88FEA, size: 0x8, addend: 0x0, symName: '__ZN51_$LT$T$u20$as$u20$core..borrow..Borrow$LT$T$GT$$GT$6borrow17hddeeefec8a1c09adE', symObjAddr: 0x0, symBinAddr: 0x16438, symSize: 0x14 }
  - { offset: 0x89072, size: 0x8, addend: 0x0, symName: __ZN4core3cmp3Ord3max17h45e9a1e9041f13c6E, symObjAddr: 0x0, symBinAddr: 0x16460, symSize: 0x74 }
  - { offset: 0x890F8, size: 0x8, addend: 0x0, symName: __ZN4core3cmp3Ord3max17h45e9a1e9041f13c6E, symObjAddr: 0x0, symBinAddr: 0x16460, symSize: 0x74 }
  - { offset: 0x89165, size: 0x8, addend: 0x0, symName: __ZN4core3cmp6max_by17he9c7afe2dcdbd869E, symObjAddr: 0x74, symBinAddr: 0x164D4, symSize: 0xB4 }
  - { offset: 0x891F6, size: 0x8, addend: 0x0, symName: '__ZN4core3ops8function5impls80_$LT$impl$u20$core..ops..function..FnOnce$LT$A$GT$$u20$for$u20$$RF$mut$u20$F$GT$9call_once17h13a730a688737783E', symObjAddr: 0x128, symBinAddr: 0x16588, symSize: 0x34 }
  - { offset: 0x892F9, size: 0x8, addend: 0x0, symName: '__ZN75_$LT$usize$u20$as$u20$core..slice..index..SliceIndex$LT$$u5b$T$u5d$$GT$$GT$5index17h98b85717d91a4ab7E', symObjAddr: 0x0, symBinAddr: 0x165BC, symSize: 0x5C }
  - { offset: 0x89417, size: 0x8, addend: 0x0, symName: '__ZN75_$LT$usize$u20$as$u20$core..slice..index..SliceIndex$LT$$u5b$T$u5d$$GT$$GT$5index17h98b85717d91a4ab7E', symObjAddr: 0x0, symBinAddr: 0x165BC, symSize: 0x5C }
  - { offset: 0x8945D, size: 0x8, addend: 0x0, symName: '__ZN75_$LT$usize$u20$as$u20$core..slice..index..SliceIndex$LT$$u5b$T$u5d$$GT$$GT$5index17hd407d830e917ef84E', symObjAddr: 0x5C, symBinAddr: 0x16618, symSize: 0x64 }
  - { offset: 0x89563, size: 0x8, addend: 0x0, symName: '__ZN4core4iter5range101_$LT$impl$u20$core..iter..traits..iterator..Iterator$u20$for$u20$core..ops..range..Range$LT$A$GT$$GT$4next17h3c1cf96df2a92773E', symObjAddr: 0x70, symBinAddr: 0x1667C, symSize: 0x24 }
  - { offset: 0x8959A, size: 0x8, addend: 0x0, symName: '__ZN4core4iter5range101_$LT$impl$u20$core..iter..traits..iterator..Iterator$u20$for$u20$core..ops..range..Range$LT$A$GT$$GT$4next17hc93cb4a1a8ab6d14E', symObjAddr: 0x94, symBinAddr: 0x166A0, symSize: 0x24 }
  - { offset: 0x895D7, size: 0x8, addend: 0x0, symName: '__ZN89_$LT$core..ops..range..Range$LT$T$GT$$u20$as$u20$core..iter..range..RangeIteratorImpl$GT$9spec_next17hc77f4ea6c4b76e84E', symObjAddr: 0x4A8, symBinAddr: 0x166EC, symSize: 0x94 }
  - { offset: 0x89652, size: 0x8, addend: 0x0, symName: '__ZN89_$LT$core..ops..range..Range$LT$T$GT$$u20$as$u20$core..iter..range..RangeIteratorImpl$GT$9spec_next17hd467ecfe415f2b05E', symObjAddr: 0x53C, symBinAddr: 0x16780, symSize: 0x90 }
  - { offset: 0x896DE, size: 0x8, addend: 0x0, symName: '__ZN63_$LT$I$u20$as$u20$core..iter..traits..collect..IntoIterator$GT$9into_iter17h026175808eb87fe9E', symObjAddr: 0x480, symBinAddr: 0x166C4, symSize: 0x14 }
  - { offset: 0x89715, size: 0x8, addend: 0x0, symName: '__ZN63_$LT$I$u20$as$u20$core..iter..traits..collect..IntoIterator$GT$9into_iter17h057c8511a30d8238E', symObjAddr: 0x494, symBinAddr: 0x166D8, symSize: 0x14 }
  - { offset: 0x8996A, size: 0x8, addend: 0x0, symName: __ZN4core5alloc6layout6Layout25from_size_align_unchecked18precondition_check17h438e420b22aa40cdE, symObjAddr: 0x0, symBinAddr: 0x16810, symSize: 0xBC }
  - { offset: 0x89D92, size: 0x8, addend: 0x0, symName: __ZN4core5alloc6layout6Layout25from_size_align_unchecked18precondition_check17h438e420b22aa40cdE, symObjAddr: 0x0, symBinAddr: 0x16810, symSize: 0xBC }
  - { offset: 0x89FF5, size: 0x8, addend: 0x0, symName: __ZN4core3ops8function5FnMut8call_mut17h8a1c0ab2ba3f0b19E, symObjAddr: 0x0, symBinAddr: 0x168CC, symSize: 0x30 }
  - { offset: 0x8A03A, size: 0x8, addend: 0x0, symName: __ZN4core3ops8function5FnMut8call_mut17h8a1c0ab2ba3f0b19E, symObjAddr: 0x0, symBinAddr: 0x168CC, symSize: 0x30 }
  - { offset: 0x8A086, size: 0x8, addend: 0x0, symName: '__ZN4core3ptr301drop_in_place$LT$alloc..vec..Vec$LT$planck_core..template..BufExpr$GT$..extend_trusted$LT$core..iter..adapters..map..Map$LT$core..slice..iter..Iter$LT$planck_core..plan..BufEntry$GT$$C$planck_core..template..PlanTemplate..from_plan..$u7b$$u7b$closure$u7d$$u7d$$GT$$GT$..$u7b$$u7b$closure$u7d$$u7d$$GT$17h6cf0ee67967c4776E', symObjAddr: 0xC0, symBinAddr: 0x168FC, symSize: 0x24 }
  - { offset: 0x8A0B5, size: 0x8, addend: 0x0, symName: '__ZN4core3ptr303drop_in_place$LT$alloc..vec..Vec$LT$planck_core..plan..BufEntry$GT$..extend_trusted$LT$core..iter..adapters..map..Map$LT$core..slice..iter..Iter$LT$planck_core..template..BufExpr$GT$$C$planck_core..template..PlanTemplate..instantiate..$u7b$$u7b$closure$u7d$$u7d$$GT$$GT$..$u7b$$u7b$closure$u7d$$u7d$$GT$17ha58b20653385b113E', symObjAddr: 0xE4, symBinAddr: 0x16920, symSize: 0x24 }
  - { offset: 0x8A0E4, size: 0x8, addend: 0x0, symName: '__ZN4core3ptr424drop_in_place$LT$core..iter..traits..iterator..Iterator..for_each..call$LT$planck_core..plan..BufEntry$C$alloc..vec..Vec$LT$planck_core..plan..BufEntry$GT$..extend_trusted$LT$core..iter..adapters..map..Map$LT$core..slice..iter..Iter$LT$planck_core..template..BufExpr$GT$$C$planck_core..template..PlanTemplate..instantiate..$u7b$$u7b$closure$u7d$$u7d$$GT$$GT$..$u7b$$u7b$closure$u7d$$u7d$$GT$..$u7b$$u7b$closure$u7d$$u7d$$GT$17hce065c98989d29d0E', symObjAddr: 0x150, symBinAddr: 0x16944, symSize: 0x24 }
  - { offset: 0x8A113, size: 0x8, addend: 0x0, symName: '__ZN4core3ptr425drop_in_place$LT$core..iter..traits..iterator..Iterator..for_each..call$LT$planck_core..template..BufExpr$C$alloc..vec..Vec$LT$planck_core..template..BufExpr$GT$..extend_trusted$LT$core..iter..adapters..map..Map$LT$core..slice..iter..Iter$LT$planck_core..plan..BufEntry$GT$$C$planck_core..template..PlanTemplate..from_plan..$u7b$$u7b$closure$u7d$$u7d$$GT$$GT$..$u7b$$u7b$closure$u7d$$u7d$$GT$..$u7b$$u7b$closure$u7d$$u7d$$GT$17heec991d839b3a560E', symObjAddr: 0x174, symBinAddr: 0x16968, symSize: 0x24 }
  - { offset: 0x8A142, size: 0x8, addend: 0x0, symName: '__ZN4core3ptr46drop_in_place$LT$alloc..vec..Vec$LT$u8$GT$$GT$17h0ca79f4b83558ebcE', symObjAddr: 0x198, symBinAddr: 0x1698C, symSize: 0x5C }
  - { offset: 0x8A171, size: 0x8, addend: 0x0, symName: '__ZN4core3ptr53drop_in_place$LT$alloc..raw_vec..RawVec$LT$u8$GT$$GT$17h06a26a235905512cE', symObjAddr: 0x250, symBinAddr: 0x169E8, symSize: 0x24 }
  - { offset: 0x8A1A0, size: 0x8, addend: 0x0, symName: '__ZN4core3ptr62drop_in_place$LT$alloc..vec..set_len_on_drop..SetLenOnDrop$GT$17haead68b5ca68f444E', symObjAddr: 0x2E0, symBinAddr: 0x16A0C, symSize: 0x24 }
  - { offset: 0x8A1CF, size: 0x8, addend: 0x0, symName: '__ZN4core3ptr653drop_in_place$LT$core..iter..adapters..map..map_fold$LT$$RF$planck_core..plan..BufEntry$C$planck_core..template..BufExpr$C$$LP$$RP$$C$planck_core..template..PlanTemplate..from_plan..$u7b$$u7b$closure$u7d$$u7d$$C$core..iter..traits..iterator..Iterator..for_each..call$LT$planck_core..template..BufExpr$C$alloc..vec..Vec$LT$planck_core..template..BufExpr$GT$..extend_trusted$LT$core..iter..adapters..map..Map$LT$core..slice..iter..Iter$LT$planck_core..plan..BufEntry$GT$$C$planck_core..template..PlanTemplate..from_plan..$u7b$$u7b$closure$u7d$$u7d$$GT$$GT$..$u7b$$u7b$closure$u7d$$u7d$$GT$..$u7b$$u7b$closure$u7d$$u7d$$GT$..$u7b$$u7b$closure$u7d$$u7d$$GT$17h4b37c5719d86a9cbE', symObjAddr: 0x304, symBinAddr: 0x16A30, symSize: 0x24 }
  - { offset: 0x8A1FE, size: 0x8, addend: 0x0, symName: '__ZN4core3ptr654drop_in_place$LT$core..iter..adapters..map..map_fold$LT$$RF$planck_core..template..BufExpr$C$planck_core..plan..BufEntry$C$$LP$$RP$$C$planck_core..template..PlanTemplate..instantiate..$u7b$$u7b$closure$u7d$$u7d$$C$core..iter..traits..iterator..Iterator..for_each..call$LT$planck_core..plan..BufEntry$C$alloc..vec..Vec$LT$planck_core..plan..BufEntry$GT$..extend_trusted$LT$core..iter..adapters..map..Map$LT$core..slice..iter..Iter$LT$planck_core..template..BufExpr$GT$$C$planck_core..template..PlanTemplate..instantiate..$u7b$$u7b$closure$u7d$$u7d$$GT$$GT$..$u7b$$u7b$closure$u7d$$u7d$$GT$..$u7b$$u7b$closure$u7d$$u7d$$GT$..$u7b$$u7b$closure$u7d$$u7d$$GT$17h7f296eaf10d12187E', symObjAddr: 0x328, symBinAddr: 0x16A54, symSize: 0x24 }
  - { offset: 0x8A22D, size: 0x8, addend: 0x0, symName: '__ZN4core3ptr67drop_in_place$LT$alloc..vec..Vec$LT$planck_core..topo..Link$GT$$GT$17h8b4b6290c5025001E', symObjAddr: 0x34C, symBinAddr: 0x16A78, symSize: 0x5C }
  - { offset: 0x8A25C, size: 0x8, addend: 0x0, symName: '__ZN4core3ptr70drop_in_place$LT$alloc..vec..Vec$LT$planck_core..plan..OpEntry$GT$$GT$17h9d6c0fd01d2c95faE', symObjAddr: 0x3A8, symBinAddr: 0x16AD4, symSize: 0x5C }
  - { offset: 0x8A28B, size: 0x8, addend: 0x0, symName: '__ZN4core3ptr71drop_in_place$LT$alloc..vec..Vec$LT$planck_core..algo..AlgoStep$GT$$GT$17hcb0c79bde7c9123dE', symObjAddr: 0x404, symBinAddr: 0x16B30, symSize: 0x5C }
  - { offset: 0x8A2BA, size: 0x8, addend: 0x0, symName: '__ZN4core3ptr71drop_in_place$LT$alloc..vec..Vec$LT$planck_core..plan..BufEntry$GT$$GT$17h3e084a297b1d585aE', symObjAddr: 0x460, symBinAddr: 0x16B8C, symSize: 0x5C }
  - { offset: 0x8A2E9, size: 0x8, addend: 0x0, symName: '__ZN4core3ptr74drop_in_place$LT$alloc..raw_vec..RawVec$LT$planck_core..topo..Link$GT$$GT$17h4c9ebca164e698e3E', symObjAddr: 0x4BC, symBinAddr: 0x16BE8, symSize: 0x24 }
  - { offset: 0x8A318, size: 0x8, addend: 0x0, symName: '__ZN4core3ptr74drop_in_place$LT$alloc..vec..Vec$LT$planck_core..template..BufExpr$GT$$GT$17h6c44bc63b668e6f9E', symObjAddr: 0x4E0, symBinAddr: 0x16C0C, symSize: 0x5C }
  - { offset: 0x8A347, size: 0x8, addend: 0x0, symName: '__ZN4core3ptr77drop_in_place$LT$alloc..raw_vec..RawVec$LT$planck_core..plan..OpEntry$GT$$GT$17hab1dd2245d9b65b9E', symObjAddr: 0x53C, symBinAddr: 0x16C68, symSize: 0x24 }
  - { offset: 0x8A376, size: 0x8, addend: 0x0, symName: '__ZN4core3ptr78drop_in_place$LT$alloc..raw_vec..RawVec$LT$planck_core..algo..AlgoStep$GT$$GT$17hee81758b89c09820E', symObjAddr: 0x560, symBinAddr: 0x16C8C, symSize: 0x24 }
  - { offset: 0x8A3A5, size: 0x8, addend: 0x0, symName: '__ZN4core3ptr78drop_in_place$LT$alloc..raw_vec..RawVec$LT$planck_core..plan..BufEntry$GT$$GT$17h780ba4e0af3cdd6bE', symObjAddr: 0x584, symBinAddr: 0x16CB0, symSize: 0x24 }
  - { offset: 0x8A3D4, size: 0x8, addend: 0x0, symName: '__ZN4core3ptr81drop_in_place$LT$alloc..raw_vec..RawVec$LT$planck_core..template..BufExpr$GT$$GT$17h777fdc817e2ac0e8E', symObjAddr: 0x5A8, symBinAddr: 0x16CD4, symSize: 0x24 }
  - { offset: 0x8ACF5, size: 0x8, addend: 0x0, symName: '__ZN77_$LT$alloc..raw_vec..RawVec$LT$T$C$A$GT$$u20$as$u20$core..ops..drop..Drop$GT$4drop17h0a6145fcc1a3173fE', symObjAddr: 0x6D4, symBinAddr: 0x16DAC, symSize: 0x34 }
  - { offset: 0x8AD31, size: 0x8, addend: 0x0, symName: '__ZN77_$LT$alloc..raw_vec..RawVec$LT$T$C$A$GT$$u20$as$u20$core..ops..drop..Drop$GT$4drop17h8e986a28da9798e5E', symObjAddr: 0x708, symBinAddr: 0x16DE0, symSize: 0x34 }
  - { offset: 0x8AD6D, size: 0x8, addend: 0x0, symName: '__ZN77_$LT$alloc..raw_vec..RawVec$LT$T$C$A$GT$$u20$as$u20$core..ops..drop..Drop$GT$4drop17h90dc05afffcd892cE', symObjAddr: 0x73C, symBinAddr: 0x16E14, symSize: 0x34 }
  - { offset: 0x8ADA9, size: 0x8, addend: 0x0, symName: '__ZN77_$LT$alloc..raw_vec..RawVec$LT$T$C$A$GT$$u20$as$u20$core..ops..drop..Drop$GT$4drop17hdbf6e0fd3ce8d44eE', symObjAddr: 0x770, symBinAddr: 0x16E48, symSize: 0x34 }
  - { offset: 0x8ADE5, size: 0x8, addend: 0x0, symName: '__ZN77_$LT$alloc..raw_vec..RawVec$LT$T$C$A$GT$$u20$as$u20$core..ops..drop..Drop$GT$4drop17hfb0cc848b2eb8097E', symObjAddr: 0x7A4, symBinAddr: 0x16E7C, symSize: 0x34 }
  - { offset: 0x8AE6E, size: 0x8, addend: 0x0, symName: '__ZN70_$LT$alloc..vec..Vec$LT$T$C$A$GT$$u20$as$u20$core..ops..drop..Drop$GT$4drop17h557800150a78fef8E', symObjAddr: 0x5F0, symBinAddr: 0x16CF8, symSize: 0x24 }
  - { offset: 0x8AF1E, size: 0x8, addend: 0x0, symName: '__ZN70_$LT$alloc..vec..Vec$LT$T$C$A$GT$$u20$as$u20$core..ops..drop..Drop$GT$4drop17h8870826478349a69E', symObjAddr: 0x614, symBinAddr: 0x16D1C, symSize: 0x24 }
  - { offset: 0x8AFCE, size: 0x8, addend: 0x0, symName: '__ZN70_$LT$alloc..vec..Vec$LT$T$C$A$GT$$u20$as$u20$core..ops..drop..Drop$GT$4drop17hb0787dc170e0c466E', symObjAddr: 0x638, symBinAddr: 0x16D40, symSize: 0x24 }
  - { offset: 0x8B07E, size: 0x8, addend: 0x0, symName: '__ZN70_$LT$alloc..vec..Vec$LT$T$C$A$GT$$u20$as$u20$core..ops..drop..Drop$GT$4drop17hc9b2cc07ed0ccc58E', symObjAddr: 0x65C, symBinAddr: 0x16D64, symSize: 0x24 }
  - { offset: 0x8B12E, size: 0x8, addend: 0x0, symName: '__ZN70_$LT$alloc..vec..Vec$LT$T$C$A$GT$$u20$as$u20$core..ops..drop..Drop$GT$4drop17hd886152b227d3871E', symObjAddr: 0x680, symBinAddr: 0x16D88, symSize: 0x24 }
  - { offset: 0x8B3B0, size: 0x8, addend: 0x0, symName: '__ZN83_$LT$alloc..vec..set_len_on_drop..SetLenOnDrop$u20$as$u20$core..ops..drop..Drop$GT$4drop17h97df7a4c748283ccE', symObjAddr: 0x7D8, symBinAddr: 0x16EB0, symSize: 0x20 }
  - { offset: 0x8BA41, size: 0x8, addend: 0x0, symName: '__ZN4core5slice29_$LT$impl$u20$$u5b$T$u5d$$GT$4iter17h7af828ba36292746E', symObjAddr: 0x2B4, symBinAddr: 0x16FDC, symSize: 0x28 }
  - { offset: 0x8BCC6, size: 0x8, addend: 0x0, symName: __ZN11planck_core4plan14slice_as_bytes17h2d6afd4f32c91627E, symObjAddr: 0x1A8, symBinAddr: 0x16ED0, symSize: 0x6C }
  - { offset: 0x8BCFB, size: 0x8, addend: 0x0, symName: __ZN11planck_core4plan14slice_as_bytes17h50be1dd74cf9dfe4E, symObjAddr: 0x214, symBinAddr: 0x16F3C, symSize: 0x6C }
  - { offset: 0x8BD30, size: 0x8, addend: 0x0, symName: __ZN11planck_core4plan8as_bytes17ha6c91115241e62f3E, symObjAddr: 0x280, symBinAddr: 0x16FA8, symSize: 0x34 }
  - { offset: 0x8C0FB, size: 0x8, addend: 0x0, symName: '__ZN87_$LT$T$u20$as$u20$alloc..slice..$LT$impl$u20$$u5b$T$u5d$$GT$..to_vec_in..ConvertVec$GT$6to_vec17h97656ab28eb8f8ecE', symObjAddr: 0x2DC, symBinAddr: 0x17004, symSize: 0xFC }
  - { offset: 0x8C5BF, size: 0x8, addend: 0x0, symName: __ZN4core9ub_checks23maybe_is_nonoverlapping7runtime17h896f271c2276dd51E, symObjAddr: 0x0, symBinAddr: 0x17100, symSize: 0xD8 }
  - { offset: 0x8C744, size: 0x8, addend: 0x0, symName: __ZN4core9ub_checks23maybe_is_nonoverlapping7runtime17h896f271c2276dd51E, symObjAddr: 0x0, symBinAddr: 0x17100, symSize: 0xD8 }
  - { offset: 0x8C957, size: 0x8, addend: 0x0, symName: __ZN11planck_core5sched8schedule17h4e98bdaaf5965187E, symObjAddr: 0x0, symBinAddr: 0x171D8, symSize: 0xA78 }
  - { offset: 0x8C9E9, size: 0x8, addend: 0x0, symName: __ZN11planck_core5sched8schedule17h4e98bdaaf5965187E, symObjAddr: 0x0, symBinAddr: 0x171D8, symSize: 0xA78 }
  - { offset: 0x8D3B7, size: 0x8, addend: 0x0, symName: '__ZN4core4iter8adapters3map8map_fold28_$u7b$$u7b$closure$u7d$$u7d$17h54ec793d2e73fc8fE', symObjAddr: 0x508, symBinAddr: 0x17FC0, symSize: 0x8C }
  - { offset: 0x8D43C, size: 0x8, addend: 0x0, symName: '__ZN4core4iter8adapters3map8map_fold28_$u7b$$u7b$closure$u7d$$u7d$17h94b5e649b6a9ab43E', symObjAddr: 0x594, symBinAddr: 0x1804C, symSize: 0x98 }
  - { offset: 0x8D4C3, size: 0x8, addend: 0x0, symName: '__ZN4core4iter8adapters3map8map_fold28_$u7b$$u7b$closure$u7d$$u7d$17hfeb0e126b9fc33fcE', symObjAddr: 0x734, symBinAddr: 0x180E4, symSize: 0x8C }
  - { offset: 0x8D54E, size: 0x8, addend: 0x0, symName: '__ZN102_$LT$core..iter..adapters..map..Map$LT$I$C$F$GT$$u20$as$u20$core..iter..traits..iterator..Iterator$GT$4fold17ha4aa7c7b19678bf5E', symObjAddr: 0x60, symBinAddr: 0x17C50, symSize: 0x4C }
  - { offset: 0x8D5E7, size: 0x8, addend: 0x0, symName: '__ZN102_$LT$core..iter..adapters..map..Map$LT$I$C$F$GT$$u20$as$u20$core..iter..traits..iterator..Iterator$GT$4fold17hd2fa51844619f234E', symObjAddr: 0xAC, symBinAddr: 0x17C9C, symSize: 0x4C }
  - { offset: 0x8D680, size: 0x8, addend: 0x0, symName: '__ZN102_$LT$core..iter..adapters..map..Map$LT$I$C$F$GT$$u20$as$u20$core..iter..traits..iterator..Iterator$GT$4fold17hdf13ad3bfc07e59aE', symObjAddr: 0xF8, symBinAddr: 0x17CE8, symSize: 0x30 }
  - { offset: 0x8D6F5, size: 0x8, addend: 0x0, symName: '__ZN102_$LT$core..iter..adapters..map..Map$LT$I$C$F$GT$$u20$as$u20$core..iter..traits..iterator..Iterator$GT$4next17h17458d33c1790dadE', symObjAddr: 0x188, symBinAddr: 0x17D18, symSize: 0x84 }
  - { offset: 0x8D791, size: 0x8, addend: 0x0, symName: '__ZN102_$LT$core..iter..adapters..map..Map$LT$I$C$F$GT$$u20$as$u20$core..iter..traits..iterator..Iterator$GT$9size_hint17h5986bc83eb510da6E', symObjAddr: 0x20C, symBinAddr: 0x17D9C, symSize: 0x24 }
  - { offset: 0x8D7D8, size: 0x8, addend: 0x0, symName: '__ZN102_$LT$core..iter..adapters..map..Map$LT$I$C$F$GT$$u20$as$u20$core..iter..traits..iterator..Iterator$GT$9size_hint17h6231336e7025b754E', symObjAddr: 0x230, symBinAddr: 0x17DC0, symSize: 0x24 }
  - { offset: 0x8DA04, size: 0x8, addend: 0x0, symName: __ZN4core4iter6traits8iterator8Iterator3max17hdb529263dc692ba8E, symObjAddr: 0x29C, symBinAddr: 0x17DE4, symSize: 0x2C }
  - { offset: 0x8DA3B, size: 0x8, addend: 0x0, symName: __ZN4core4iter6traits8iterator8Iterator6max_by17hc6c1e775e6c48ee0E, symObjAddr: 0x2C8, symBinAddr: 0x17E10, symSize: 0x2C }
  - { offset: 0x8DA8A, size: 0x8, addend: 0x0, symName: __ZN4core4iter6traits8iterator8Iterator6reduce17h801b67086d5f7ad8E, symObjAddr: 0x2F4, symBinAddr: 0x17E3C, symSize: 0xF4 }
  - { offset: 0x8DB5B, size: 0x8, addend: 0x0, symName: __ZN4core4iter6traits8iterator8Iterator7collect17h83bf3376fe631872E, symObjAddr: 0x410, symBinAddr: 0x17F30, symSize: 0x14 }
  - { offset: 0x8DB9C, size: 0x8, addend: 0x0, symName: __ZN4core4iter6traits8iterator8Iterator7collect17ha7a6cd3b59fa5c91E, symObjAddr: 0x424, symBinAddr: 0x17F44, symSize: 0x14 }
  - { offset: 0x8DBDD, size: 0x8, addend: 0x0, symName: __ZN4core4iter6traits8iterator8Iterator8for_each17h24e2e0e8257dfbedE, symObjAddr: 0x438, symBinAddr: 0x17F58, symSize: 0x34 }
  - { offset: 0x8DC49, size: 0x8, addend: 0x0, symName: __ZN4core4iter6traits8iterator8Iterator8for_each17h7c9ce7548ed40d14E, symObjAddr: 0x4D4, symBinAddr: 0x17F8C, symSize: 0x34 }
  - { offset: 0x8DCE0, size: 0x8, addend: 0x0, symName: '__ZN63_$LT$I$u20$as$u20$core..iter..traits..collect..IntoIterator$GT$9into_iter17h11d31b021d5cb484E', symObjAddr: 0x7C0, symBinAddr: 0x18170, symSize: 0x18 }
  - { offset: 0x8DD17, size: 0x8, addend: 0x0, symName: '__ZN63_$LT$I$u20$as$u20$core..iter..traits..collect..IntoIterator$GT$9into_iter17h93dfc818ffcb044dE', symObjAddr: 0x7D8, symBinAddr: 0x18188, symSize: 0x18 }
  - { offset: 0x8E531, size: 0x8, addend: 0x0, symName: __ZN11planck_core4plan10PlanHeader3new17h86d2d75a1d38ea61E, symObjAddr: 0x0, symBinAddr: 0x181A0, symSize: 0x6C }
  - { offset: 0x8E78F, size: 0x8, addend: 0x0, symName: __ZN11planck_core4plan4fuse17h9755b79251eaf38eE, symObjAddr: 0x548, symBinAddr: 0x183D4, symSize: 0xCE0 }
  - { offset: 0x8E81B, size: 0x8, addend: 0x0, symName: __ZN11planck_core4plan7compile17h853b57e4241a91f8E, symObjAddr: 0x127C, symBinAddr: 0x19108, symSize: 0x1F4 }
  - { offset: 0x8EAC3, size: 0x8, addend: 0x0, symName: __ZN11planck_core4plan10PlanHeader3new17h86d2d75a1d38ea61E, symObjAddr: 0x0, symBinAddr: 0x181A0, symSize: 0x6C }
  - { offset: 0x8EF0F, size: 0x8, addend: 0x0, symName: __ZN11planck_core4plan13ExecutionPlan9serialize17ha48b2db331289523E, symObjAddr: 0x380, symBinAddr: 0x1820C, symSize: 0x1C8 }
  - { offset: 0x8EF46, size: 0x8, addend: 0x0, symName: __ZN11planck_core4plan7OpEntry3new17h706d710b3919babeE, symObjAddr: 0x1228, symBinAddr: 0x190B4, symSize: 0x54 }
  - { offset: 0x8F010, size: 0x8, addend: 0x0, symName: __ZN4core4iter6traits8iterator8Iterator3map17h391a103eaa96eb31E, symObjAddr: 0x0, symBinAddr: 0x192FC, symSize: 0x30 }
  - { offset: 0x8F33E, size: 0x8, addend: 0x0, symName: __ZN4core4iter6traits8iterator8Iterator3map17h391a103eaa96eb31E, symObjAddr: 0x0, symBinAddr: 0x192FC, symSize: 0x30 }
  - { offset: 0x8F3AB, size: 0x8, addend: 0x0, symName: __ZN4core4iter6traits8iterator8Iterator3map17he4c2a6d75905d5eeE, symObjAddr: 0x30, symBinAddr: 0x1932C, symSize: 0x30 }
  - { offset: 0x8F418, size: 0x8, addend: 0x0, symName: __ZN4core4iter6traits8iterator8Iterator3map17hfe188c4adeaa6532E, symObjAddr: 0x60, symBinAddr: 0x1935C, symSize: 0x1C }
  - { offset: 0x8F470, size: 0x8, addend: 0x0, symName: __ZN4core4iter6traits8iterator8Iterator9enumerate17h918101396fd2aaceE, symObjAddr: 0x7C, symBinAddr: 0x19378, symSize: 0x28 }
  - { offset: 0x8F61C, size: 0x8, addend: 0x0, symName: '__ZN91_$LT$core..slice..iter..Iter$LT$T$GT$$u20$as$u20$core..iter..traits..iterator..Iterator$GT$4fold17h152ef47a46c1e933E', symObjAddr: 0x3D4, symBinAddr: 0x194A8, symSize: 0x1E0 }
  - { offset: 0x8F81D, size: 0x8, addend: 0x0, symName: '__ZN91_$LT$core..slice..iter..Iter$LT$T$GT$$u20$as$u20$core..iter..traits..iterator..Iterator$GT$4fold17h34bbd347d9176318E', symObjAddr: 0x5B4, symBinAddr: 0x19688, symSize: 0x1E0 }
  - { offset: 0x8FA1E, size: 0x8, addend: 0x0, symName: '__ZN91_$LT$core..slice..iter..Iter$LT$T$GT$$u20$as$u20$core..iter..traits..iterator..Iterator$GT$4fold17heeb1b01def5ddaebE', symObjAddr: 0x794, symBinAddr: 0x19868, symSize: 0x1F8 }
  - { offset: 0x8FC27, size: 0x8, addend: 0x0, symName: '__ZN91_$LT$core..slice..iter..Iter$LT$T$GT$$u20$as$u20$core..iter..traits..iterator..Iterator$GT$4next17h2474d2e5aa14a474E', symObjAddr: 0x98C, symBinAddr: 0x19A60, symSize: 0x84 }
  - { offset: 0x8FCDD, size: 0x8, addend: 0x0, symName: '__ZN91_$LT$core..slice..iter..Iter$LT$T$GT$$u20$as$u20$core..iter..traits..iterator..Iterator$GT$9size_hint17h118f5bef5ab27f52E', symObjAddr: 0xA10, symBinAddr: 0x19AE4, symSize: 0xB4 }
  - { offset: 0x8FE0A, size: 0x8, addend: 0x0, symName: '__ZN91_$LT$core..slice..iter..Iter$LT$T$GT$$u20$as$u20$core..iter..traits..iterator..Iterator$GT$9size_hint17hf4acce068a2c7beeE', symObjAddr: 0xAC4, symBinAddr: 0x19B98, symSize: 0xB4 }
  - { offset: 0x9095E, size: 0x8, addend: 0x0, symName: '__ZN4core5slice4iter13Iter$LT$T$GT$3new17hacc07b3e854b24dbE', symObjAddr: 0xFC, symBinAddr: 0x193A0, symSize: 0x58 }
  - { offset: 0x90B0E, size: 0x8, addend: 0x0, symName: '__ZN4core5slice4iter13Iter$LT$T$GT$3new17hea7f8dfa94c7499dE', symObjAddr: 0x154, symBinAddr: 0x193F8, symSize: 0x58 }
  - { offset: 0x90CBE, size: 0x8, addend: 0x0, symName: '__ZN4core5slice4iter13Iter$LT$T$GT$3new17hfadf8193389ce5cbE', symObjAddr: 0x1AC, symBinAddr: 0x19450, symSize: 0x58 }
  - { offset: 0x910FE, size: 0x8, addend: 0x0, symName: '__ZN5alloc7raw_vec19RawVec$LT$T$C$A$GT$8grow_one17h13c6595cafd29629E', symObjAddr: 0x0, symBinAddr: 0x19C4C, symSize: 0x88 }
  - { offset: 0x91A16, size: 0x8, addend: 0x0, symName: '__ZN5alloc7raw_vec19RawVec$LT$T$C$A$GT$8grow_one17h13c6595cafd29629E', symObjAddr: 0x0, symBinAddr: 0x19C4C, symSize: 0x88 }
  - { offset: 0x91AD4, size: 0x8, addend: 0x0, symName: '__ZN5alloc7raw_vec19RawVec$LT$T$C$A$GT$8grow_one17h62fc50e881895073E', symObjAddr: 0x88, symBinAddr: 0x19CD4, symSize: 0x88 }
  - { offset: 0x91B84, size: 0x8, addend: 0x0, symName: '__ZN5alloc7raw_vec19RawVec$LT$T$C$A$GT$8grow_one17h96c9d34aa516cd6aE', symObjAddr: 0x110, symBinAddr: 0x19D5C, symSize: 0x88 }
  - { offset: 0x91C3B, size: 0x8, addend: 0x0, symName: '__ZN5alloc7raw_vec19RawVec$LT$T$C$A$GT$8grow_one17hbc9c940b7af52d56E', symObjAddr: 0x198, symBinAddr: 0x19DE4, symSize: 0x88 }
  - { offset: 0x91D4D, size: 0x8, addend: 0x0, symName: '__ZN5alloc7raw_vec20RawVecInner$LT$A$GT$16with_capacity_in17h1dd50a554909e2b5E', symObjAddr: 0x220, symBinAddr: 0x19E6C, symSize: 0xF0 }
  - { offset: 0x91EA3, size: 0x8, addend: 0x0, symName: '__ZN4core5slice29_$LT$impl$u20$$u5b$T$u5d$$GT$4iter17ha27d657c2da3243bE', symObjAddr: 0x0, symBinAddr: 0x19F5C, symSize: 0x28 }
  - { offset: 0x91F47, size: 0x8, addend: 0x0, symName: '__ZN4core5slice29_$LT$impl$u20$$u5b$T$u5d$$GT$4iter17ha27d657c2da3243bE', symObjAddr: 0x0, symBinAddr: 0x19F5C, symSize: 0x28 }
  - { offset: 0x91F7E, size: 0x8, addend: 0x0, symName: '__ZN4core5slice29_$LT$impl$u20$$u5b$T$u5d$$GT$8is_empty17h17d21303b35c2e78E', symObjAddr: 0x28, symBinAddr: 0x19F84, symSize: 0x1C }
  - { offset: 0x920A8, size: 0x8, addend: 0x0, symName: '__ZN4core3ptr9const_ptr33_$LT$impl$u20$$BP$const$u20$T$GT$20offset_from_unsigned18precondition_check17hade4b747f7edb633E', symObjAddr: 0x0, symBinAddr: 0x19FA0, symSize: 0x60 }
  - { offset: 0x920CE, size: 0x8, addend: 0x0, symName: '__ZN4core3ptr9const_ptr33_$LT$impl$u20$$BP$const$u20$T$GT$20offset_from_unsigned18precondition_check17hade4b747f7edb633E', symObjAddr: 0x0, symBinAddr: 0x19FA0, symSize: 0x60 }
  - { offset: 0x93BBB, size: 0x8, addend: 0x0, symName: '__ZN111_$LT$alloc..vec..Vec$LT$T$GT$$u20$as$u20$alloc..vec..spec_from_iter_nested..SpecFromIterNested$LT$T$C$I$GT$$GT$9from_iter17ha45c01b1a7eb815bE', symObjAddr: 0x140, symBinAddr: 0x1A000, symSize: 0x134 }
  - { offset: 0x93C7D, size: 0x8, addend: 0x0, symName: '__ZN111_$LT$alloc..vec..Vec$LT$T$GT$$u20$as$u20$alloc..vec..spec_from_iter_nested..SpecFromIterNested$LT$T$C$I$GT$$GT$9from_iter17hd56b82670b27d3b3E', symObjAddr: 0x274, symBinAddr: 0x1A134, symSize: 0x134 }
  - { offset: 0x940B9, size: 0x8, addend: 0x0, symName: '__ZN132_$LT$alloc..vec..Vec$LT$T$C$A$GT$$u20$as$u20$alloc..vec..spec_extend..SpecExtend$LT$$RF$T$C$core..slice..iter..Iter$LT$T$GT$$GT$$GT$11spec_extend17h09eff9905df286b8E', symObjAddr: 0x614, symBinAddr: 0x1A268, symSize: 0xB0 }
  - { offset: 0x9429F, size: 0x8, addend: 0x0, symName: '__ZN97_$LT$alloc..vec..Vec$LT$T$C$A$GT$$u20$as$u20$alloc..vec..spec_extend..SpecExtend$LT$T$C$I$GT$$GT$11spec_extend17hb378b857c40cf5e9E', symObjAddr: 0x1A58, symBinAddr: 0x1AFD0, symSize: 0x24 }
  - { offset: 0x942F1, size: 0x8, addend: 0x0, symName: '__ZN97_$LT$alloc..vec..Vec$LT$T$C$A$GT$$u20$as$u20$alloc..vec..spec_extend..SpecExtend$LT$T$C$I$GT$$GT$11spec_extend17he455291550161af3E', symObjAddr: 0x1A7C, symBinAddr: 0x1AFF4, symSize: 0x24 }
  - { offset: 0x94771, size: 0x8, addend: 0x0, symName: '__ZN5alloc3vec16Vec$LT$T$C$A$GT$14extend_trusted28_$u7b$$u7b$closure$u7d$$u7d$17h5830d24a529bee48E', symObjAddr: 0xE60, symBinAddr: 0x1A6AC, symSize: 0x44 }
  - { offset: 0x9481E, size: 0x8, addend: 0x0, symName: '__ZN5alloc3vec16Vec$LT$T$C$A$GT$14extend_trusted28_$u7b$$u7b$closure$u7d$$u7d$17ha6274ae002e2b9cfE', symObjAddr: 0xED4, symBinAddr: 0x1A6F0, symSize: 0x44 }
  - { offset: 0x94902, size: 0x8, addend: 0x0, symName: '__ZN72_$LT$alloc..vec..Vec$LT$T$C$A$GT$$u20$as$u20$core..ops..deref..Deref$GT$5deref17h1b6cc904a2a1aa9eE', symObjAddr: 0x17BC, symBinAddr: 0x1AE60, symSize: 0x20 }
  - { offset: 0x949BF, size: 0x8, addend: 0x0, symName: '__ZN72_$LT$alloc..vec..Vec$LT$T$C$A$GT$$u20$as$u20$core..ops..deref..Deref$GT$5deref17h5153b9b8d6c0ae15E', symObjAddr: 0x17DC, symBinAddr: 0x1AE80, symSize: 0x20 }
  - { offset: 0x94A7C, size: 0x8, addend: 0x0, symName: '__ZN72_$LT$alloc..vec..Vec$LT$T$C$A$GT$$u20$as$u20$core..ops..deref..Deref$GT$5deref17hc4918c0e4545bfffE', symObjAddr: 0x181C, symBinAddr: 0x1AEA0, symSize: 0x20 }
  - { offset: 0x94B39, size: 0x8, addend: 0x0, symName: '__ZN72_$LT$alloc..vec..Vec$LT$T$C$A$GT$$u20$as$u20$core..ops..deref..Deref$GT$5deref17hfcd426e70f96b4caE', symObjAddr: 0x183C, symBinAddr: 0x1AEC0, symSize: 0x20 }
  - { offset: 0x94C5C, size: 0x8, addend: 0x0, symName: '__ZN67_$LT$alloc..vec..Vec$LT$T$C$A$GT$$u20$as$u20$core..clone..Clone$GT$5clone17h522b445f5b76c35dE', symObjAddr: 0x1770, symBinAddr: 0x1AE14, symSize: 0x4C }
  - { offset: 0x94DCA, size: 0x8, addend: 0x0, symName: '__ZN81_$LT$alloc..vec..Vec$LT$T$C$A$GT$$u20$as$u20$core..ops..index..Index$LT$I$GT$$GT$5index17h801d0c0dcf412cc9E', symObjAddr: 0x185C, symBinAddr: 0x1AEE0, symSize: 0x44 }
  - { offset: 0x94EE3, size: 0x8, addend: 0x0, symName: '__ZN81_$LT$alloc..vec..Vec$LT$T$C$A$GT$$u20$as$u20$core..ops..index..Index$LT$I$GT$$GT$5index17hc6968f434b226d0dE', symObjAddr: 0x18A0, symBinAddr: 0x1AF24, symSize: 0x44 }
  - { offset: 0x95002, size: 0x8, addend: 0x0, symName: '__ZN95_$LT$alloc..vec..Vec$LT$T$GT$$u20$as$u20$core..iter..traits..collect..FromIterator$LT$T$GT$$GT$9from_iter17hba98c69fd189434fE', symObjAddr: 0x197C, symBinAddr: 0x1AF68, symSize: 0x34 }
  - { offset: 0x95043, size: 0x8, addend: 0x0, symName: '__ZN95_$LT$alloc..vec..Vec$LT$T$GT$$u20$as$u20$core..iter..traits..collect..FromIterator$LT$T$GT$$GT$9from_iter17hd556d1d51e97dcc5E', symObjAddr: 0x19B0, symBinAddr: 0x1AF9C, symSize: 0x34 }
  - { offset: 0x9508F, size: 0x8, addend: 0x0, symName: '__ZN98_$LT$alloc..vec..Vec$LT$T$GT$$u20$as$u20$alloc..vec..spec_from_iter..SpecFromIter$LT$T$C$I$GT$$GT$9from_iter17h11a0d6da92100730E', symObjAddr: 0x1AA0, symBinAddr: 0x1B018, symSize: 0x14 }
  - { offset: 0x950CE, size: 0x8, addend: 0x0, symName: '__ZN98_$LT$alloc..vec..Vec$LT$T$GT$$u20$as$u20$alloc..vec..spec_from_iter..SpecFromIter$LT$T$C$I$GT$$GT$9from_iter17hf5cbb74994c0aa7cE', symObjAddr: 0x1B00, symBinAddr: 0x1B02C, symSize: 0x14 }
  - { offset: 0x953E2, size: 0x8, addend: 0x0, symName: '__ZN5alloc3vec12Vec$LT$T$GT$13with_capacity17h2f800b1d1c459018E', symObjAddr: 0x6C4, symBinAddr: 0x1A318, symSize: 0x44 }
  - { offset: 0x954BC, size: 0x8, addend: 0x0, symName: '__ZN5alloc3vec12Vec$LT$T$GT$13with_capacity17h46f8fcf9f5ee21a5E', symObjAddr: 0x708, symBinAddr: 0x1A35C, symSize: 0x44 }
  - { offset: 0x95596, size: 0x8, addend: 0x0, symName: '__ZN5alloc3vec12Vec$LT$T$GT$13with_capacity17ha1b88e22ed4eb071E', symObjAddr: 0x74C, symBinAddr: 0x1A3A0, symSize: 0x40 }
  - { offset: 0x95677, size: 0x8, addend: 0x0, symName: '__ZN5alloc3vec12Vec$LT$T$GT$13with_capacity17hde804df1f39c5cc1E', symObjAddr: 0x78C, symBinAddr: 0x1A3E0, symSize: 0x44 }
  - { offset: 0x956EF, size: 0x8, addend: 0x0, symName: '__ZN5alloc3vec12Vec$LT$T$GT$3new17h0d7fb6618e26a50eE', symObjAddr: 0x7D0, symBinAddr: 0x1A424, symSize: 0x14 }
  - { offset: 0x9570C, size: 0x8, addend: 0x0, symName: '__ZN5alloc3vec12Vec$LT$T$GT$3new17h6d5393c14a37b832E', symObjAddr: 0x7E4, symBinAddr: 0x1A438, symSize: 0x14 }
  - { offset: 0x95898, size: 0x8, addend: 0x0, symName: '__ZN5alloc3vec16Vec$LT$T$C$A$GT$14extend_trusted17he9c2fd4679d8ad96E', symObjAddr: 0xA98, symBinAddr: 0x1A44C, symSize: 0x130 }
  - { offset: 0x95AB3, size: 0x8, addend: 0x0, symName: '__ZN5alloc3vec16Vec$LT$T$C$A$GT$14extend_trusted17hfa3bbc6b9bea94e1E', symObjAddr: 0xCEC, symBinAddr: 0x1A57C, symSize: 0x130 }
  - { offset: 0x95D13, size: 0x8, addend: 0x0, symName: '__ZN5alloc3vec16Vec$LT$T$C$A$GT$15append_elements17h426b1096b275ec1fE', symObjAddr: 0xF48, symBinAddr: 0x1A734, symSize: 0xD4 }
  - { offset: 0x95F48, size: 0x8, addend: 0x0, symName: '__ZN5alloc3vec16Vec$LT$T$C$A$GT$17extend_from_slice17h784163d1da6bcd69E', symObjAddr: 0x101C, symBinAddr: 0x1A808, symSize: 0x6C }
  - { offset: 0x9609F, size: 0x8, addend: 0x0, symName: '__ZN5alloc3vec16Vec$LT$T$C$A$GT$3len17h10210ece24deaea2E', symObjAddr: 0x1088, symBinAddr: 0x1A874, symSize: 0x18 }
  - { offset: 0x960E1, size: 0x8, addend: 0x0, symName: '__ZN5alloc3vec16Vec$LT$T$C$A$GT$3len17h5ce4812654d886d3E', symObjAddr: 0x10A0, symBinAddr: 0x1A88C, symSize: 0x18 }
  - { offset: 0x96116, size: 0x8, addend: 0x0, symName: '__ZN5alloc3vec16Vec$LT$T$C$A$GT$4push17h62d15b02495b27dbE', symObjAddr: 0x10B8, symBinAddr: 0x1A8A4, symSize: 0x24 }
  - { offset: 0x96168, size: 0x8, addend: 0x0, symName: '__ZN5alloc3vec16Vec$LT$T$C$A$GT$4push17hbad7f207c23f03cdE', symObjAddr: 0x10DC, symBinAddr: 0x1A8C8, symSize: 0x24 }
  - { offset: 0x961BA, size: 0x8, addend: 0x0, symName: '__ZN5alloc3vec16Vec$LT$T$C$A$GT$4push17hc1ff89a92e542b4eE', symObjAddr: 0x1100, symBinAddr: 0x1A8EC, symSize: 0x24 }
  - { offset: 0x961FF, size: 0x8, addend: 0x0, symName: '__ZN5alloc3vec16Vec$LT$T$C$A$GT$4push17he457d1bd67c03b45E', symObjAddr: 0x1124, symBinAddr: 0x1A910, symSize: 0x24 }
  - { offset: 0x96374, size: 0x8, addend: 0x0, symName: '__ZN5alloc3vec16Vec$LT$T$C$A$GT$7reserve17h582b6e6fe9db5feeE', symObjAddr: 0x11E8, symBinAddr: 0x1A934, symSize: 0xA8 }
  - { offset: 0x965E5, size: 0x8, addend: 0x0, symName: '__ZN5alloc3vec16Vec$LT$T$C$A$GT$7reserve17hca115efec798cb28E', symObjAddr: 0x1338, symBinAddr: 0x1A9DC, symSize: 0xA8 }
  - { offset: 0x96847, size: 0x8, addend: 0x0, symName: '__ZN5alloc3vec16Vec$LT$T$C$A$GT$8push_mut17h35f121d3a3f9eb8bE', symObjAddr: 0x13E0, symBinAddr: 0x1AA84, symSize: 0xE4 }
  - { offset: 0x96AB7, size: 0x8, addend: 0x0, symName: '__ZN5alloc3vec16Vec$LT$T$C$A$GT$8push_mut17hb2194ec7c0e60266E', symObjAddr: 0x14C4, symBinAddr: 0x1AB68, symSize: 0xE4 }
  - { offset: 0x96D4E, size: 0x8, addend: 0x0, symName: '__ZN5alloc3vec16Vec$LT$T$C$A$GT$8push_mut17hc0efaa7cee9564e8E', symObjAddr: 0x15A8, symBinAddr: 0x1AC4C, symSize: 0xF8 }
  - { offset: 0x96FBE, size: 0x8, addend: 0x0, symName: '__ZN5alloc3vec16Vec$LT$T$C$A$GT$8push_mut17hc7feee6a2e86f4f0E', symObjAddr: 0x16A0, symBinAddr: 0x1AD44, symSize: 0xD0 }
  - { offset: 0x9770D, size: 0x8, addend: 0x0, symName: __ZN11planck_core8template12PlanTemplate11instantiate17h94bc13e3faa157eaE, symObjAddr: 0x0, symBinAddr: 0x1B040, symSize: 0x164 }
  - { offset: 0x97C6E, size: 0x8, addend: 0x0, symName: __ZN11planck_core8template12PlanTemplate11instantiate17h94bc13e3faa157eaE, symObjAddr: 0x0, symBinAddr: 0x1B040, symSize: 0x164 }
  - { offset: 0x97CDF, size: 0x8, addend: 0x0, symName: __ZN11planck_core8template12PlanTemplate9from_plan17h426df2261517dbf8E, symObjAddr: 0x164, symBinAddr: 0x1B1A4, symSize: 0x220 }
  - { offset: 0x97D5A, size: 0x8, addend: 0x0, symName: '__ZN4core4iter6traits8iterator8Iterator6max_by4fold28_$u7b$$u7b$closure$u7d$$u7d$17hadff26bdc19d9a52E', symObjAddr: 0x0, symBinAddr: 0x1B3C4, symSize: 0x3C }
  - { offset: 0x97DAE, size: 0x8, addend: 0x0, symName: '__ZN4core4iter6traits8iterator8Iterator6max_by4fold28_$u7b$$u7b$closure$u7d$$u7d$17hadff26bdc19d9a52E', symObjAddr: 0x0, symBinAddr: 0x1B3C4, symSize: 0x3C }
  - { offset: 0x97E1A, size: 0x8, addend: 0x0, symName: '__ZN4core4iter6traits8iterator8Iterator8for_each4call28_$u7b$$u7b$closure$u7d$$u7d$17h46c946955af8b9d4E', symObjAddr: 0x78, symBinAddr: 0x1B400, symSize: 0x3C }
  - { offset: 0x97E73, size: 0x8, addend: 0x0, symName: '__ZN4core4iter6traits8iterator8Iterator8for_each4call28_$u7b$$u7b$closure$u7d$$u7d$17h78082a17b06dbb32E', symObjAddr: 0xDC, symBinAddr: 0x1B43C, symSize: 0x3C }
  - { offset: 0x9805A, size: 0x8, addend: 0x0, symName: '__ZN4core3ptr8non_null16NonNull$LT$T$GT$13new_unchecked18precondition_check17hc4da040e443ce102E', symObjAddr: 0x0, symBinAddr: 0x1B478, symSize: 0x58 }
  - { offset: 0x98080, size: 0x8, addend: 0x0, symName: '__ZN4core3ptr8non_null16NonNull$LT$T$GT$13new_unchecked18precondition_check17hc4da040e443ce102E', symObjAddr: 0x0, symBinAddr: 0x1B478, symSize: 0x58 }
  - { offset: 0x98131, size: 0x8, addend: 0x0, symName: '__ZN110_$LT$core..iter..adapters..enumerate..Enumerate$LT$I$GT$$u20$as$u20$core..iter..traits..iterator..Iterator$GT$4next17h166b839e396bcb5cE', symObjAddr: 0x0, symBinAddr: 0x1B4D0, symSize: 0xE0 }
  - { offset: 0x983F4, size: 0x8, addend: 0x0, symName: '__ZN110_$LT$core..iter..adapters..enumerate..Enumerate$LT$I$GT$$u20$as$u20$core..iter..traits..iterator..Iterator$GT$4next17h166b839e396bcb5cE', symObjAddr: 0x0, symBinAddr: 0x1B4D0, symSize: 0xE0 }
  - { offset: 0x98516, size: 0x8, addend: 0x0, symName: '__ZN63_$LT$I$u20$as$u20$core..iter..traits..collect..IntoIterator$GT$9into_iter17hbeedc10cbcd37be8E', symObjAddr: 0xE0, symBinAddr: 0x1B5B0, symSize: 0x18 }
  - { offset: 0x98655, size: 0x8, addend: 0x0, symName: __ZN11planck_core4algo14ring_allreduce17h3ff2747efcb327f8E, symObjAddr: 0x0, symBinAddr: 0x1B5C8, symSize: 0x714 }
  - { offset: 0x98684, size: 0x8, addend: 0x0, symName: __ZN11planck_core4algo14ring_allreduce17h3ff2747efcb327f8E, symObjAddr: 0x0, symBinAddr: 0x1B5C8, symSize: 0x714 }
  - { offset: 0x98A09, size: 0x8, addend: 0x0, symName: __ZN11planck_core4topo8Topology10hccs_8card17h2536163d1d4f4941E, symObjAddr: 0x0, symBinAddr: 0x1BCDC, symSize: 0x228 }
  - { offset: 0x98DA6, size: 0x8, addend: 0x0, symName: __ZN11planck_core4topo8Topology10hccs_8card17h2536163d1d4f4941E, symObjAddr: 0x0, symBinAddr: 0x1BCDC, symSize: 0x228 }
  - { offset: 0x98E89, size: 0x8, addend: 0x0, symName: '__ZN59_$LT$alloc..alloc..Global$u20$as$u20$core..clone..Clone$GT$5clone17h6ad62b2ab85df138E', symObjAddr: 0x0, symBinAddr: 0x1BF04, symSize: 0x10 }
  - { offset: 0x997FF, size: 0x8, addend: 0x0, symName: '__ZN59_$LT$alloc..alloc..Global$u20$as$u20$core..clone..Clone$GT$5clone17h6ad62b2ab85df138E', symObjAddr: 0x0, symBinAddr: 0x1BF04, symSize: 0x10 }
  - { offset: 0x9989C, size: 0x8, addend: 0x0, symName: __ZN5alloc5alloc15exchange_malloc17hefc38ead47a05b47E, symObjAddr: 0x10, symBinAddr: 0x1BF14, symSize: 0xB0 }
  - { offset: 0x99BD3, size: 0x8, addend: 0x0, symName: __ZN5alloc5alloc6Global18alloc_impl_runtime17hdffe1c2408a931e3E, symObjAddr: 0xC0, symBinAddr: 0x1BFC4, symSize: 0x194 }
  - { offset: 0x99F84, size: 0x8, addend: 0x0, symName: '__ZN11planck_core5sched8schedule28_$u7b$$u7b$closure$u7d$$u7d$17hccbea94dac66b6e1E', symObjAddr: 0x0, symBinAddr: 0x1C158, symSize: 0x38 }
  - { offset: 0x9A01B, size: 0x8, addend: 0x0, symName: '__ZN11planck_core5sched8schedule28_$u7b$$u7b$closure$u7d$$u7d$17hccbea94dac66b6e1E', symObjAddr: 0x0, symBinAddr: 0x1C158, symSize: 0x38 }
  - { offset: 0x9A0AF, size: 0x8, addend: 0x0, symName: __ZN4core3ptr9alignment9Alignment13new_unchecked18precondition_check17h20b9b5f479699136E, symObjAddr: 0x0, symBinAddr: 0x1C190, symSize: 0x70 }
  - { offset: 0x9A11B, size: 0x8, addend: 0x0, symName: __ZN4core3ptr9alignment9Alignment13new_unchecked18precondition_check17h20b9b5f479699136E, symObjAddr: 0x0, symBinAddr: 0x1C190, symSize: 0x70 }
  - { offset: 0x9A201, size: 0x8, addend: 0x0, symName: '__ZN5alloc3vec16Vec$LT$T$C$A$GT$17from_raw_parts_in18precondition_check17h002af09169a632f2E', symObjAddr: 0x0, symBinAddr: 0x1C200, symSize: 0x60 }
  - { offset: 0x9A222, size: 0x8, addend: 0x0, symName: '__ZN5alloc3vec16Vec$LT$T$C$A$GT$17from_raw_parts_in18precondition_check17h002af09169a632f2E', symObjAddr: 0x0, symBinAddr: 0x1C200, symSize: 0x60 }
  - { offset: 0x9A27B, size: 0x8, addend: 0x0, symName: '__ZN5alloc3vec16Vec$LT$T$C$A$GT$7set_len18precondition_check17hc50e8be216610a6aE', symObjAddr: 0x60, symBinAddr: 0x1C260, symSize: 0x60 }
  - { offset: 0x9A325, size: 0x8, addend: 0x0, symName: '__ZN4core3ptr9const_ptr33_$LT$impl$u20$$BP$const$u20$T$GT$13is_aligned_to17h8294ebe58c52772cE', symObjAddr: 0x0, symBinAddr: 0x1C2C0, symSize: 0x88 }
  - { offset: 0x9A38C, size: 0x8, addend: 0x0, symName: '__ZN4core3ptr9const_ptr33_$LT$impl$u20$$BP$const$u20$T$GT$13is_aligned_to17h8294ebe58c52772cE', symObjAddr: 0x0, symBinAddr: 0x1C2C0, symSize: 0x88 }
  - { offset: 0x9A459, size: 0x8, addend: 0x0, symName: __ZN4core5slice3raw14from_raw_parts17he35135f8d742d5a3E, symObjAddr: 0x0, symBinAddr: 0x1C348, symSize: 0x58 }
  - { offset: 0x9A475, size: 0x8, addend: 0x0, symName: __ZN4core5slice3raw14from_raw_parts17he35135f8d742d5a3E, symObjAddr: 0x0, symBinAddr: 0x1C348, symSize: 0x58 }
  - { offset: 0x9A51B, size: 0x8, addend: 0x0, symName: __ZN11planck_core4cost9CostModel13from_topology17h8c47fa1b100566b3E, symObjAddr: 0x0, symBinAddr: 0x1C3A0, symSize: 0x80 }
  - { offset: 0x9A7B5, size: 0x8, addend: 0x0, symName: __ZN11planck_core4cost9CostModel13from_topology17h8c47fa1b100566b3E, symObjAddr: 0x0, symBinAddr: 0x1C3A0, symSize: 0x80 }
  - { offset: 0x9A82C, size: 0x8, addend: 0x0, symName: '__ZN4core3num21_$LT$impl$u20$u16$GT$13unchecked_add18precondition_check17h0e3be828c6d95192E', symObjAddr: 0x0, symBinAddr: 0x1C420, symSize: 0x68 }
  - { offset: 0x9A877, size: 0x8, addend: 0x0, symName: '__ZN4core3num21_$LT$impl$u20$u16$GT$13unchecked_add18precondition_check17h0e3be828c6d95192E', symObjAddr: 0x0, symBinAddr: 0x1C420, symSize: 0x68 }
  - { offset: 0x9A926, size: 0x8, addend: 0x0, symName: '__ZN4core3num23_$LT$impl$u20$usize$GT$13unchecked_add18precondition_check17he9458a7c5074c741E', symObjAddr: 0x68, symBinAddr: 0x1C488, symSize: 0x64 }
  - { offset: 0x9AA40, size: 0x8, addend: 0x0, symName: __ZN4core4hint16assert_unchecked18precondition_check17ha9aa706822604cccE, symObjAddr: 0x0, symBinAddr: 0x1C4EC, symSize: 0x58 }
  - { offset: 0x9AA5C, size: 0x8, addend: 0x0, symName: __ZN4core4hint16assert_unchecked18precondition_check17ha9aa706822604cccE, symObjAddr: 0x0, symBinAddr: 0x1C4EC, symSize: 0x58 }
  - { offset: 0x9AAFE, size: 0x8, addend: 0x0, symName: __ZN4core5slice3raw14from_raw_parts18precondition_check17h962037a5f4a92614E, symObjAddr: 0x0, symBinAddr: 0x1C544, symSize: 0x10C }
  - { offset: 0x9ABE4, size: 0x8, addend: 0x0, symName: __ZN4core5slice3raw14from_raw_parts18precondition_check17h962037a5f4a92614E, symObjAddr: 0x0, symBinAddr: 0x1C544, symSize: 0x10C }
  - { offset: 0x9AD79, size: 0x8, addend: 0x0, symName: '__ZN11planck_core8template12PlanTemplate11instantiate28_$u7b$$u7b$closure$u7d$$u7d$17h4936df796d12e402E', symObjAddr: 0x0, symBinAddr: 0x1C650, symSize: 0x58 }
  - { offset: 0x9AD9A, size: 0x8, addend: 0x0, symName: '__ZN11planck_core8template12PlanTemplate11instantiate28_$u7b$$u7b$closure$u7d$$u7d$17h4936df796d12e402E', symObjAddr: 0x0, symBinAddr: 0x1C650, symSize: 0x58 }
  - { offset: 0x9ADDD, size: 0x8, addend: 0x0, symName: '__ZN11planck_core8template12PlanTemplate9from_plan28_$u7b$$u7b$closure$u7d$$u7d$17h9ddab5e37dcecc19E', symObjAddr: 0x58, symBinAddr: 0x1C6A8, symSize: 0x5C }
  - { offset: 0x9AEAD, size: 0x8, addend: 0x0, symName: '__ZN4core5slice29_$LT$impl$u20$$u5b$T$u5d$$GT$4iter17h5ad0fd6b7a3965ceE', symObjAddr: 0xB4, symBinAddr: 0x1C704, symSize: 0x28 }
  - { offset: 0x9B2A1, size: 0x8, addend: 0x0, symName: '__ZN5alloc5slice29_$LT$impl$u20$$u5b$T$u5d$$GT$8into_vec17h15bda30a968db71bE', symObjAddr: 0xDC, symBinAddr: 0x1C72C, symSize: 0xB4 }
  - { offset: 0x9B6FD, size: 0x8, addend: 0x0, symName: '__ZN4core3cmp5impls50_$LT$impl$u20$core..cmp..Ord$u20$for$u20$usize$GT$3cmp17h9b46fb7c498620a2E', symObjAddr: 0x0, symBinAddr: 0x1C7E0, symSize: 0x38 }
  - { offset: 0x9B73C, size: 0x8, addend: 0x0, symName: '__ZN4core3cmp5impls50_$LT$impl$u20$core..cmp..Ord$u20$for$u20$usize$GT$3cmp17h9b46fb7c498620a2E', symObjAddr: 0x0, symBinAddr: 0x1C7E0, symSize: 0x38 }
  - { offset: 0x9B7B6, size: 0x8, addend: 0x0, symName: '__ZN47_$LT$u16$u20$as$u20$core..iter..range..Step$GT$17forward_unchecked17haefe52aa235bbbb6E', symObjAddr: 0x0, symBinAddr: 0x1C818, symSize: 0x5C }
  - { offset: 0x9B83D, size: 0x8, addend: 0x0, symName: '__ZN47_$LT$u16$u20$as$u20$core..iter..range..Step$GT$17forward_unchecked17haefe52aa235bbbb6E', symObjAddr: 0x0, symBinAddr: 0x1C818, symSize: 0x5C }
  - { offset: 0x9B8A2, size: 0x8, addend: 0x0, symName: '__ZN49_$LT$usize$u20$as$u20$core..iter..range..Step$GT$17forward_unchecked17h38d89cbb99a3d464E', symObjAddr: 0xE8, symBinAddr: 0x1C874, symSize: 0x50 }
  - { offset: 0x9B938, size: 0x8, addend: 0x0, symName: __ZN4core3ptr19copy_nonoverlapping18precondition_check17hdeb63ba52acba836E, symObjAddr: 0x0, symBinAddr: 0x1C8C4, symSize: 0x168 }
  - { offset: 0x9BA20, size: 0x8, addend: 0x0, symName: __ZN4core3ptr19copy_nonoverlapping18precondition_check17hdeb63ba52acba836E, symObjAddr: 0x0, symBinAddr: 0x1C8C4, symSize: 0x168 }
  - { offset: 0x9BCAE, size: 0x8, addend: 0x0, symName: '__ZN45_$LT$T$u20$as$u20$alloc..string..ToString$GT$9to_string17he3a431f38149bd26E', symObjAddr: 0x62CC, symBinAddr: 0x1DB00, symSize: 0x24 }
  - { offset: 0x9BCEB, size: 0x8, addend: 0x0, symName: '__ZN49_$LT$T$u20$as$u20$alloc..string..SpecToString$GT$14spec_to_string17h0eebb346e16b07eaE', symObjAddr: 0x62F0, symBinAddr: 0x1DB24, symSize: 0xF4 }
  - { offset: 0x9C1F1, size: 0x8, addend: 0x0, symName: '__ZN42_$LT$$RF$T$u20$as$u20$core..fmt..Debug$GT$3fmt17h536ed8dd9c28e092E', symObjAddr: 0x61AC, symBinAddr: 0x1DA70, symSize: 0x30 }
  - { offset: 0x9C23D, size: 0x8, addend: 0x0, symName: '__ZN44_$LT$$RF$T$u20$as$u20$core..fmt..Display$GT$3fmt17h518daf8ed3f67721E', symObjAddr: 0x61DC, symBinAddr: 0x1DAA0, symSize: 0x30 }
  - { offset: 0x9C283, size: 0x8, addend: 0x0, symName: '__ZN44_$LT$$RF$T$u20$as$u20$core..fmt..Display$GT$3fmt17he4209ec7fa3bde14E', symObjAddr: 0x620C, symBinAddr: 0x1DAD0, symSize: 0x30 }
  - { offset: 0x9C43C, size: 0x8, addend: 0x0, symName: '__ZN4core5array4iter94_$LT$impl$u20$core..iter..traits..collect..IntoIterator$u20$for$u20$$u5b$T$u3b$$u20$N$u5d$$GT$9into_iter17hc75d81de73244fa1E', symObjAddr: 0x643C, symBinAddr: 0x1DC18, symSize: 0x68 }
  - { offset: 0x9DDB7, size: 0x8, addend: 0x0, symName: '__ZN50_$LT$T$u20$as$u20$core..convert..Into$LT$U$GT$$GT$4into17h378ef4a65db1069fE', symObjAddr: 0xC7FC, symBinAddr: 0x1FF2C, symSize: 0x24 }
  - { offset: 0x9DDF7, size: 0x8, addend: 0x0, symName: '__ZN50_$LT$T$u20$as$u20$core..convert..Into$LT$U$GT$$GT$4into17h54c6800f78e09799E', symObjAddr: 0xC868, symBinAddr: 0x1FF50, symSize: 0x24 }
  - { offset: 0x9DE37, size: 0x8, addend: 0x0, symName: '__ZN50_$LT$T$u20$as$u20$core..convert..Into$LT$U$GT$$GT$4into17h64d54008a33948c0E', symObjAddr: 0xC88C, symBinAddr: 0x1FF74, symSize: 0x24 }
  - { offset: 0x9DE77, size: 0x8, addend: 0x0, symName: '__ZN50_$LT$T$u20$as$u20$core..convert..Into$LT$U$GT$$GT$4into17h6e8aaea7a4b8fbc3E', symObjAddr: 0xC8B0, symBinAddr: 0x1FF98, symSize: 0x24 }
  - { offset: 0x9DEB7, size: 0x8, addend: 0x0, symName: '__ZN50_$LT$T$u20$as$u20$core..convert..Into$LT$U$GT$$GT$4into17h7a5e9eeac047d1a9E', symObjAddr: 0xC8F8, symBinAddr: 0x1FFBC, symSize: 0x24 }
  - { offset: 0x9DEF7, size: 0x8, addend: 0x0, symName: '__ZN50_$LT$T$u20$as$u20$core..convert..Into$LT$U$GT$$GT$4into17ha8642a6c3fe9d550E', symObjAddr: 0xC91C, symBinAddr: 0x1FFE0, symSize: 0x24 }
  - { offset: 0x9E784, size: 0x8, addend: 0x0, symName: '__ZN103_$LT$pyo3..instance..Bound$LT$pyo3..types..any..PyAny$GT$$u20$as$u20$pyo3..types..any..PyAnyMethods$GT$13downcast_into17h81714f1d97df2858E', symObjAddr: 0x738, symBinAddr: 0x1CA2C, symSize: 0xE8 }
  - { offset: 0x9E7BB, size: 0x8, addend: 0x0, symName: '__ZN103_$LT$pyo3..instance..Bound$LT$pyo3..types..any..PyAny$GT$$u20$as$u20$pyo3..types..any..PyAnyMethods$GT$13downcast_into17hc4b131da7f55326fE', symObjAddr: 0x908, symBinAddr: 0x1CB14, symSize: 0xE8 }
  - { offset: 0x9E7F2, size: 0x8, addend: 0x0, symName: '__ZN103_$LT$pyo3..instance..Bound$LT$pyo3..types..any..PyAny$GT$$u20$as$u20$pyo3..types..any..PyAnyMethods$GT$18downcast_unchecked17h122b71e8c4e16d78E', symObjAddr: 0xC44, symBinAddr: 0x1CBFC, symSize: 0x74 }
  - { offset: 0x9E829, size: 0x8, addend: 0x0, symName: '__ZN103_$LT$pyo3..instance..Bound$LT$pyo3..types..any..PyAny$GT$$u20$as$u20$pyo3..types..any..PyAnyMethods$GT$23downcast_into_unchecked17h3e94974a304690d8E', symObjAddr: 0x1034, symBinAddr: 0x1CC70, symSize: 0x14 }
  - { offset: 0x9E860, size: 0x8, addend: 0x0, symName: '__ZN103_$LT$pyo3..instance..Bound$LT$pyo3..types..any..PyAny$GT$$u20$as$u20$pyo3..types..any..PyAnyMethods$GT$23downcast_into_unchecked17h563b7cb91f561c2dE', symObjAddr: 0x105C, symBinAddr: 0x1CC84, symSize: 0x14 }
  - { offset: 0x9E897, size: 0x8, addend: 0x0, symName: '__ZN103_$LT$pyo3..instance..Bound$LT$pyo3..types..any..PyAny$GT$$u20$as$u20$pyo3..types..any..PyAnyMethods$GT$23downcast_into_unchecked17h574784af092c71d9E', symObjAddr: 0x1070, symBinAddr: 0x1CC98, symSize: 0x14 }
  - { offset: 0x9E8CE, size: 0x8, addend: 0x0, symName: '__ZN103_$LT$pyo3..instance..Bound$LT$pyo3..types..any..PyAny$GT$$u20$as$u20$pyo3..types..any..PyAnyMethods$GT$23downcast_into_unchecked17h7bdf49e73068f2a9E', symObjAddr: 0x10D4, symBinAddr: 0x1CCAC, symSize: 0x14 }
  - { offset: 0x9E905, size: 0x8, addend: 0x0, symName: '__ZN103_$LT$pyo3..instance..Bound$LT$pyo3..types..any..PyAny$GT$$u20$as$u20$pyo3..types..any..PyAnyMethods$GT$23downcast_into_unchecked17h7fc3e06543ecdcd3E', symObjAddr: 0x10FC, symBinAddr: 0x1CCC0, symSize: 0x14 }
  - { offset: 0x9E93C, size: 0x8, addend: 0x0, symName: '__ZN103_$LT$pyo3..instance..Bound$LT$pyo3..types..any..PyAny$GT$$u20$as$u20$pyo3..types..any..PyAnyMethods$GT$23downcast_into_unchecked17ha6a9bdfc342335f9E', symObjAddr: 0x1160, symBinAddr: 0x1CCD4, symSize: 0x14 }
  - { offset: 0x9E973, size: 0x8, addend: 0x0, symName: '__ZN103_$LT$pyo3..instance..Bound$LT$pyo3..types..any..PyAny$GT$$u20$as$u20$pyo3..types..any..PyAnyMethods$GT$2is17haf74168c14166669E', symObjAddr: 0x11EC, symBinAddr: 0x1CCE8, symSize: 0x4C }
  - { offset: 0x9E9B9, size: 0x8, addend: 0x0, symName: '__ZN103_$LT$pyo3..instance..Bound$LT$pyo3..types..any..PyAny$GT$$u20$as$u20$pyo3..types..any..PyAnyMethods$GT$3str17hfb3d9dea4eadaec9E', symObjAddr: 0x167C, symBinAddr: 0x1CD34, symSize: 0x5C }
  - { offset: 0x9E9E7, size: 0x8, addend: 0x0, symName: '__ZN103_$LT$pyo3..instance..Bound$LT$pyo3..types..any..PyAny$GT$$u20$as$u20$pyo3..types..any..PyAnyMethods$GT$4repr17h5aaac23625f99d9fE', symObjAddr: 0x1838, symBinAddr: 0x1CD90, symSize: 0x5C }
  - { offset: 0x9EA15, size: 0x8, addend: 0x0, symName: '__ZN103_$LT$pyo3..instance..Bound$LT$pyo3..types..any..PyAny$GT$$u20$as$u20$pyo3..types..any..PyAnyMethods$GT$7extract17hc11f33b35da2c928E', symObjAddr: 0x1D58, symBinAddr: 0x1CDEC, symSize: 0x30 }
  - { offset: 0x9EA4C, size: 0x8, addend: 0x0, symName: '__ZN103_$LT$pyo3..instance..Bound$LT$pyo3..types..any..PyAny$GT$$u20$as$u20$pyo3..types..any..PyAnyMethods$GT$7extract17hdc229bb3d3168a3eE', symObjAddr: 0x1DB8, symBinAddr: 0x1CE1C, symSize: 0x30 }
  - { offset: 0x9EA83, size: 0x8, addend: 0x0, symName: '__ZN103_$LT$pyo3..instance..Bound$LT$pyo3..types..any..PyAny$GT$$u20$as$u20$pyo3..types..any..PyAnyMethods$GT$7getattr17hcefb06279a9af912E', symObjAddr: 0x1F08, symBinAddr: 0x1CE4C, symSize: 0xE4 }
  - { offset: 0x9EADF, size: 0x8, addend: 0x0, symName: '__ZN103_$LT$pyo3..instance..Bound$LT$pyo3..types..any..PyAny$GT$$u20$as$u20$pyo3..types..any..PyAnyMethods$GT$7setattr17h69edae2bb67a820bE', symObjAddr: 0x2030, symBinAddr: 0x1CF30, symSize: 0x11C }
  - { offset: 0x9EB54, size: 0x8, addend: 0x0, symName: '__ZN103_$LT$pyo3..instance..Bound$LT$pyo3..types..any..PyAny$GT$$u20$as$u20$pyo3..types..any..PyAnyMethods$GT$7setattr17h8f6aa1d6c89f1645E', symObjAddr: 0x214C, symBinAddr: 0x1D04C, symSize: 0x140 }
  - { offset: 0x9EBC8, size: 0x8, addend: 0x0, symName: '__ZN103_$LT$pyo3..instance..Bound$LT$pyo3..types..any..PyAny$GT$$u20$as$u20$pyo3..types..any..PyAnyMethods$GT$8downcast17h4a31a6a935f64a89E', symObjAddr: 0x2310, symBinAddr: 0x1D18C, symSize: 0x84 }
  - { offset: 0x9EBFF, size: 0x8, addend: 0x0, symName: '__ZN103_$LT$pyo3..instance..Bound$LT$pyo3..types..any..PyAny$GT$$u20$as$u20$pyo3..types..any..PyAnyMethods$GT$8get_type17h42f9e7da62de11c8E', symObjAddr: 0x2624, symBinAddr: 0x1D210, symSize: 0x38 }
  - { offset: 0x9EC4E, size: 0x8, addend: 0x0, symName: '__ZN107_$LT$pyo3..instance..Bound$LT$pyo3..types..list..PyList$GT$$u20$as$u20$pyo3..types..list..PyListMethods$GT$6append17h6ec48c2099fed08fE', symObjAddr: 0x2D68, symBinAddr: 0x1D2B4, symSize: 0x80 }
  - { offset: 0x9ECD3, size: 0x8, addend: 0x0, symName: '__ZN111_$LT$pyo3..instance..Bound$LT$pyo3..types..bytes..PyBytes$GT$$u20$as$u20$pyo3..types..bytes..PyBytesMethods$GT$8as_bytes17h95e80885f0e2ea83E', symObjAddr: 0x2F88, symBinAddr: 0x1D334, symSize: 0x28 }
  - { offset: 0x9ED20, size: 0x8, addend: 0x0, symName: '__ZN111_$LT$pyo3..instance..Bound$LT$pyo3..types..tuple..PyTuple$GT$$u20$as$u20$pyo3..types..tuple..PyTupleMethods$GT$3len17h2b9b51a4bba36dc6E', symObjAddr: 0x31F0, symBinAddr: 0x1D35C, symSize: 0x2C }
  - { offset: 0x9ED9C, size: 0x8, addend: 0x0, symName: '__ZN115_$LT$pyo3..instance..Bound$LT$pyo3..types..module..PyModule$GT$$u20$as$u20$pyo3..types..module..PyModuleMethods$GT$5index17hc1e869ad4d6e1c2cE', symObjAddr: 0x3D24, symBinAddr: 0x1D388, symSize: 0x248 }
  - { offset: 0x9EE6F, size: 0x8, addend: 0x0, symName: '__ZN115_$LT$pyo3..instance..Bound$LT$pyo3..types..string..PyString$GT$$u20$as$u20$pyo3..types..string..PyStringMethods$GT$15to_string_lossy17hd62543a77bfa6e9bE', symObjAddr: 0x4024, symBinAddr: 0x1D5D0, symSize: 0x30 }
  - { offset: 0x9EE9D, size: 0x8, addend: 0x0, symName: '__ZN115_$LT$pyo3..instance..Bound$LT$pyo3..types..string..PyString$GT$$u20$as$u20$pyo3..types..string..PyStringMethods$GT$6to_cow17h877c2c23f3036d72E', symObjAddr: 0x4084, symBinAddr: 0x1D600, symSize: 0x30 }
  - { offset: 0x9EED1, size: 0x8, addend: 0x0, symName: '__ZN4pyo35types6string176_$LT$impl$u20$pyo3..conversion..IntoPy$LT$pyo3..instance..Py$LT$pyo3..types..string..PyString$GT$$GT$$u20$for$u20$pyo3..instance..Bound$LT$pyo3..types..string..PyString$GT$$GT$7into_py17h4ff97fd638cb877cE', symObjAddr: 0x7174, symBinAddr: 0x1DDA4, symSize: 0x24 }
  - { offset: 0x9EF20, size: 0x8, addend: 0x0, symName: '__ZN4pyo35types6string180_$LT$impl$u20$pyo3..conversion..IntoPy$LT$pyo3..instance..Py$LT$pyo3..types..string..PyString$GT$$GT$$u20$for$u20$$RF$pyo3..instance..Bound$LT$pyo3..types..string..PyString$GT$$GT$7into_py17hf4a7107d831d79fdE', symObjAddr: 0x71BC, symBinAddr: 0x1DDC8, symSize: 0x28 }
  - { offset: 0x9F009, size: 0x8, addend: 0x0, symName: '__ZN119_$LT$pyo3..instance..Bound$LT$pyo3..types..typeobject..PyType$GT$$u20$as$u20$pyo3..types..typeobject..PyTypeMethods$GT$11as_type_ptr17hfdfa307e47eb3b0fE', symObjAddr: 0x483C, symBinAddr: 0x1D630, symSize: 0x24 }
  - { offset: 0x9F035, size: 0x8, addend: 0x0, symName: '__ZN119_$LT$pyo3..instance..Bound$LT$pyo3..types..typeobject..PyType$GT$$u20$as$u20$pyo3..types..typeobject..PyTypeMethods$GT$4name17h965e7a3a4699cfd0E', symObjAddr: 0x4AB4, symBinAddr: 0x1D654, symSize: 0xC8 }
  - { offset: 0x9F09C, size: 0x8, addend: 0x0, symName: '__ZN119_$LT$pyo3..instance..Bound$LT$pyo3..types..typeobject..PyType$GT$$u20$as$u20$pyo3..types..typeobject..PyTypeMethods$GT$8qualname17h779ec89d8ab20d2eE', symObjAddr: 0x4D4C, symBinAddr: 0x1D71C, symSize: 0xC8 }
  - { offset: 0x9F191, size: 0x8, addend: 0x0, symName: '__ZN105_$LT$pyo3..instance..Py$LT$T$GT$$u20$as$u20$core..convert..From$LT$pyo3..instance..Bound$LT$T$GT$$GT$$GT$4from17h02060a28d73734bcE', symObjAddr: 0x28AC, symBinAddr: 0x1D248, symSize: 0x24 }
  - { offset: 0x9F1C8, size: 0x8, addend: 0x0, symName: '__ZN105_$LT$pyo3..instance..Py$LT$T$GT$$u20$as$u20$core..convert..From$LT$pyo3..instance..Bound$LT$T$GT$$GT$$GT$4from17h0e8a6038c3fe234dE', symObjAddr: 0x28D0, symBinAddr: 0x1D26C, symSize: 0x24 }
  - { offset: 0x9F1FF, size: 0x8, addend: 0x0, symName: '__ZN105_$LT$pyo3..instance..Py$LT$T$GT$$u20$as$u20$core..convert..From$LT$pyo3..instance..Bound$LT$T$GT$$GT$$GT$4from17hdf5147a4980667b1E', symObjAddr: 0x28F4, symBinAddr: 0x1D290, symSize: 0x24 }
  - { offset: 0x9F23C, size: 0x8, addend: 0x0, symName: '__ZN124_$LT$pyo3..instance..Py$LT$pyo3..types..any..PyAny$GT$$u20$as$u20$core..convert..From$LT$pyo3..instance..Py$LT$T$GT$$GT$$GT$4from17h2448afe3bab33b17E', symObjAddr: 0x4F88, symBinAddr: 0x1D7E4, symSize: 0x24 }
  - { offset: 0x9F279, size: 0x8, addend: 0x0, symName: '__ZN127_$LT$pyo3..instance..Py$LT$pyo3..types..any..PyAny$GT$$u20$as$u20$core..convert..From$LT$pyo3..instance..Bound$LT$T$GT$$GT$$GT$4from17h8e25617dc47ae5deE', symObjAddr: 0x59A0, symBinAddr: 0x1D808, symSize: 0x84 }
  - { offset: 0x9F2CE, size: 0x8, addend: 0x0, symName: '__ZN127_$LT$pyo3..instance..Py$LT$pyo3..types..any..PyAny$GT$$u20$as$u20$core..convert..From$LT$pyo3..instance..Bound$LT$T$GT$$GT$$GT$4from17hd5ceee22a878e241E', symObjAddr: 0x5AA8, symBinAddr: 0x1D88C, symSize: 0x84 }
  - { offset: 0x9F329, size: 0x8, addend: 0x0, symName: '__ZN129_$LT$pyo3..instance..Py$LT$T$GT$$u20$as$u20$pyo3..conversion..IntoPy$LT$pyo3..instance..Py$LT$pyo3..types..any..PyAny$GT$$GT$$GT$7into_py17h37fffa7866a67bb6E', symObjAddr: 0x5BB0, symBinAddr: 0x1D910, symSize: 0x24 }
  - { offset: 0x9F381, size: 0x8, addend: 0x0, symName: '__ZN132_$LT$pyo3..instance..Bound$LT$T$GT$$u20$as$u20$pyo3..conversion..IntoPy$LT$pyo3..instance..Py$LT$pyo3..types..any..PyAny$GT$$GT$$GT$7into_py17h065365bfa0aed428E', symObjAddr: 0x5BD4, symBinAddr: 0x1D934, symSize: 0x28 }
  - { offset: 0x9F3D3, size: 0x8, addend: 0x0, symName: '__ZN132_$LT$pyo3..instance..Bound$LT$T$GT$$u20$as$u20$pyo3..conversion..IntoPy$LT$pyo3..instance..Py$LT$pyo3..types..any..PyAny$GT$$GT$$GT$7into_py17h078ec98432153829E', symObjAddr: 0x5BFC, symBinAddr: 0x1D95C, symSize: 0x28 }
  - { offset: 0x9F425, size: 0x8, addend: 0x0, symName: '__ZN132_$LT$pyo3..instance..Bound$LT$T$GT$$u20$as$u20$pyo3..conversion..IntoPy$LT$pyo3..instance..Py$LT$pyo3..types..any..PyAny$GT$$GT$$GT$7into_py17h1f7a05bf1f0d3f51E', symObjAddr: 0x5C24, symBinAddr: 0x1D984, symSize: 0x28 }
  - { offset: 0x9F477, size: 0x8, addend: 0x0, symName: '__ZN132_$LT$pyo3..instance..Bound$LT$T$GT$$u20$as$u20$pyo3..conversion..IntoPy$LT$pyo3..instance..Py$LT$pyo3..types..any..PyAny$GT$$GT$$GT$7into_py17habd58c61306a7223E', symObjAddr: 0x5D3C, symBinAddr: 0x1D9AC, symSize: 0x28 }
  - { offset: 0x9F4C9, size: 0x8, addend: 0x0, symName: '__ZN132_$LT$pyo3..instance..Bound$LT$T$GT$$u20$as$u20$pyo3..conversion..IntoPy$LT$pyo3..instance..Py$LT$pyo3..types..any..PyAny$GT$$GT$$GT$7into_py17hb9a906631f48d434E', symObjAddr: 0x5D8C, symBinAddr: 0x1D9D4, symSize: 0x28 }
  - { offset: 0x9F51B, size: 0x8, addend: 0x0, symName: '__ZN132_$LT$pyo3..instance..Bound$LT$T$GT$$u20$as$u20$pyo3..conversion..IntoPy$LT$pyo3..instance..Py$LT$pyo3..types..any..PyAny$GT$$GT$$GT$7into_py17he3a0dc61c2c6dddaE', symObjAddr: 0x5DB4, symBinAddr: 0x1D9FC, symSize: 0x28 }
  - { offset: 0x9F573, size: 0x8, addend: 0x0, symName: '__ZN135_$LT$pyo3..instance..Borrowed$LT$T$GT$$u20$as$u20$pyo3..conversion..IntoPy$LT$pyo3..instance..Py$LT$pyo3..types..any..PyAny$GT$$GT$$GT$7into_py17h2fe3361978456008E', symObjAddr: 0x5E28, symBinAddr: 0x1DA24, symSize: 0x28 }
  - { offset: 0x9F5CB, size: 0x8, addend: 0x0, symName: '__ZN136_$LT$$RF$pyo3..instance..Bound$LT$T$GT$$u20$as$u20$pyo3..conversion..IntoPy$LT$pyo3..instance..Py$LT$pyo3..types..any..PyAny$GT$$GT$$GT$7into_py17hc333587c99df69aeE', symObjAddr: 0x6024, symBinAddr: 0x1DA4C, symSize: 0x24 }
  - { offset: 0xA06F3, size: 0x8, addend: 0x0, symName: '__ZN4pyo38instance11Py$LT$T$GT$21from_owned_ptr_or_opt28_$u7b$$u7b$closure$u7d$$u7d$17h8c82aed608b01ad1E', symObjAddr: 0x8C88, symBinAddr: 0x1E3D0, symSize: 0x14 }
  - { offset: 0xA0735, size: 0x8, addend: 0x0, symName: '__ZN4pyo38instance11Py$LT$T$GT$21from_owned_ptr_or_opt28_$u7b$$u7b$closure$u7d$$u7d$17h974e502ae9e5be2bE', symObjAddr: 0x8C9C, symBinAddr: 0x1E3E4, symSize: 0x14 }
  - { offset: 0xA0A56, size: 0x8, addend: 0x0, symName: __ZN4pyo38instance13python_format17hdd1be74f6ee83befE, symObjAddr: 0xA70C, symBinAddr: 0x1F000, symSize: 0x2E8 }
  - { offset: 0xA0EB8, size: 0x8, addend: 0x0, symName: '__ZN4pyo38instance36Bound$LT$pyo3..types..any..PyAny$GT$21from_owned_ptr_or_err28_$u7b$$u7b$closure$u7d$$u7d$17h17271417765f9402E', symObjAddr: 0xC39C, symBinAddr: 0x1FCF0, symSize: 0x28 }
  - { offset: 0xA0F16, size: 0x8, addend: 0x0, symName: '__ZN4pyo38instance36Bound$LT$pyo3..types..any..PyAny$GT$21from_owned_ptr_or_opt28_$u7b$$u7b$closure$u7d$$u7d$17h16ce342a55934119E', symObjAddr: 0xC3F0, symBinAddr: 0x1FD44, symSize: 0x28 }
  - { offset: 0xA0F7A, size: 0x8, addend: 0x0, symName: '__ZN4pyo38instance39Borrowed$LT$pyo3..types..any..PyAny$GT$8from_ptr28_$u7b$$u7b$closure$u7d$$u7d$17h63bed6c58cfc4ea1E', symObjAddr: 0xC718, symBinAddr: 0x1FE90, symSize: 0x1C }
  - { offset: 0xA0FCE, size: 0x8, addend: 0x0, symName: '__ZN67_$LT$pyo3..instance..Bound$LT$T$GT$$u20$as$u20$core..fmt..Debug$GT$3fmt17h0f857d674757e719E', symObjAddr: 0xCA48, symBinAddr: 0x20078, symSize: 0x54 }
  - { offset: 0xA1032, size: 0x8, addend: 0x0, symName: '__ZN67_$LT$pyo3..instance..Bound$LT$T$GT$$u20$as$u20$core..fmt..Debug$GT$3fmt17h2dab6103d3f5a6c3E', symObjAddr: 0xCA9C, symBinAddr: 0x200CC, symSize: 0x54 }
  - { offset: 0xA1096, size: 0x8, addend: 0x0, symName: '__ZN67_$LT$pyo3..instance..Bound$LT$T$GT$$u20$as$u20$core..fmt..Debug$GT$3fmt17hfa387e125abb860dE', symObjAddr: 0xCAF0, symBinAddr: 0x20120, symSize: 0x54 }
  - { offset: 0xA1100, size: 0x8, addend: 0x0, symName: '__ZN69_$LT$pyo3..instance..Bound$LT$T$GT$$u20$as$u20$core..clone..Clone$GT$5clone17h14640d2e12fb994aE', symObjAddr: 0xCB44, symBinAddr: 0x20174, symSize: 0x34 }
  - { offset: 0xA1137, size: 0x8, addend: 0x0, symName: '__ZN69_$LT$pyo3..instance..Bound$LT$T$GT$$u20$as$u20$core..clone..Clone$GT$5clone17h15c11a1e5e5fb606E', symObjAddr: 0xCB78, symBinAddr: 0x201A8, symSize: 0x34 }
  - { offset: 0xA116E, size: 0x8, addend: 0x0, symName: '__ZN69_$LT$pyo3..instance..Bound$LT$T$GT$$u20$as$u20$core..clone..Clone$GT$5clone17h295b672b99e81458E', symObjAddr: 0xCBE0, symBinAddr: 0x201DC, symSize: 0x34 }
  - { offset: 0xA11A5, size: 0x8, addend: 0x0, symName: '__ZN69_$LT$pyo3..instance..Bound$LT$T$GT$$u20$as$u20$core..clone..Clone$GT$5clone17hf236903485dac8c2E', symObjAddr: 0xCDE8, symBinAddr: 0x20210, symSize: 0x34 }
  - { offset: 0xA11DC, size: 0x8, addend: 0x0, symName: '__ZN69_$LT$pyo3..instance..Bound$LT$T$GT$$u20$as$u20$core..clone..Clone$GT$5clone17hfd40836dc230f4a3E', symObjAddr: 0xCE1C, symBinAddr: 0x20244, symSize: 0x34 }
  - { offset: 0xA1219, size: 0x8, addend: 0x0, symName: '__ZN69_$LT$pyo3..instance..Bound$LT$T$GT$$u20$as$u20$core..fmt..Display$GT$3fmt17h348e38bd0f045e51E', symObjAddr: 0xCE50, symBinAddr: 0x20278, symSize: 0x54 }
  - { offset: 0xA127D, size: 0x8, addend: 0x0, symName: '__ZN69_$LT$pyo3..instance..Bound$LT$T$GT$$u20$as$u20$core..fmt..Display$GT$3fmt17h369501a36e7118a8E', symObjAddr: 0xCEA4, symBinAddr: 0x202CC, symSize: 0x54 }
  - { offset: 0xA12E1, size: 0x8, addend: 0x0, symName: '__ZN69_$LT$pyo3..instance..Bound$LT$T$GT$$u20$as$u20$core..fmt..Display$GT$3fmt17hb00ce6190043788dE', symObjAddr: 0xCEF8, symBinAddr: 0x20320, symSize: 0x54 }
  - { offset: 0xA134B, size: 0x8, addend: 0x0, symName: '__ZN69_$LT$pyo3..instance..Py$LT$T$GT$$u20$as$u20$core..ops..drop..Drop$GT$4drop17h04446207acc8532dE', symObjAddr: 0xCFA0, symBinAddr: 0x20374, symSize: 0x28 }
  - { offset: 0xA137E, size: 0x8, addend: 0x0, symName: '__ZN69_$LT$pyo3..instance..Py$LT$T$GT$$u20$as$u20$core..ops..drop..Drop$GT$4drop17h1bdca1294790704bE', symObjAddr: 0xCFC8, symBinAddr: 0x2039C, symSize: 0x28 }
  - { offset: 0xA13B1, size: 0x8, addend: 0x0, symName: '__ZN69_$LT$pyo3..instance..Py$LT$T$GT$$u20$as$u20$core..ops..drop..Drop$GT$4drop17hac008bd8318c3663E', symObjAddr: 0xD018, symBinAddr: 0x203C4, symSize: 0x28 }
  - { offset: 0xA13E4, size: 0x8, addend: 0x0, symName: '__ZN69_$LT$pyo3..instance..Py$LT$T$GT$$u20$as$u20$core..ops..drop..Drop$GT$4drop17hd59c03e0ec5bd113E', symObjAddr: 0xD040, symBinAddr: 0x203EC, symSize: 0x28 }
  - { offset: 0xA1417, size: 0x8, addend: 0x0, symName: '__ZN69_$LT$pyo3..instance..Py$LT$T$GT$$u20$as$u20$core..ops..drop..Drop$GT$4drop17hd9f043a27cfb7edfE', symObjAddr: 0xD068, symBinAddr: 0x20414, symSize: 0x28 }
  - { offset: 0xA144A, size: 0x8, addend: 0x0, symName: '__ZN69_$LT$pyo3..instance..Py$LT$T$GT$$u20$as$u20$core..ops..drop..Drop$GT$4drop17hfe7890d6f2640a32E', symObjAddr: 0xD090, symBinAddr: 0x2043C, symSize: 0x28 }
  - { offset: 0xA1483, size: 0x8, addend: 0x0, symName: '__ZN72_$LT$pyo3..instance..Bound$LT$T$GT$$u20$as$u20$core..ops..drop..Drop$GT$4drop17h2b8fdb4fd45c5f6cE', symObjAddr: 0xD3F8, symBinAddr: 0x20464, symSize: 0x1A0 }
  - { offset: 0xA14F2, size: 0x8, addend: 0x0, symName: '__ZN72_$LT$pyo3..instance..Bound$LT$T$GT$$u20$as$u20$core..ops..drop..Drop$GT$4drop17h37dd033952139949E', symObjAddr: 0xD738, symBinAddr: 0x20604, symSize: 0x1A0 }
  - { offset: 0xA1561, size: 0x8, addend: 0x0, symName: '__ZN72_$LT$pyo3..instance..Bound$LT$T$GT$$u20$as$u20$core..ops..drop..Drop$GT$4drop17h48641cb227491486E', symObjAddr: 0xD8D8, symBinAddr: 0x207A4, symSize: 0x1A0 }
  - { offset: 0xA15D0, size: 0x8, addend: 0x0, symName: '__ZN72_$LT$pyo3..instance..Bound$LT$T$GT$$u20$as$u20$core..ops..drop..Drop$GT$4drop17h9cf97eb411bea181E', symObjAddr: 0xE298, symBinAddr: 0x20944, symSize: 0x1A0 }
  - { offset: 0xA163F, size: 0x8, addend: 0x0, symName: '__ZN72_$LT$pyo3..instance..Bound$LT$T$GT$$u20$as$u20$core..ops..drop..Drop$GT$4drop17hb38c847954770780E', symObjAddr: 0xE5D8, symBinAddr: 0x20AE4, symSize: 0x1A0 }
  - { offset: 0xA16AE, size: 0x8, addend: 0x0, symName: '__ZN72_$LT$pyo3..instance..Bound$LT$T$GT$$u20$as$u20$core..ops..drop..Drop$GT$4drop17hc7fe3c8e5c08b634E', symObjAddr: 0xE918, symBinAddr: 0x20C84, symSize: 0x1A0 }
  - { offset: 0xA171D, size: 0x8, addend: 0x0, symName: '__ZN72_$LT$pyo3..instance..Bound$LT$T$GT$$u20$as$u20$core..ops..drop..Drop$GT$4drop17hd155bc7fe365034bE', symObjAddr: 0xEAB8, symBinAddr: 0x20E24, symSize: 0x1A0 }
  - { offset: 0xA1792, size: 0x8, addend: 0x0, symName: '__ZN74_$LT$pyo3..instance..Bound$LT$T$GT$$u20$as$u20$core..ops..deref..Deref$GT$5deref17h7a473035bd79cce3E', symObjAddr: 0xF368, symBinAddr: 0x20FC4, symSize: 0x24 }
  - { offset: 0xA17C9, size: 0x8, addend: 0x0, symName: '__ZN74_$LT$pyo3..instance..Bound$LT$T$GT$$u20$as$u20$core..ops..deref..Deref$GT$5deref17h8666e05750b44012E', symObjAddr: 0xF3B0, symBinAddr: 0x20FE8, symSize: 0x24 }
  - { offset: 0xA1800, size: 0x8, addend: 0x0, symName: '__ZN74_$LT$pyo3..instance..Bound$LT$T$GT$$u20$as$u20$core..ops..deref..Deref$GT$5deref17h985e79de17e69a64E', symObjAddr: 0xF3D4, symBinAddr: 0x2100C, symSize: 0x24 }
  - { offset: 0xA183D, size: 0x8, addend: 0x0, symName: '__ZN76_$LT$pyo3..instance..Py$LT$T$GT$$u20$as$u20$pyo3..conversion..ToPyObject$GT$9to_object17hfe312f8fab3e3bbfE', symObjAddr: 0xF468, symBinAddr: 0x21030, symSize: 0x28 }
  - { offset: 0xA1895, size: 0x8, addend: 0x0, symName: '__ZN77_$LT$pyo3..instance..Borrowed$LT$T$GT$$u20$as$u20$core..ops..deref..Deref$GT$5deref17h27f32e39e5f5cf8eE', symObjAddr: 0xF504, symBinAddr: 0x21058, symSize: 0x74 }
  - { offset: 0xA18CC, size: 0x8, addend: 0x0, symName: '__ZN77_$LT$pyo3..instance..Borrowed$LT$T$GT$$u20$as$u20$core..ops..deref..Deref$GT$5deref17h66335208b8d6649aE', symObjAddr: 0xF578, symBinAddr: 0x210CC, symSize: 0x74 }
  - { offset: 0xA1903, size: 0x8, addend: 0x0, symName: '__ZN77_$LT$pyo3..instance..Borrowed$LT$T$GT$$u20$as$u20$core..ops..deref..Deref$GT$5deref17h742bb55ef8864566E', symObjAddr: 0xF5EC, symBinAddr: 0x21140, symSize: 0x74 }
  - { offset: 0xA193A, size: 0x8, addend: 0x0, symName: '__ZN77_$LT$pyo3..instance..Borrowed$LT$T$GT$$u20$as$u20$core..ops..deref..Deref$GT$5deref17h96365f4a2523f04aE', symObjAddr: 0xF6D4, symBinAddr: 0x211B4, symSize: 0x74 }
  - { offset: 0xA1971, size: 0x8, addend: 0x0, symName: '__ZN77_$LT$pyo3..instance..Borrowed$LT$T$GT$$u20$as$u20$core..ops..deref..Deref$GT$5deref17hd46e701540f12016E', symObjAddr: 0xF830, symBinAddr: 0x21228, symSize: 0x74 }
  - { offset: 0xA19A8, size: 0x8, addend: 0x0, symName: '__ZN77_$LT$pyo3..instance..Borrowed$LT$T$GT$$u20$as$u20$core..ops..deref..Deref$GT$5deref17hf6e36fe6fbb2c4a8E', symObjAddr: 0xF918, symBinAddr: 0x2129C, symSize: 0x74 }
  - { offset: 0xA19E5, size: 0x8, addend: 0x0, symName: '__ZN79_$LT$pyo3..instance..Bound$LT$T$GT$$u20$as$u20$pyo3..conversion..ToPyObject$GT$9to_object17h3fed6802e65d9250E', symObjAddr: 0xF98C, symBinAddr: 0x21310, symSize: 0x28 }
  - { offset: 0xA1A37, size: 0x8, addend: 0x0, symName: '__ZN79_$LT$pyo3..instance..Bound$LT$T$GT$$u20$as$u20$pyo3..conversion..ToPyObject$GT$9to_object17ha19f0fc69478ecfdE', symObjAddr: 0xFA2C, symBinAddr: 0x21338, symSize: 0x28 }
  - { offset: 0xA1A89, size: 0x8, addend: 0x0, symName: '__ZN79_$LT$pyo3..instance..Bound$LT$T$GT$$u20$as$u20$pyo3..conversion..ToPyObject$GT$9to_object17hdc4dca5f7789498aE', symObjAddr: 0xFA7C, symBinAddr: 0x21360, symSize: 0x28 }
  - { offset: 0xA1AE1, size: 0x8, addend: 0x0, symName: '__ZN80_$LT$pyo3..instance..Bound$LT$T$GT$$u20$as$u20$pyo3..conversion..AsPyPointer$GT$6as_ptr17h7510be0a3ab33e59E', symObjAddr: 0xFAA4, symBinAddr: 0x21388, symSize: 0x2C }
  - { offset: 0xA1C3E, size: 0x8, addend: 0x0, symName: '__ZN58_$LT$T$u20$as$u20$pyo3..err..err_state..PyErrArguments$GT$9arguments17h4d05cd339e522e0aE', symObjAddr: 0xCA24, symBinAddr: 0x20054, symSize: 0x24 }
  - { offset: 0xA1D1A, size: 0x8, addend: 0x0, symName: '__ZN54_$LT$$RF$T$u20$as$u20$pyo3..conversion..ToPyObject$GT$9to_object17h2d5f0244b3e172a2E', symObjAddr: 0xC9AC, symBinAddr: 0x20004, symSize: 0x28 }
  - { offset: 0xA1D6C, size: 0x8, addend: 0x0, symName: '__ZN54_$LT$$RF$T$u20$as$u20$pyo3..conversion..ToPyObject$GT$9to_object17h3a7b290cc63b2de9E', symObjAddr: 0xC9D4, symBinAddr: 0x2002C, symSize: 0x28 }
  - { offset: 0xA2344, size: 0x8, addend: 0x0, symName: '__ZN4pyo35types5bytes77_$LT$impl$u20$pyo3..instance..Borrowed$LT$pyo3..types..bytes..PyBytes$GT$$GT$8as_bytes17h6a2671e39076b69aE', symObjAddr: 0x65EC, symBinAddr: 0x1DC80, symSize: 0x9C }
  - { offset: 0xA239D, size: 0x8, addend: 0x0, symName: '__ZN4pyo35types5tuple77_$LT$impl$u20$pyo3..instance..Borrowed$LT$pyo3..types..tuple..PyTuple$GT$$GT$13iter_borrowed17h2010c81861b2c19cE', symObjAddr: 0x6FC8, symBinAddr: 0x1DD1C, symSize: 0x24 }
  - { offset: 0xA2415, size: 0x8, addend: 0x0, symName: '__ZN4pyo35types5tuple77_$LT$impl$u20$pyo3..instance..Borrowed$LT$pyo3..types..tuple..PyTuple$GT$$GT$27get_borrowed_item_unchecked17h82ac70472b5d008cE', symObjAddr: 0x7050, symBinAddr: 0x1DD40, symSize: 0x64 }
  - { offset: 0xA2472, size: 0x8, addend: 0x0, symName: '__ZN4pyo35types6string79_$LT$impl$u20$pyo3..instance..Borrowed$LT$pyo3..types..string..PyString$GT$$GT$15to_string_lossy17h1957e0b0ec1e6bfcE', symObjAddr: 0x7274, symBinAddr: 0x1DDF0, symSize: 0x178 }
  - { offset: 0xA253C, size: 0x8, addend: 0x0, symName: '__ZN4pyo35types6string79_$LT$impl$u20$pyo3..instance..Borrowed$LT$pyo3..types..string..PyString$GT$$GT$6to_cow17h393782261ba03ba3E', symObjAddr: 0x7560, symBinAddr: 0x1DF68, symSize: 0x3C }
  - { offset: 0xA255F, size: 0x8, addend: 0x0, symName: '__ZN4pyo35types6string79_$LT$impl$u20$pyo3..instance..Borrowed$LT$pyo3..types..string..PyString$GT$$GT$6to_str17h9e43ab229c6f9de7E', symObjAddr: 0x759C, symBinAddr: 0x1DFA4, symSize: 0xCC }
  - { offset: 0xA2603, size: 0x8, addend: 0x0, symName: '__ZN4pyo38instance11Py$LT$T$GT$10into_bound17h0b1aff8db116a40bE', symObjAddr: 0x86A0, symBinAddr: 0x1E070, symSize: 0x1C }
  - { offset: 0xA264A, size: 0x8, addend: 0x0, symName: '__ZN4pyo38instance11Py$LT$T$GT$10into_bound17h90f6ac639953a268E', symObjAddr: 0x86BC, symBinAddr: 0x1E08C, symSize: 0x1C }
  - { offset: 0xA26B1, size: 0x8, addend: 0x0, symName: '__ZN4pyo38instance11Py$LT$T$GT$13from_non_null17h5f99c3e38c45a922E', symObjAddr: 0x885C, symBinAddr: 0x1E0A8, symSize: 0x14 }
  - { offset: 0xA26DD, size: 0x8, addend: 0x0, symName: '__ZN4pyo38instance11Py$LT$T$GT$13from_non_null17h61eabb68b4037857E', symObjAddr: 0x8870, symBinAddr: 0x1E0BC, symSize: 0x14 }
  - { offset: 0xA2709, size: 0x8, addend: 0x0, symName: '__ZN4pyo38instance11Py$LT$T$GT$13from_non_null17h72774d6c77671939E', symObjAddr: 0x8884, symBinAddr: 0x1E0D0, symSize: 0x14 }
  - { offset: 0xA2735, size: 0x8, addend: 0x0, symName: '__ZN4pyo38instance11Py$LT$T$GT$13from_non_null17h9aad2d4fb26bb783E', symObjAddr: 0x88D4, symBinAddr: 0x1E0E4, symSize: 0x14 }
  - { offset: 0xA2761, size: 0x8, addend: 0x0, symName: '__ZN4pyo38instance11Py$LT$T$GT$13from_non_null17ha22f5d465c8d0a86E', symObjAddr: 0x88FC, symBinAddr: 0x1E0F8, symSize: 0x14 }
  - { offset: 0xA278D, size: 0x8, addend: 0x0, symName: '__ZN4pyo38instance11Py$LT$T$GT$13from_non_null17ha807ff7a2ba8cf09E', symObjAddr: 0x8910, symBinAddr: 0x1E10C, symSize: 0x14 }
  - { offset: 0xA27B9, size: 0x8, addend: 0x0, symName: '__ZN4pyo38instance11Py$LT$T$GT$13from_non_null17hb095e63186cd4a30E', symObjAddr: 0x894C, symBinAddr: 0x1E120, symSize: 0x14 }
  - { offset: 0xA27E5, size: 0x8, addend: 0x0, symName: '__ZN4pyo38instance11Py$LT$T$GT$13from_non_null17hbde87963cfe778a7E', symObjAddr: 0x8960, symBinAddr: 0x1E134, symSize: 0x14 }
  - { offset: 0xA283C, size: 0x8, addend: 0x0, symName: '__ZN4pyo38instance11Py$LT$T$GT$14from_owned_ptr17h11c61629afc63ab5E', symObjAddr: 0x89B0, symBinAddr: 0x1E148, symSize: 0x50 }
  - { offset: 0xA2883, size: 0x8, addend: 0x0, symName: '__ZN4pyo38instance11Py$LT$T$GT$14from_owned_ptr17h52080fe54ceea324E', symObjAddr: 0x8A00, symBinAddr: 0x1E198, symSize: 0x50 }
  - { offset: 0xA28CA, size: 0x8, addend: 0x0, symName: '__ZN4pyo38instance11Py$LT$T$GT$21from_owned_ptr_or_err17h12ba5e96c44a9781E', symObjAddr: 0x8AA0, symBinAddr: 0x1E1E8, symSize: 0x88 }
  - { offset: 0xA292F, size: 0x8, addend: 0x0, symName: '__ZN4pyo38instance11Py$LT$T$GT$21from_owned_ptr_or_err17h698f242192befad8E', symObjAddr: 0x8B28, symBinAddr: 0x1E270, symSize: 0x88 }
  - { offset: 0xA2994, size: 0x8, addend: 0x0, symName: '__ZN4pyo38instance11Py$LT$T$GT$21from_owned_ptr_or_err17h7812f6356f460cf8E', symObjAddr: 0x8BB0, symBinAddr: 0x1E2F8, symSize: 0x88 }
  - { offset: 0xA29F9, size: 0x8, addend: 0x0, symName: '__ZN4pyo38instance11Py$LT$T$GT$21from_owned_ptr_or_opt17h8dc19a68d4d70a0cE', symObjAddr: 0x8C38, symBinAddr: 0x1E380, symSize: 0x28 }
  - { offset: 0xA2A40, size: 0x8, addend: 0x0, symName: '__ZN4pyo38instance11Py$LT$T$GT$21from_owned_ptr_or_opt17hbdc22330062c5355E', symObjAddr: 0x8C60, symBinAddr: 0x1E3A8, symSize: 0x28 }
  - { offset: 0xA2AAE, size: 0x8, addend: 0x0, symName: '__ZN4pyo38instance11Py$LT$T$GT$4bind17h26d3384fc6cdf69fE', symObjAddr: 0x8D24, symBinAddr: 0x1E3F8, symSize: 0x74 }
  - { offset: 0xA2B0F, size: 0x8, addend: 0x0, symName: '__ZN4pyo38instance11Py$LT$T$GT$4bind17h3054d16b533d0755E', symObjAddr: 0x8D98, symBinAddr: 0x1E46C, symSize: 0x74 }
  - { offset: 0xA2B56, size: 0x8, addend: 0x0, symName: '__ZN4pyo38instance11Py$LT$T$GT$4bind17ha80b3d404a4e9cdfE', symObjAddr: 0x8E0C, symBinAddr: 0x1E4E0, symSize: 0x74 }
  - { offset: 0xA2BB7, size: 0x8, addend: 0x0, symName: '__ZN4pyo38instance11Py$LT$T$GT$4bind17hd16ef9fe03d04b41E', symObjAddr: 0x8E80, symBinAddr: 0x1E554, symSize: 0x74 }
  - { offset: 0xA2BFE, size: 0x8, addend: 0x0, symName: '__ZN4pyo38instance11Py$LT$T$GT$6as_ptr17h1858379171ef1775E', symObjAddr: 0x8F48, symBinAddr: 0x1E5C8, symSize: 0x1C }
  - { offset: 0xA2C2A, size: 0x8, addend: 0x0, symName: '__ZN4pyo38instance11Py$LT$T$GT$6as_ptr17h28de68a67d0e7704E', symObjAddr: 0x8F64, symBinAddr: 0x1E5E4, symSize: 0x1C }
  - { offset: 0xA2C63, size: 0x8, addend: 0x0, symName: '__ZN4pyo38instance11Py$LT$T$GT$6as_ptr17h4f6b352a44e4a770E', symObjAddr: 0x900C, symBinAddr: 0x1E600, symSize: 0x1C }
  - { offset: 0xA2C8F, size: 0x8, addend: 0x0, symName: '__ZN4pyo38instance11Py$LT$T$GT$6as_ptr17h7d6b4438caa7e581E', symObjAddr: 0x90B4, symBinAddr: 0x1E61C, symSize: 0x1C }
  - { offset: 0xA2CBB, size: 0x8, addend: 0x0, symName: '__ZN4pyo38instance11Py$LT$T$GT$6as_ptr17h8f00ac54b4fd4501E', symObjAddr: 0x90D0, symBinAddr: 0x1E638, symSize: 0x1C }
  - { offset: 0xA2CE7, size: 0x8, addend: 0x0, symName: '__ZN4pyo38instance11Py$LT$T$GT$6as_ptr17hac513c2703f1b7edE', symObjAddr: 0x9178, symBinAddr: 0x1E654, symSize: 0x1C }
  - { offset: 0xA2D13, size: 0x8, addend: 0x0, symName: '__ZN4pyo38instance11Py$LT$T$GT$6as_ptr17hb8caa983cce93ee5E', symObjAddr: 0x9194, symBinAddr: 0x1E670, symSize: 0x1C }
  - { offset: 0xA2D3F, size: 0x8, addend: 0x0, symName: '__ZN4pyo38instance11Py$LT$T$GT$6as_ptr17hc4e2494ab3890ee9E', symObjAddr: 0x91E8, symBinAddr: 0x1E68C, symSize: 0x1C }
  - { offset: 0xA2D78, size: 0x8, addend: 0x0, symName: '__ZN4pyo38instance11Py$LT$T$GT$6as_ptr17hcf9cdec6942a56eaE', symObjAddr: 0x9220, symBinAddr: 0x1E6A8, symSize: 0x1C }
  - { offset: 0xA2DB1, size: 0x8, addend: 0x0, symName: '__ZN4pyo38instance11Py$LT$T$GT$6as_ptr17hef8fd049a52fbb07E', symObjAddr: 0x923C, symBinAddr: 0x1E6C4, symSize: 0x1C }
  - { offset: 0xA2DEA, size: 0x8, addend: 0x0, symName: '__ZN4pyo38instance11Py$LT$T$GT$6as_ptr17hf92fbe2c77e736d2E', symObjAddr: 0x9258, symBinAddr: 0x1E6E0, symSize: 0x1C }
  - { offset: 0xA2E16, size: 0x8, addend: 0x0, symName: '__ZN4pyo38instance11Py$LT$T$GT$8into_any17h227f03403e74ccfeE', symObjAddr: 0x92B0, symBinAddr: 0x1E6FC, symSize: 0x3C }
  - { offset: 0xA2E42, size: 0x8, addend: 0x0, symName: '__ZN4pyo38instance11Py$LT$T$GT$8into_any17h427a2b7729a86596E', symObjAddr: 0x9328, symBinAddr: 0x1E738, symSize: 0x3C }
  - { offset: 0xA2E6E, size: 0x8, addend: 0x0, symName: '__ZN4pyo38instance11Py$LT$T$GT$8into_any17h4863bd91e73f251cE', symObjAddr: 0x9364, symBinAddr: 0x1E774, symSize: 0x3C }
  - { offset: 0xA2E9A, size: 0x8, addend: 0x0, symName: '__ZN4pyo38instance11Py$LT$T$GT$8into_any17h5ad1ba5e79bdc8b3E', symObjAddr: 0x93DC, symBinAddr: 0x1E7B0, symSize: 0x3C }
  - { offset: 0xA2EC6, size: 0x8, addend: 0x0, symName: '__ZN4pyo38instance11Py$LT$T$GT$8into_any17h68008eae3baba953E', symObjAddr: 0x9454, symBinAddr: 0x1E7EC, symSize: 0x3C }
  - { offset: 0xA2EF2, size: 0x8, addend: 0x0, symName: '__ZN4pyo38instance11Py$LT$T$GT$8into_any17hcc883d2c8c96df82E', symObjAddr: 0x9580, symBinAddr: 0x1E828, symSize: 0x3C }
  - { offset: 0xA2F1E, size: 0x8, addend: 0x0, symName: '__ZN4pyo38instance11Py$LT$T$GT$8into_any17hcf857d797684be25E', symObjAddr: 0x95BC, symBinAddr: 0x1E864, symSize: 0x3C }
  - { offset: 0xA2F4A, size: 0x8, addend: 0x0, symName: '__ZN4pyo38instance11Py$LT$T$GT$8into_ptr17h58391eb92c9dc405E', symObjAddr: 0x96AC, symBinAddr: 0x1E8A0, symSize: 0x30 }
  - { offset: 0xA2F76, size: 0x8, addend: 0x0, symName: '__ZN4pyo38instance11Py$LT$T$GT$8into_ptr17he7353185ab65643bE', symObjAddr: 0x96DC, symBinAddr: 0x1E8D0, symSize: 0x30 }
  - { offset: 0xA2FA2, size: 0x8, addend: 0x0, symName: '__ZN4pyo38instance11Py$LT$T$GT$9clone_ref17h3c66eb593b279eb9E', symObjAddr: 0x9A0C, symBinAddr: 0x1E900, symSize: 0x100 }
  - { offset: 0xA3051, size: 0x8, addend: 0x0, symName: '__ZN4pyo38instance11Py$LT$T$GT$9clone_ref17h560645bd2e02ffbeE', symObjAddr: 0x9C0C, symBinAddr: 0x1EA00, symSize: 0x100 }
  - { offset: 0xA3100, size: 0x8, addend: 0x0, symName: '__ZN4pyo38instance11Py$LT$T$GT$9clone_ref17h67bc5ed9d1a98b5fE', symObjAddr: 0x9F0C, symBinAddr: 0x1EB00, symSize: 0x100 }
  - { offset: 0xA31AF, size: 0x8, addend: 0x0, symName: '__ZN4pyo38instance11Py$LT$T$GT$9clone_ref17h8a09a226602dd8cfE', symObjAddr: 0xA10C, symBinAddr: 0x1EC00, symSize: 0x100 }
  - { offset: 0xA325E, size: 0x8, addend: 0x0, symName: '__ZN4pyo38instance11Py$LT$T$GT$9clone_ref17hcd1ba0485bbbc234E', symObjAddr: 0xA40C, symBinAddr: 0x1ED00, symSize: 0x100 }
  - { offset: 0xA330D, size: 0x8, addend: 0x0, symName: '__ZN4pyo38instance11Py$LT$T$GT$9clone_ref17hebd985cd5c2cee98E', symObjAddr: 0xA50C, symBinAddr: 0x1EE00, symSize: 0x100 }
  - { offset: 0xA33BC, size: 0x8, addend: 0x0, symName: '__ZN4pyo38instance11Py$LT$T$GT$9clone_ref17hfaa6d9b036ee1eedE', symObjAddr: 0xA60C, symBinAddr: 0x1EF00, symSize: 0x100 }
  - { offset: 0xA3478, size: 0x8, addend: 0x0, symName: '__ZN4pyo38instance14Bound$LT$T$GT$11as_borrowed17h666bdee93a186295E', symObjAddr: 0xAA3C, symBinAddr: 0x1F2E8, symSize: 0x48 }
  - { offset: 0xA34B1, size: 0x8, addend: 0x0, symName: '__ZN4pyo38instance14Bound$LT$T$GT$11as_borrowed17ha130710f17f08368E', symObjAddr: 0xAACC, symBinAddr: 0x1F330, symSize: 0x48 }
  - { offset: 0xA34DD, size: 0x8, addend: 0x0, symName: '__ZN4pyo38instance14Bound$LT$T$GT$11as_borrowed17ha792db1d948e0883E', symObjAddr: 0xAB14, symBinAddr: 0x1F378, symSize: 0x48 }
  - { offset: 0xA3509, size: 0x8, addend: 0x0, symName: '__ZN4pyo38instance14Bound$LT$T$GT$2py17h034259a8b3d5a958E', symObjAddr: 0xABEC, symBinAddr: 0x1F3C0, symSize: 0x10 }
  - { offset: 0xA354F, size: 0x8, addend: 0x0, symName: '__ZN4pyo38instance14Bound$LT$T$GT$2py17h801da986a657ef9cE', symObjAddr: 0xAC8C, symBinAddr: 0x1F3D0, symSize: 0x10 }
  - { offset: 0xA357B, size: 0x8, addend: 0x0, symName: '__ZN4pyo38instance14Bound$LT$T$GT$2py17hca0e165a1d954794E', symObjAddr: 0xACDC, symBinAddr: 0x1F3E0, symSize: 0x10 }
  - { offset: 0xA35A7, size: 0x8, addend: 0x0, symName: '__ZN4pyo38instance14Bound$LT$T$GT$2py17hd3cdb873fa286377E', symObjAddr: 0xACFC, symBinAddr: 0x1F3F0, symSize: 0x10 }
  - { offset: 0xA35D3, size: 0x8, addend: 0x0, symName: '__ZN4pyo38instance14Bound$LT$T$GT$2py17hd81c726d41e44ca3E', symObjAddr: 0xAD0C, symBinAddr: 0x1F400, symSize: 0x10 }
  - { offset: 0xA35FF, size: 0x8, addend: 0x0, symName: '__ZN4pyo38instance14Bound$LT$T$GT$2py17hda48e830db8318e0E', symObjAddr: 0xAD2C, symBinAddr: 0x1F410, symSize: 0x10 }
  - { offset: 0xA362B, size: 0x8, addend: 0x0, symName: '__ZN4pyo38instance14Bound$LT$T$GT$2py17hfbee39fa069babc8E', symObjAddr: 0xAD4C, symBinAddr: 0x1F420, symSize: 0x10 }
  - { offset: 0xA3657, size: 0x8, addend: 0x0, symName: '__ZN4pyo38instance14Bound$LT$T$GT$6as_any17h01f8430d95b4f5b7E', symObjAddr: 0xAD6C, symBinAddr: 0x1F430, symSize: 0x74 }
  - { offset: 0xA3683, size: 0x8, addend: 0x0, symName: '__ZN4pyo38instance14Bound$LT$T$GT$6as_any17h4bd75f976275a231E', symObjAddr: 0xAEC8, symBinAddr: 0x1F4A4, symSize: 0x74 }
  - { offset: 0xA36AF, size: 0x8, addend: 0x0, symName: '__ZN4pyo38instance14Bound$LT$T$GT$6as_any17h5bce316491a02797E', symObjAddr: 0xAFB0, symBinAddr: 0x1F518, symSize: 0x74 }
  - { offset: 0xA36DB, size: 0x8, addend: 0x0, symName: '__ZN4pyo38instance14Bound$LT$T$GT$6as_any17h683651147dad9a5dE', symObjAddr: 0xB024, symBinAddr: 0x1F58C, symSize: 0x74 }
  - { offset: 0xA3707, size: 0x8, addend: 0x0, symName: '__ZN4pyo38instance14Bound$LT$T$GT$6as_any17hb9a7547d85d6bfc5E', symObjAddr: 0xB1F4, symBinAddr: 0x1F600, symSize: 0x74 }
  - { offset: 0xA3733, size: 0x8, addend: 0x0, symName: '__ZN4pyo38instance14Bound$LT$T$GT$6as_any17hdffbbce9b5575c7bE', symObjAddr: 0xB350, symBinAddr: 0x1F674, symSize: 0x74 }
  - { offset: 0xA375F, size: 0x8, addend: 0x0, symName: '__ZN4pyo38instance14Bound$LT$T$GT$6as_ptr17h3d4dc2f416d2427aE', symObjAddr: 0xB4CC, symBinAddr: 0x1F6E8, symSize: 0x2C }
  - { offset: 0xA378B, size: 0x8, addend: 0x0, symName: '__ZN4pyo38instance14Bound$LT$T$GT$6as_ptr17h74ae91678be0111fE', symObjAddr: 0xB62C, symBinAddr: 0x1F714, symSize: 0x2C }
  - { offset: 0xA37B7, size: 0x8, addend: 0x0, symName: '__ZN4pyo38instance14Bound$LT$T$GT$6as_ptr17h81db867eafdc42b5E', symObjAddr: 0xB684, symBinAddr: 0x1F740, symSize: 0x2C }
  - { offset: 0xA37E3, size: 0x8, addend: 0x0, symName: '__ZN4pyo38instance14Bound$LT$T$GT$6as_ptr17h834ee3d6b514ea96E', symObjAddr: 0xB6B0, symBinAddr: 0x1F76C, symSize: 0x2C }
  - { offset: 0xA381C, size: 0x8, addend: 0x0, symName: '__ZN4pyo38instance14Bound$LT$T$GT$6as_ptr17h84e5e0af4844d714E', symObjAddr: 0xB6DC, symBinAddr: 0x1F798, symSize: 0x2C }
  - { offset: 0xA3848, size: 0x8, addend: 0x0, symName: '__ZN4pyo38instance14Bound$LT$T$GT$6as_ptr17h84f51031b9de23b0E', symObjAddr: 0xB708, symBinAddr: 0x1F7C4, symSize: 0x2C }
  - { offset: 0xA3874, size: 0x8, addend: 0x0, symName: '__ZN4pyo38instance14Bound$LT$T$GT$6as_ptr17ha071a86217ff5618E', symObjAddr: 0xB734, symBinAddr: 0x1F7F0, symSize: 0x2C }
  - { offset: 0xA38A0, size: 0x8, addend: 0x0, symName: '__ZN4pyo38instance14Bound$LT$T$GT$6as_ptr17hcbb683f15183a60dE', symObjAddr: 0xB7B8, symBinAddr: 0x1F81C, symSize: 0x2C }
  - { offset: 0xA38CC, size: 0x8, addend: 0x0, symName: '__ZN4pyo38instance14Bound$LT$T$GT$6as_ptr17hd7f134b7b825980aE', symObjAddr: 0xB810, symBinAddr: 0x1F848, symSize: 0x2C }
  - { offset: 0xA38F8, size: 0x8, addend: 0x0, symName: '__ZN4pyo38instance14Bound$LT$T$GT$6unbind17h112f10b1096cf376E', symObjAddr: 0xB960, symBinAddr: 0x1F874, symSize: 0x48 }
  - { offset: 0xA3942, size: 0x8, addend: 0x0, symName: '__ZN4pyo38instance14Bound$LT$T$GT$6unbind17h1d2df79154e338d9E', symObjAddr: 0xB9F0, symBinAddr: 0x1F8BC, symSize: 0x48 }
  - { offset: 0xA398C, size: 0x8, addend: 0x0, symName: '__ZN4pyo38instance14Bound$LT$T$GT$6unbind17h729a00353ee39637E', symObjAddr: 0xBBE8, symBinAddr: 0x1F904, symSize: 0x48 }
  - { offset: 0xA39D6, size: 0x8, addend: 0x0, symName: '__ZN4pyo38instance14Bound$LT$T$GT$6unbind17h97ca26735da9ed61E', symObjAddr: 0xBC78, symBinAddr: 0x1F94C, symSize: 0x48 }
  - { offset: 0xA3A20, size: 0x8, addend: 0x0, symName: '__ZN4pyo38instance14Bound$LT$T$GT$6unbind17hac8afa8646950e78E', symObjAddr: 0xBCC0, symBinAddr: 0x1F994, symSize: 0x48 }
  - { offset: 0xA3A6A, size: 0x8, addend: 0x0, symName: '__ZN4pyo38instance14Bound$LT$T$GT$6unbind17hcb76f54e6ed6e66eE', symObjAddr: 0xBD50, symBinAddr: 0x1F9DC, symSize: 0x48 }
  - { offset: 0xA3AB4, size: 0x8, addend: 0x0, symName: '__ZN4pyo38instance14Bound$LT$T$GT$6unbind17hffe4f6e78bf09960E', symObjAddr: 0xBDE0, symBinAddr: 0x1FA24, symSize: 0x48 }
  - { offset: 0xA3AFE, size: 0x8, addend: 0x0, symName: '__ZN4pyo38instance14Bound$LT$T$GT$8into_any17h15a94064685d227bE', symObjAddr: 0xBE28, symBinAddr: 0x1FA6C, symSize: 0x30 }
  - { offset: 0xA3B2A, size: 0x8, addend: 0x0, symName: '__ZN4pyo38instance14Bound$LT$T$GT$8into_any17h2e961e484fd26fdcE', symObjAddr: 0xBE88, symBinAddr: 0x1FA9C, symSize: 0x30 }
  - { offset: 0xA3B56, size: 0x8, addend: 0x0, symName: '__ZN4pyo38instance14Bound$LT$T$GT$8into_any17h3b12bdc0a601019dE', symObjAddr: 0xBEB8, symBinAddr: 0x1FACC, symSize: 0x30 }
  - { offset: 0xA3B82, size: 0x8, addend: 0x0, symName: '__ZN4pyo38instance14Bound$LT$T$GT$8into_any17h8b1440323a53e400E', symObjAddr: 0xBF78, symBinAddr: 0x1FAFC, symSize: 0x30 }
  - { offset: 0xA3BAE, size: 0x8, addend: 0x0, symName: '__ZN4pyo38instance14Bound$LT$T$GT$8into_any17h8b87ceaf01e8a41bE', symObjAddr: 0xBFA8, symBinAddr: 0x1FB2C, symSize: 0x30 }
  - { offset: 0xA3BDA, size: 0x8, addend: 0x0, symName: '__ZN4pyo38instance14Bound$LT$T$GT$8into_any17hec208af6905e2f69E', symObjAddr: 0xC0F8, symBinAddr: 0x1FB5C, symSize: 0x30 }
  - { offset: 0xA3C06, size: 0x8, addend: 0x0, symName: '__ZN4pyo38instance17Borrowed$LT$T$GT$8to_owned17h2e375ce3ac0ea7b7E', symObjAddr: 0xC198, symBinAddr: 0x1FB8C, symSize: 0x2C }
  - { offset: 0xA3C32, size: 0x8, addend: 0x0, symName: '__ZN4pyo38instance17Borrowed$LT$T$GT$8to_owned17h67ebfc570fab6934E', symObjAddr: 0xC1C4, symBinAddr: 0x1FBB8, symSize: 0x2C }
  - { offset: 0xA3C5E, size: 0x8, addend: 0x0, symName: '__ZN4pyo38instance17Borrowed$LT$T$GT$8to_owned17hee18164e2f275239E', symObjAddr: 0xC21C, symBinAddr: 0x1FBE4, symSize: 0x2C }
  - { offset: 0xA3C97, size: 0x8, addend: 0x0, symName: '__ZN4pyo38instance36Bound$LT$pyo3..types..any..PyAny$GT$12ref_from_ptr17hfd0d271911b0e026E', symObjAddr: 0xC248, symBinAddr: 0x1FC10, symSize: 0x74 }
  - { offset: 0xA3CD2, size: 0x8, addend: 0x0, symName: '__ZN4pyo38instance36Bound$LT$pyo3..types..any..PyAny$GT$14from_owned_ptr17h9aff3b888a3b7d4fE', symObjAddr: 0xC2BC, symBinAddr: 0x1FC84, symSize: 0x2C }
  - { offset: 0xA3D1A, size: 0x8, addend: 0x0, symName: '__ZN4pyo38instance36Bound$LT$pyo3..types..any..PyAny$GT$21from_owned_ptr_or_err17h1b6a0bb43086995bE', symObjAddr: 0xC35C, symBinAddr: 0x1FCB0, symSize: 0x40 }
  - { offset: 0xA3D55, size: 0x8, addend: 0x0, symName: '__ZN4pyo38instance36Bound$LT$pyo3..types..any..PyAny$GT$21from_owned_ptr_or_opt17h3be7ad8284418072E', symObjAddr: 0xC3C4, symBinAddr: 0x1FD18, symSize: 0x2C }
  - { offset: 0xA3D90, size: 0x8, addend: 0x0, symName: '__ZN4pyo38instance39Borrowed$LT$pyo3..types..any..PyAny$GT$18downcast_unchecked17h3c6c74ccd3c62ee7E', symObjAddr: 0xC4BC, symBinAddr: 0x1FD6C, symSize: 0x14 }
  - { offset: 0xA3DBC, size: 0x8, addend: 0x0, symName: '__ZN4pyo38instance39Borrowed$LT$pyo3..types..any..PyAny$GT$18downcast_unchecked17hb88e4638bb40d2c4E', symObjAddr: 0xC4E4, symBinAddr: 0x1FD80, symSize: 0x14 }
  - { offset: 0xA3DE8, size: 0x8, addend: 0x0, symName: '__ZN4pyo38instance39Borrowed$LT$pyo3..types..any..PyAny$GT$18downcast_unchecked17hbc202568d88cc35cE', symObjAddr: 0xC4F8, symBinAddr: 0x1FD94, symSize: 0x14 }
  - { offset: 0xA3E14, size: 0x8, addend: 0x0, symName: '__ZN4pyo38instance39Borrowed$LT$pyo3..types..any..PyAny$GT$18from_ptr_unchecked17h57dda625212546f8E', symObjAddr: 0xC520, symBinAddr: 0x1FDA8, symSize: 0x2C }
  - { offset: 0xA3E52, size: 0x8, addend: 0x0, symName: '__ZN4pyo38instance39Borrowed$LT$pyo3..types..any..PyAny$GT$8downcast17h359331634967115cE', symObjAddr: 0xC54C, symBinAddr: 0x1FDD4, symSize: 0x88 }
  - { offset: 0xA3E7E, size: 0x8, addend: 0x0, symName: '__ZN4pyo38instance39Borrowed$LT$pyo3..types..any..PyAny$GT$8from_ptr17hb4ebec0dee00918eE', symObjAddr: 0xC6E4, symBinAddr: 0x1FE5C, symSize: 0x34 }
  - { offset: 0xA3EBC, size: 0x8, addend: 0x0, symName: '__ZN4pyo38internal8get_slot78_$LT$impl$u20$pyo3..instance..Bound$LT$pyo3..types..typeobject..PyType$GT$$GT$8get_slot17h98bde618dc168327E', symObjAddr: 0xC734, symBinAddr: 0x1FEAC, symSize: 0x28 }
  - { offset: 0xA3EF7, size: 0x8, addend: 0x0, symName: '__ZN4pyo38internal8get_slot78_$LT$impl$u20$pyo3..instance..Bound$LT$pyo3..types..typeobject..PyType$GT$$GT$8get_slot17haea3eaadd687c6e7E', symObjAddr: 0xC75C, symBinAddr: 0x1FED4, symSize: 0x28 }
  - { offset: 0xA3F32, size: 0x8, addend: 0x0, symName: '__ZN4pyo38internal8get_slot81_$LT$impl$u20$pyo3..instance..Borrowed$LT$pyo3..types..typeobject..PyType$GT$$GT$8get_slot17hc13014a1c182ec8eE', symObjAddr: 0xC784, symBinAddr: 0x1FEFC, symSize: 0x30 }
  - { offset: 0xA515B, size: 0x8, addend: 0x0, symName: '__ZN153_$LT$core..result..Result$LT$T$C$F$GT$$u20$as$u20$core..ops..try_trait..FromResidual$LT$core..result..Result$LT$core..convert..Infallible$C$E$GT$$GT$$GT$13from_residual17h2f360f79dc5815f8E', symObjAddr: 0x888, symBinAddr: 0x213E8, symSize: 0x48 }
  - { offset: 0xA51E0, size: 0x8, addend: 0x0, symName: '__ZN153_$LT$core..result..Result$LT$T$C$F$GT$$u20$as$u20$core..ops..try_trait..FromResidual$LT$core..result..Result$LT$core..convert..Infallible$C$E$GT$$GT$$GT$13from_residual17h30886316097db230E', symObjAddr: 0x8D0, symBinAddr: 0x21430, symSize: 0x48 }
  - { offset: 0xA5265, size: 0x8, addend: 0x0, symName: '__ZN153_$LT$core..result..Result$LT$T$C$F$GT$$u20$as$u20$core..ops..try_trait..FromResidual$LT$core..result..Result$LT$core..convert..Infallible$C$E$GT$$GT$$GT$13from_residual17h329c6740467580e4E', symObjAddr: 0x918, symBinAddr: 0x21478, symSize: 0x48 }
  - { offset: 0xA52EA, size: 0x8, addend: 0x0, symName: '__ZN153_$LT$core..result..Result$LT$T$C$F$GT$$u20$as$u20$core..ops..try_trait..FromResidual$LT$core..result..Result$LT$core..convert..Infallible$C$E$GT$$GT$$GT$13from_residual17h376e7b8ef14ce3b3E', symObjAddr: 0x9F8, symBinAddr: 0x214C0, symSize: 0x48 }
  - { offset: 0xA536F, size: 0x8, addend: 0x0, symName: '__ZN153_$LT$core..result..Result$LT$T$C$F$GT$$u20$as$u20$core..ops..try_trait..FromResidual$LT$core..result..Result$LT$core..convert..Infallible$C$E$GT$$GT$$GT$13from_residual17h40d654d3b3405392E', symObjAddr: 0xAE8, symBinAddr: 0x21508, symSize: 0x48 }
  - { offset: 0xA53F4, size: 0x8, addend: 0x0, symName: '__ZN153_$LT$core..result..Result$LT$T$C$F$GT$$u20$as$u20$core..ops..try_trait..FromResidual$LT$core..result..Result$LT$core..convert..Infallible$C$E$GT$$GT$$GT$13from_residual17h478ab86bffb7b48fE', symObjAddr: 0xB88, symBinAddr: 0x21550, symSize: 0x48 }
  - { offset: 0xA5479, size: 0x8, addend: 0x0, symName: '__ZN153_$LT$core..result..Result$LT$T$C$F$GT$$u20$as$u20$core..ops..try_trait..FromResidual$LT$core..result..Result$LT$core..convert..Infallible$C$E$GT$$GT$$GT$13from_residual17h4f962f09962d832aE', symObjAddr: 0xC60, symBinAddr: 0x21598, symSize: 0x58 }
  - { offset: 0xA54E1, size: 0x8, addend: 0x0, symName: '__ZN153_$LT$core..result..Result$LT$T$C$F$GT$$u20$as$u20$core..ops..try_trait..FromResidual$LT$core..result..Result$LT$core..convert..Infallible$C$E$GT$$GT$$GT$13from_residual17h56d5cd602a52f6a1E', symObjAddr: 0xDD8, symBinAddr: 0x215F0, symSize: 0x48 }
  - { offset: 0xA5566, size: 0x8, addend: 0x0, symName: '__ZN153_$LT$core..result..Result$LT$T$C$F$GT$$u20$as$u20$core..ops..try_trait..FromResidual$LT$core..result..Result$LT$core..convert..Infallible$C$E$GT$$GT$$GT$13from_residual17h5a0a7bc99f23a2c3E', symObjAddr: 0xEF8, symBinAddr: 0x21638, symSize: 0x48 }
  - { offset: 0xA55EB, size: 0x8, addend: 0x0, symName: '__ZN153_$LT$core..result..Result$LT$T$C$F$GT$$u20$as$u20$core..ops..try_trait..FromResidual$LT$core..result..Result$LT$core..convert..Infallible$C$E$GT$$GT$$GT$13from_residual17h635e40b18939c20fE', symObjAddr: 0x1080, symBinAddr: 0x21680, symSize: 0x48 }
  - { offset: 0xA5670, size: 0x8, addend: 0x0, symName: '__ZN153_$LT$core..result..Result$LT$T$C$F$GT$$u20$as$u20$core..ops..try_trait..FromResidual$LT$core..result..Result$LT$core..convert..Infallible$C$E$GT$$GT$$GT$13from_residual17h7ae353c84945128eE', symObjAddr: 0x1248, symBinAddr: 0x216C8, symSize: 0x48 }
  - { offset: 0xA56F5, size: 0x8, addend: 0x0, symName: '__ZN153_$LT$core..result..Result$LT$T$C$F$GT$$u20$as$u20$core..ops..try_trait..FromResidual$LT$core..result..Result$LT$core..convert..Infallible$C$E$GT$$GT$$GT$13from_residual17h96a27ae0e4a62365E', symObjAddr: 0x1500, symBinAddr: 0x21710, symSize: 0x58 }
  - { offset: 0xA575D, size: 0x8, addend: 0x0, symName: '__ZN153_$LT$core..result..Result$LT$T$C$F$GT$$u20$as$u20$core..ops..try_trait..FromResidual$LT$core..result..Result$LT$core..convert..Infallible$C$E$GT$$GT$$GT$13from_residual17hbb0775c36e532f2cE', symObjAddr: 0x1718, symBinAddr: 0x21768, symSize: 0x48 }
  - { offset: 0xA57E2, size: 0x8, addend: 0x0, symName: '__ZN153_$LT$core..result..Result$LT$T$C$F$GT$$u20$as$u20$core..ops..try_trait..FromResidual$LT$core..result..Result$LT$core..convert..Infallible$C$E$GT$$GT$$GT$13from_residual17hc88d13beb5710297E', symObjAddr: 0x188C, symBinAddr: 0x217B0, symSize: 0x48 }
  - { offset: 0xA5867, size: 0x8, addend: 0x0, symName: '__ZN153_$LT$core..result..Result$LT$T$C$F$GT$$u20$as$u20$core..ops..try_trait..FromResidual$LT$core..result..Result$LT$core..convert..Infallible$C$E$GT$$GT$$GT$13from_residual17hf73556bf0db02833E', symObjAddr: 0x1B38, symBinAddr: 0x217F8, symSize: 0x48 }
  - { offset: 0xA7D61, size: 0x8, addend: 0x0, symName: '__ZN79_$LT$core..result..Result$LT$T$C$E$GT$$u20$as$u20$core..ops..try_trait..Try$GT$6branch17h043504b04b61df9cE', symObjAddr: 0x4ED0, symBinAddr: 0x22374, symSize: 0x8C }
  - { offset: 0xA7DDF, size: 0x8, addend: 0x0, symName: '__ZN79_$LT$core..result..Result$LT$T$C$E$GT$$u20$as$u20$core..ops..try_trait..Try$GT$6branch17h0b134e483fb4f047E', symObjAddr: 0x4FDC, symBinAddr: 0x22400, symSize: 0x28 }
  - { offset: 0xA7E3D, size: 0x8, addend: 0x0, symName: '__ZN79_$LT$core..result..Result$LT$T$C$E$GT$$u20$as$u20$core..ops..try_trait..Try$GT$6branch17h2f48cbb4ff9d9618E', symObjAddr: 0x5294, symBinAddr: 0x22428, symSize: 0x80 }
  - { offset: 0xA7EBB, size: 0x8, addend: 0x0, symName: '__ZN79_$LT$core..result..Result$LT$T$C$E$GT$$u20$as$u20$core..ops..try_trait..Try$GT$6branch17h413e952dbbdaf566E', symObjAddr: 0x568C, symBinAddr: 0x224A8, symSize: 0x80 }
  - { offset: 0xA7F39, size: 0x8, addend: 0x0, symName: '__ZN79_$LT$core..result..Result$LT$T$C$E$GT$$u20$as$u20$core..ops..try_trait..Try$GT$6branch17h46e320f1ad155b94E', symObjAddr: 0x570C, symBinAddr: 0x22528, symSize: 0x8C }
  - { offset: 0xA7FB7, size: 0x8, addend: 0x0, symName: '__ZN79_$LT$core..result..Result$LT$T$C$E$GT$$u20$as$u20$core..ops..try_trait..Try$GT$6branch17h48e04fc43a989388E', symObjAddr: 0x5798, symBinAddr: 0x225B4, symSize: 0x80 }
  - { offset: 0xA8035, size: 0x8, addend: 0x0, symName: '__ZN79_$LT$core..result..Result$LT$T$C$E$GT$$u20$as$u20$core..ops..try_trait..Try$GT$6branch17h9159a17ea18841ccE', symObjAddr: 0x5C94, symBinAddr: 0x22634, symSize: 0x94 }
  - { offset: 0xA80B3, size: 0x8, addend: 0x0, symName: '__ZN79_$LT$core..result..Result$LT$T$C$E$GT$$u20$as$u20$core..ops..try_trait..Try$GT$6branch17h92608d314746b7b2E', symObjAddr: 0x5D28, symBinAddr: 0x226C8, symSize: 0x80 }
  - { offset: 0xA8131, size: 0x8, addend: 0x0, symName: '__ZN79_$LT$core..result..Result$LT$T$C$E$GT$$u20$as$u20$core..ops..try_trait..Try$GT$6branch17h978427cb0dd61f92E', symObjAddr: 0x5DA8, symBinAddr: 0x22748, symSize: 0x80 }
  - { offset: 0xA81AF, size: 0x8, addend: 0x0, symName: '__ZN79_$LT$core..result..Result$LT$T$C$E$GT$$u20$as$u20$core..ops..try_trait..Try$GT$6branch17h99f082d8910192daE', symObjAddr: 0x5EB0, symBinAddr: 0x227C8, symSize: 0x80 }
  - { offset: 0xA822D, size: 0x8, addend: 0x0, symName: '__ZN79_$LT$core..result..Result$LT$T$C$E$GT$$u20$as$u20$core..ops..try_trait..Try$GT$6branch17ha64a6b1e75435623E', symObjAddr: 0x6040, symBinAddr: 0x22848, symSize: 0x88 }
  - { offset: 0xA82AB, size: 0x8, addend: 0x0, symName: '__ZN79_$LT$core..result..Result$LT$T$C$E$GT$$u20$as$u20$core..ops..try_trait..Try$GT$6branch17hae664811a791bf3fE', symObjAddr: 0x60C8, symBinAddr: 0x228D0, symSize: 0x70 }
  - { offset: 0xA8329, size: 0x8, addend: 0x0, symName: '__ZN79_$LT$core..result..Result$LT$T$C$E$GT$$u20$as$u20$core..ops..try_trait..Try$GT$6branch17hc35f4fe453984a8eE', symObjAddr: 0x6138, symBinAddr: 0x22940, symSize: 0x28 }
  - { offset: 0xA8387, size: 0x8, addend: 0x0, symName: '__ZN79_$LT$core..result..Result$LT$T$C$E$GT$$u20$as$u20$core..ops..try_trait..Try$GT$6branch17hdfd9cf36a3a55027E', symObjAddr: 0x6438, symBinAddr: 0x22968, symSize: 0xA0 }
  - { offset: 0xA8404, size: 0x8, addend: 0x0, symName: '__ZN79_$LT$core..result..Result$LT$T$C$E$GT$$u20$as$u20$core..ops..try_trait..Try$GT$6branch17he2f2c36840c6ebdfE', symObjAddr: 0x6558, symBinAddr: 0x22A08, symSize: 0x80 }
  - { offset: 0xA8482, size: 0x8, addend: 0x0, symName: '__ZN79_$LT$core..result..Result$LT$T$C$E$GT$$u20$as$u20$core..ops..try_trait..Try$GT$6branch17hf24fdf360cc03962E', symObjAddr: 0x66E0, symBinAddr: 0x22A88, symSize: 0x14 }
  - { offset: 0xAA3D7, size: 0x8, addend: 0x0, symName: '__ZN152_$LT$core..result..Result$LT$pyo3..instance..Bound$LT$pyo3..types..any..PyAny$GT$$C$pyo3..err..PyErr$GT$$u20$as$u20$pyo3..py_result_ext..PyResultExt$GT$23downcast_into_unchecked17hcf0b3fa1d1e0fba0E', symObjAddr: 0x30C, symBinAddr: 0x213B4, symSize: 0x34 }
  - { offset: 0xAB472, size: 0x8, addend: 0x0, symName: '__ZN4core6result19Result$LT$T$C$E$GT$11map_or_else17h72dab5e88508afd2E', symObjAddr: 0x1BC8, symBinAddr: 0x21840, symSize: 0xCC }
  - { offset: 0xAB589, size: 0x8, addend: 0x0, symName: '__ZN4core6result19Result$LT$T$C$E$GT$14unwrap_or_else17hf52cca3d0c11f368E', symObjAddr: 0x1D10, symBinAddr: 0x2190C, symSize: 0x7C }
  - { offset: 0xAB60D, size: 0x8, addend: 0x0, symName: '__ZN4core6result19Result$LT$T$C$E$GT$3map17h27a904cd642ab6aaE', symObjAddr: 0x1F8C, symBinAddr: 0x21988, symSize: 0x90 }
  - { offset: 0xAB6D9, size: 0x8, addend: 0x0, symName: '__ZN4core6result19Result$LT$T$C$E$GT$3map17h9602bacd7f89532fE', symObjAddr: 0x28C4, symBinAddr: 0x21A18, symSize: 0x8C }
  - { offset: 0xAB784, size: 0x8, addend: 0x0, symName: '__ZN4core6result19Result$LT$T$C$E$GT$3map17h9f9c4848356507bfE', symObjAddr: 0x2950, symBinAddr: 0x21AA4, symSize: 0x98 }
  - { offset: 0xAB824, size: 0x8, addend: 0x0, symName: '__ZN4core6result19Result$LT$T$C$E$GT$3map17hac44aff691774942E', symObjAddr: 0x29E8, symBinAddr: 0x21B3C, symSize: 0x8C }
  - { offset: 0xAB8B7, size: 0x8, addend: 0x0, symName: '__ZN4core6result19Result$LT$T$C$E$GT$3map17he941e523fd294ee8E', symObjAddr: 0x2B74, symBinAddr: 0x21BC8, symSize: 0x80 }
  - { offset: 0xAB968, size: 0x8, addend: 0x0, symName: '__ZN4core6result19Result$LT$T$C$E$GT$6expect17h021338fcd229a50eE', symObjAddr: 0x2C80, symBinAddr: 0x21C48, symSize: 0xBC }
  - { offset: 0xAB9CB, size: 0x8, addend: 0x0, symName: '__ZN4core6result19Result$LT$T$C$E$GT$6expect17h2f5e2f8c88a126e0E', symObjAddr: 0x2E8C, symBinAddr: 0x21D04, symSize: 0x78 }
  - { offset: 0xABA2D, size: 0x8, addend: 0x0, symName: '__ZN4core6result19Result$LT$T$C$E$GT$6expect17h68673dab405b4f85E', symObjAddr: 0x3164, symBinAddr: 0x21D7C, symSize: 0x9C }
  - { offset: 0xABA97, size: 0x8, addend: 0x0, symName: '__ZN4core6result19Result$LT$T$C$E$GT$6expect17ha6b45ec031946494E', symObjAddr: 0x3350, symBinAddr: 0x21E18, symSize: 0xA8 }
  - { offset: 0xABAFA, size: 0x8, addend: 0x0, symName: '__ZN4core6result19Result$LT$T$C$E$GT$6expect17hb7296ac0fdf74596E', symObjAddr: 0x33F8, symBinAddr: 0x21EC0, symSize: 0x84 }
  - { offset: 0xABB74, size: 0x8, addend: 0x0, symName: '__ZN4core6result19Result$LT$T$C$E$GT$7map_err17h060ebbbefb1b3bfcE', symObjAddr: 0x376C, symBinAddr: 0x21F44, symSize: 0xA4 }
  - { offset: 0xABC15, size: 0x8, addend: 0x0, symName: '__ZN4core6result19Result$LT$T$C$E$GT$7map_err17h250d75dfed707bc7E', symObjAddr: 0x3CCC, symBinAddr: 0x21FE8, symSize: 0x70 }
  - { offset: 0xABCB4, size: 0x8, addend: 0x0, symName: '__ZN4core6result19Result$LT$T$C$E$GT$7map_err17h2db396336d62f8f5E', symObjAddr: 0x3D3C, symBinAddr: 0x22058, symSize: 0xB0 }
  - { offset: 0xABD69, size: 0x8, addend: 0x0, symName: '__ZN4core6result19Result$LT$T$C$E$GT$7map_err17hfa4f25c284af6984E', symObjAddr: 0x4884, symBinAddr: 0x22108, symSize: 0xB0 }
  - { offset: 0xABE14, size: 0x8, addend: 0x0, symName: '__ZN4core6result19Result$LT$T$C$E$GT$7map_err17hfd7c436105d0862bE', symObjAddr: 0x4934, symBinAddr: 0x221B8, symSize: 0x88 }
  - { offset: 0xABEC1, size: 0x8, addend: 0x0, symName: '__ZN4core6result19Result$LT$T$C$E$GT$9unwrap_or17h5ddf7994b6e93687E', symObjAddr: 0x4D7C, symBinAddr: 0x22240, symSize: 0x70 }
  - { offset: 0xABF05, size: 0x8, addend: 0x0, symName: '__ZN4core6result19Result$LT$T$C$E$GT$9unwrap_or17ha9714381bcde144fE', symObjAddr: 0x4DEC, symBinAddr: 0x222B0, symSize: 0xC4 }
  - { offset: 0xAC011, size: 0x8, addend: 0x0, symName: '__ZN79_$LT$hashbrown..raw..RawTable$LT$T$C$A$GT$$u20$as$u20$core..ops..drop..Drop$GT$4drop17h56c808cc5d9f8249E', symObjAddr: 0x0, symBinAddr: 0x22A9C, symSize: 0x3C }
  - { offset: 0xAC040, size: 0x8, addend: 0x0, symName: '__ZN9hashbrown3raw21RawTable$LT$T$C$A$GT$14reserve_rehash28_$u7b$$u7b$closure$u7d$$u7d$17heef8c7a078bb989cE', symObjAddr: 0x2220, symBinAddr: 0x24520, symSize: 0xC0 }
  - { offset: 0xAC224, size: 0x8, addend: 0x0, symName: '__ZN9hashbrown3raw21RawTable$LT$T$C$A$GT$4find28_$u7b$$u7b$closure$u7d$$u7d$17hc22d397861fbccfaE', symObjAddr: 0x25F4, symBinAddr: 0x248F4, symSize: 0xC4 }
  - { offset: 0xACA06, size: 0x8, addend: 0x0, symName: '__ZN79_$LT$hashbrown..raw..RawTable$LT$T$C$A$GT$$u20$as$u20$core..ops..drop..Drop$GT$4drop17h56c808cc5d9f8249E', symObjAddr: 0x0, symBinAddr: 0x22A9C, symSize: 0x3C }
  - { offset: 0xACC1B, size: 0x8, addend: 0x0, symName: '__ZN9hashbrown3raw13RawTableInner14prepare_resize28_$u7b$$u7b$closure$u7d$$u7d$17h0bb36c62e72b167fE', symObjAddr: 0x28C, symBinAddr: 0x22D28, symSize: 0xB0 }
  - { offset: 0xACDED, size: 0x8, addend: 0x0, symName: '__ZN9hashbrown3raw13RawTableInner15rehash_in_place28_$u7b$$u7b$closure$u7d$$u7d$17h0600a1cfa5adf14fE', symObjAddr: 0x758, symBinAddr: 0x231F4, symSize: 0x1F8 }
  - { offset: 0xAD28E, size: 0x8, addend: 0x0, symName: __ZN9hashbrown3raw19capacity_to_buckets17h63864c8690ca4e0cE, symObjAddr: 0x13EC, symBinAddr: 0x23E88, symSize: 0x2C8 }
  - { offset: 0xB1B5D, size: 0x8, addend: 0x0, symName: __ZN9hashbrown3raw11TableLayout20calculate_layout_for17hb1459f1ab4550258E, symObjAddr: 0x3C, symBinAddr: 0x22AD8, symSize: 0x220 }
  - { offset: 0xB1F02, size: 0x8, addend: 0x0, symName: __ZN9hashbrown3raw13RawTableInner13drop_elements17h0681397a11fa4ba8E, symObjAddr: 0x25C, symBinAddr: 0x22CF8, symSize: 0x30 }
  - { offset: 0xB23F8, size: 0x8, addend: 0x0, symName: __ZN9hashbrown3raw13RawTableInner15rehash_in_place17h1d7da85fd127d8f5E, symObjAddr: 0x33C, symBinAddr: 0x22DD8, symSize: 0x41C }
  - { offset: 0xB2D72, size: 0x8, addend: 0x0, symName: __ZN9hashbrown3raw13RawTableInner16drop_inner_table17h8e61e6ce9cf03987E, symObjAddr: 0x950, symBinAddr: 0x233EC, symSize: 0xB0 }
  - { offset: 0xB3033, size: 0x8, addend: 0x0, symName: __ZN9hashbrown3raw13RawTableInner16fix_insert_index17h5a5e611435744d9eE, symObjAddr: 0xA00, symBinAddr: 0x2349C, symSize: 0x100 }
  - { offset: 0xB32A5, size: 0x8, addend: 0x0, symName: __ZN9hashbrown3raw13RawTableInner17find_insert_index17h4755ac462cb715b9E, symObjAddr: 0xB00, symBinAddr: 0x2359C, symSize: 0xFC }
  - { offset: 0xB3482, size: 0x8, addend: 0x0, symName: __ZN9hashbrown3raw13RawTableInner17new_uninitialized17he3c9ff3df1860c7aE, symObjAddr: 0xBFC, symBinAddr: 0x23698, symSize: 0x2AC }
  - { offset: 0xB37AF, size: 0x8, addend: 0x0, symName: __ZN9hashbrown3raw13RawTableInner22fallible_with_capacity17h7f0bc97bc86b10caE, symObjAddr: 0xEA8, symBinAddr: 0x23944, symSize: 0x220 }
  - { offset: 0xB3C48, size: 0x8, addend: 0x0, symName: __ZN9hashbrown3raw13RawTableInner23prepare_rehash_in_place17h8028311e3c6fe71dE, symObjAddr: 0x10C8, symBinAddr: 0x23B64, symSize: 0x204 }
  - { offset: 0xB423E, size: 0x8, addend: 0x0, symName: __ZN9hashbrown3raw13RawTableInner26find_insert_index_in_group17h262c1b8a5cb074e9E, symObjAddr: 0x12CC, symBinAddr: 0x23D68, symSize: 0x120 }
  - { offset: 0xB4382, size: 0x8, addend: 0x0, symName: '__ZN9hashbrown3raw21RawIterRange$LT$T$GT$3new17h51829f5473edbd0bE', symObjAddr: 0x16B4, symBinAddr: 0x24150, symSize: 0x98 }
  - { offset: 0xB4616, size: 0x8, addend: 0x0, symName: '__ZN9hashbrown3raw21RawIterRange$LT$T$GT$9next_impl17hf08521e16cbc98dcE', symObjAddr: 0x174C, symBinAddr: 0x241E8, symSize: 0x1B4 }
  - { offset: 0xB4B33, size: 0x8, addend: 0x0, symName: '__ZN9hashbrown3raw21RawTable$LT$T$C$A$GT$14insert_no_grow17hc629f5c40ea08e71E', symObjAddr: 0x1900, symBinAddr: 0x2439C, symSize: 0x184 }
  - { offset: 0xB5342, size: 0x8, addend: 0x0, symName: '__ZN9hashbrown3raw21RawTable$LT$T$C$A$GT$14reserve_rehash17h54133f256e5fecfaE', symObjAddr: 0x1A84, symBinAddr: 0x74C60, symSize: 0x79C }
  - { offset: 0xB603F, size: 0x8, addend: 0x0, symName: '__ZN9hashbrown3raw21RawTable$LT$T$C$A$GT$4find17h325d8db8edc9b1b8E', symObjAddr: 0x22E0, symBinAddr: 0x245E0, symSize: 0x314 }
  - { offset: 0xB6662, size: 0x8, addend: 0x0, symName: '__ZN9hashbrown3raw21RawTable$LT$T$C$A$GT$7reserve17hddaf8b46b6547f46E', symObjAddr: 0x26B8, symBinAddr: 0x249B8, symSize: 0xB0 }
  - { offset: 0xB7B84, size: 0x8, addend: 0x0, symName: '__ZN145_$LT$core..option..Option$LT$T$GT$$u20$as$u20$core..ops..try_trait..FromResidual$LT$core..option..Option$LT$core..convert..Infallible$GT$$GT$$GT$13from_residual17h9a04d2f454202c39E', symObjAddr: 0x1D8, symBinAddr: 0x24B88, symSize: 0x10 }
  - { offset: 0xB92B2, size: 0x8, addend: 0x0, symName: '__ZN66_$LT$core..option..Option$LT$T$GT$$u20$as$u20$core..fmt..Debug$GT$3fmt17h678202f96be2b62aE', symObjAddr: 0x375C, symBinAddr: 0x25E78, symSize: 0x9C }
  - { offset: 0xB931C, size: 0x8, addend: 0x0, symName: '__ZN70_$LT$core..option..Option$LT$T$GT$$u20$as$u20$core..cmp..PartialEq$GT$2eq17h7515dffddbd6565cE', symObjAddr: 0x3834, symBinAddr: 0x25F14, symSize: 0xAC }
  - { offset: 0xB9396, size: 0x8, addend: 0x0, symName: '__ZN72_$LT$core..option..Option$LT$T$GT$$u20$as$u20$core..default..Default$GT$7default17h617e6eadd48772b6E', symObjAddr: 0x405C, symBinAddr: 0x2636C, symSize: 0x8 }
  - { offset: 0xB93BE, size: 0x8, addend: 0x0, symName: '__ZN72_$LT$core..option..Option$LT$T$GT$$u20$as$u20$core..default..Default$GT$7default17hb16a5c29a9619182E', symObjAddr: 0x4064, symBinAddr: 0x26374, symSize: 0x8 }
  - { offset: 0xB93E6, size: 0x8, addend: 0x0, symName: '__ZN72_$LT$core..option..Option$LT$T$GT$$u20$as$u20$core..default..Default$GT$7default17hb95a056a0d8862cbE', symObjAddr: 0x406C, symBinAddr: 0x2637C, symSize: 0x8 }
  - { offset: 0xB940E, size: 0x8, addend: 0x0, symName: '__ZN72_$LT$core..option..Option$LT$T$GT$$u20$as$u20$core..default..Default$GT$7default17heac0ab4629bdd93bE', symObjAddr: 0x4074, symBinAddr: 0x26384, symSize: 0x8 }
  - { offset: 0xB943C, size: 0x8, addend: 0x0, symName: '__ZN75_$LT$core..option..Option$LT$T$GT$$u20$as$u20$core..ops..try_trait..Try$GT$6branch17hab3e8dcc6503a14dE', symObjAddr: 0x413C, symBinAddr: 0x2638C, symSize: 0x40 }
  - { offset: 0xB9DFE, size: 0x8, addend: 0x0, symName: '__ZN4core3ptr7mut_ptr31_$LT$impl$u20$$BP$mut$u20$T$GT$7is_null17h5c31f13a7e1ca583E', symObjAddr: 0x1914, symBinAddr: 0x24F18, symSize: 0x18 }
  - { offset: 0xBA744, size: 0x8, addend: 0x0, symName: __ZN4core3cmp3Ord3max17h444992fcd60f9620E, symObjAddr: 0x1028, symBinAddr: 0x24D6C, symSize: 0x74 }
  - { offset: 0xBA7B2, size: 0x8, addend: 0x0, symName: __ZN4core3cmp3Ord3min17h35015bd113776732E, symObjAddr: 0x1110, symBinAddr: 0x24DE0, symSize: 0x74 }
  - { offset: 0xBA8D3, size: 0x8, addend: 0x0, symName: '__ZN4core3num23_$LT$impl$u20$usize$GT$13unchecked_add18precondition_check17ha180cefd64a3d015E', symObjAddr: 0x17E8, symBinAddr: 0x24E54, symSize: 0x64 }
  - { offset: 0xBA97C, size: 0x8, addend: 0x0, symName: '__ZN4core3num23_$LT$impl$u20$usize$GT$13unchecked_mul18precondition_check17h1b39a80db80f459cE', symObjAddr: 0x184C, symBinAddr: 0x24EB8, symSize: 0x60 }
  - { offset: 0xBABFC, size: 0x8, addend: 0x0, symName: '__ZN100_$LT$core..array..iter..iter_inner..PolymorphicIter$LT$DATA$GT$$u20$as$u20$core..ops..drop..Drop$GT$4drop17h6e1e5c7744c35363E', symObjAddr: 0x30, symBinAddr: 0x24A68, symSize: 0x30 }
  - { offset: 0xBAD36, size: 0x8, addend: 0x0, symName: '__ZN115_$LT$core..iter..adapters..filter_map..FilterMap$LT$I$C$F$GT$$u20$as$u20$core..iter..traits..iterator..Iterator$GT$4next17ha1b51fec5f44683eE', symObjAddr: 0x60, symBinAddr: 0x24A98, symSize: 0x2C }
  - { offset: 0xBAD7D, size: 0x8, addend: 0x0, symName: '__ZN115_$LT$core..iter..adapters..filter_map..FilterMap$LT$I$C$F$GT$$u20$as$u20$core..iter..traits..iterator..Iterator$GT$4next17hcf87bb22b90bc9dfE', symObjAddr: 0x8C, symBinAddr: 0x24AC4, symSize: 0x2C }
  - { offset: 0xBADC4, size: 0x8, addend: 0x0, symName: '__ZN115_$LT$core..iter..adapters..filter_map..FilterMap$LT$I$C$F$GT$$u20$as$u20$core..iter..traits..iterator..Iterator$GT$9size_hint17h42f824b55d146330E', symObjAddr: 0xB8, symBinAddr: 0x24AF0, symSize: 0x4C }
  - { offset: 0xBAE28, size: 0x8, addend: 0x0, symName: '__ZN115_$LT$core..iter..adapters..filter_map..FilterMap$LT$I$C$F$GT$$u20$as$u20$core..iter..traits..iterator..Iterator$GT$9size_hint17hb56dda7fe32327d7E', symObjAddr: 0x104, symBinAddr: 0x24B3C, symSize: 0x4C }
  - { offset: 0xBAEFE, size: 0x8, addend: 0x0, symName: '__ZN146_$LT$core..ops..range..Range$LT$usize$GT$$u20$as$u20$core..iter..adapters..step_by..SpecRangeSetup$LT$core..ops..range..Range$LT$usize$GT$$GT$$GT$5setup17h018f7dcd8ccd1950E', symObjAddr: 0x1E8, symBinAddr: 0x24B98, symSize: 0x110 }
  - { offset: 0xBB0BF, size: 0x8, addend: 0x0, symName: __ZN4core4iter6traits8iterator8Iterator7collect17h29452a5f5f1bd63dE, symObjAddr: 0x197C, symBinAddr: 0x24F30, symSize: 0x14 }
  - { offset: 0xBB100, size: 0x8, addend: 0x0, symName: __ZN4core4iter6traits8iterator8Iterator7collect17hd92c0dd8d586a425E, symObjAddr: 0x1990, symBinAddr: 0x24F44, symSize: 0x14 }
  - { offset: 0xBB17E, size: 0x8, addend: 0x0, symName: '__ZN63_$LT$I$u20$as$u20$core..iter..traits..collect..IntoIterator$GT$9into_iter17h97f3923bbe202f87E', symObjAddr: 0x36E8, symBinAddr: 0x25E18, symSize: 0x30 }
  - { offset: 0xBB1B6, size: 0x8, addend: 0x0, symName: '__ZN63_$LT$I$u20$as$u20$core..iter..traits..collect..IntoIterator$GT$9into_iter17hdf78197cf961218cE', symObjAddr: 0x372C, symBinAddr: 0x25E48, symSize: 0x30 }
  - { offset: 0xBB2C7, size: 0x8, addend: 0x0, symName: '__ZN4core5slice4iter87_$LT$impl$u20$core..iter..traits..collect..IntoIterator$u20$for$u20$$RF$$u5b$T$u5d$$GT$9into_iter17h55d7c4db6a35f73eE', symObjAddr: 0x1D28, symBinAddr: 0x250C8, symSize: 0x50 }
  - { offset: 0xBB616, size: 0x8, addend: 0x0, symName: '__ZN42_$LT$$RF$T$u20$as$u20$core..fmt..Debug$GT$3fmt17h19fb5a1cce9351a1E', symObjAddr: 0xFF8, symBinAddr: 0x24D3C, symSize: 0x30 }
  - { offset: 0xBB6BC, size: 0x8, addend: 0x0, symName: '__ZN50_$LT$$BP$mut$u20$T$u20$as$u20$core..fmt..Debug$GT$3fmt17h228e28be35905cc9E', symObjAddr: 0x34DC, symBinAddr: 0x25CCC, symSize: 0x38 }
  - { offset: 0xBB72E, size: 0x8, addend: 0x0, symName: '__ZN54_$LT$$BP$const$u20$T$u20$as$u20$core..fmt..Pointer$GT$3fmt17he612b8b699f38d26E', symObjAddr: 0x3514, symBinAddr: 0x25D04, symSize: 0xCC }
  - { offset: 0xBC62F, size: 0x8, addend: 0x0, symName: __ZN8pyo3_ffi8pyerrors22PyExceptionClass_Check17ha785bed49ac7aed5E, symObjAddr: 0x446C, symBinAddr: 0x26420, symSize: 0x60 }
  - { offset: 0xBC65B, size: 0x8, addend: 0x0, symName: __ZN8pyo3_ffi8pyerrors25PyExceptionInstance_Check17h4fb2307317a63dd2E, symObjAddr: 0x44CC, symBinAddr: 0x26480, symSize: 0x30 }
  - { offset: 0xBCDC9, size: 0x8, addend: 0x0, symName: '__ZN78_$LT$$u21$$u20$as$u20$std..sys..thread_local..native..lazy..DestroyedState$GT$13register_dtor17hc2f73e7456b4e3c5E', symObjAddr: 0x417C, symBinAddr: 0x263CC, symSize: 0x10 }
  - { offset: 0xBD3BF, size: 0x8, addend: 0x0, symName: '__ZN5alloc5boxed12Box$LT$T$GT$8into_raw17h2e92ae33240fc07bE', symObjAddr: 0x35E0, symBinAddr: 0x25DD0, symSize: 0x18 }
  - { offset: 0xBD3F6, size: 0x8, addend: 0x0, symName: '__ZN5alloc5boxed12Box$LT$T$GT$8into_raw17h64af1412cd10ad49E', symObjAddr: 0x35F8, symBinAddr: 0x25DE8, symSize: 0x18 }
  - { offset: 0xBD42D, size: 0x8, addend: 0x0, symName: '__ZN5alloc5boxed12Box$LT$T$GT$8into_raw17hf3dca290b86c67aeE', symObjAddr: 0x3610, symBinAddr: 0x25E00, symSize: 0x18 }
  - { offset: 0xBD46A, size: 0x8, addend: 0x0, symName: '__ZN72_$LT$alloc..boxed..Box$LT$T$C$A$GT$$u20$as$u20$core..ops..drop..Drop$GT$4drop17h1bf866a280db89abE', symObjAddr: 0x39C0, symBinAddr: 0x25FC0, symSize: 0xC4 }
  - { offset: 0xBD5A3, size: 0x8, addend: 0x0, symName: '__ZN72_$LT$alloc..boxed..Box$LT$T$C$A$GT$$u20$as$u20$core..ops..drop..Drop$GT$4drop17h26dce0205531bc4dE', symObjAddr: 0x3A84, symBinAddr: 0x26084, symSize: 0xB0 }
  - { offset: 0xBD6DC, size: 0x8, addend: 0x0, symName: '__ZN72_$LT$alloc..boxed..Box$LT$T$C$A$GT$$u20$as$u20$core..ops..drop..Drop$GT$4drop17h97267b957518d3d1E', symObjAddr: 0x3D6C, symBinAddr: 0x26134, symSize: 0xC4 }
  - { offset: 0xBD815, size: 0x8, addend: 0x0, symName: '__ZN72_$LT$alloc..boxed..Box$LT$T$C$A$GT$$u20$as$u20$core..ops..drop..Drop$GT$4drop17hac8851a29a2c4ce9E', symObjAddr: 0x3E30, symBinAddr: 0x261F8, symSize: 0xB0 }
  - { offset: 0xBD94E, size: 0x8, addend: 0x0, symName: '__ZN72_$LT$alloc..boxed..Box$LT$T$C$A$GT$$u20$as$u20$core..ops..drop..Drop$GT$4drop17hb949c08023c32329E', symObjAddr: 0x3EE0, symBinAddr: 0x262A8, symSize: 0xC4 }
  - { offset: 0xBDAD7, size: 0x8, addend: 0x0, symName: '__ZN86_$LT$alloc..boxed..Box$LT$F$C$A$GT$$u20$as$u20$core..ops..function..Fn$LT$Args$GT$$GT$4call17h56fbb85a4897560fE', symObjAddr: 0x4234, symBinAddr: 0x263DC, symSize: 0x44 }
  - { offset: 0xBDB31, size: 0x8, addend: 0x0, symName: '__ZN90_$LT$alloc..boxed..Box$LT$F$C$A$GT$$u20$as$u20$core..ops..function..FnOnce$LT$Args$GT$$GT$9call_once17h1e4d8ba948f9f9b5E', symObjAddr: 0x44FC, symBinAddr: 0x264B0, symSize: 0x138 }
  - { offset: 0xBDFC1, size: 0x8, addend: 0x0, symName: '__ZN3std3sys12thread_local6native4lazy20Storage$LT$T$C$D$GT$11get_or_init17hc5f37111ecead4bdE', symObjAddr: 0xD8C, symBinAddr: 0x24CA8, symSize: 0x94 }
  - { offset: 0xBE1C2, size: 0x8, addend: 0x0, symName: '__ZN3std3sys12thread_local6native4lazy20Storage$LT$T$C$D$GT$16get_or_init_slow17hb996a167ac5f7987E', symObjAddr: 0xE20, symBinAddr: 0x753FC, symSize: 0x1D8 }
  - { offset: 0xBE5FD, size: 0x8, addend: 0x0, symName: '__ZN4core5array4iter10iter_inner78PolymorphicIter$LT$$u5b$core..mem..maybe_uninit..MaybeUninit$LT$T$GT$$u5d$$GT$4next17h5934c9b77c3c83adE', symObjAddr: 0x19A4, symBinAddr: 0x24F58, symSize: 0x170 }
  - { offset: 0xBE9D5, size: 0x8, addend: 0x0, symName: '__ZN4core6option15Option$LT$T$GT$11map_or_else17hcda6d20965fe5bc1E', symObjAddr: 0x1FB0, symBinAddr: 0x25118, symSize: 0xC0 }
  - { offset: 0xBEA58, size: 0x8, addend: 0x0, symName: '__ZN4core6option15Option$LT$T$GT$14unwrap_or_else17h44d98044eaf5bfdbE', symObjAddr: 0x2194, symBinAddr: 0x251D8, symSize: 0x58 }
  - { offset: 0xBEC50, size: 0x8, addend: 0x0, symName: '__ZN4core6option15Option$LT$T$GT$16unwrap_unchecked17h0d9dc61f39c0e993E', symObjAddr: 0x21EC, symBinAddr: 0x25230, symSize: 0x4C }
  - { offset: 0xBEC9E, size: 0x8, addend: 0x0, symName: '__ZN4core6option15Option$LT$T$GT$16unwrap_unchecked17h635663edda68a517E', symObjAddr: 0x2238, symBinAddr: 0x2527C, symSize: 0x4C }
  - { offset: 0xBED15, size: 0x8, addend: 0x0, symName: '__ZN4core6option15Option$LT$T$GT$3map17h1cf227c677fe5a0eE', symObjAddr: 0x2348, symBinAddr: 0x252C8, symSize: 0x50 }
  - { offset: 0xBED80, size: 0x8, addend: 0x0, symName: '__ZN4core6option15Option$LT$T$GT$3map17h409b0f0bc1fa9427E', symObjAddr: 0x23F4, symBinAddr: 0x25318, symSize: 0x64 }
  - { offset: 0xBEDEB, size: 0x8, addend: 0x0, symName: '__ZN4core6option15Option$LT$T$GT$3map17h761cdb9c35c76659E', symObjAddr: 0x2458, symBinAddr: 0x2537C, symSize: 0x50 }
  - { offset: 0xBEE56, size: 0x8, addend: 0x0, symName: '__ZN4core6option15Option$LT$T$GT$3map17h7689aa510e14b512E', symObjAddr: 0x24A8, symBinAddr: 0x253CC, symSize: 0x5C }
  - { offset: 0xBEEC1, size: 0x8, addend: 0x0, symName: '__ZN4core6option15Option$LT$T$GT$3map17h7d70f83a99154234E', symObjAddr: 0x2504, symBinAddr: 0x25428, symSize: 0x50 }
  - { offset: 0xBEF5C, size: 0x8, addend: 0x0, symName: '__ZN4core6option15Option$LT$T$GT$3map17h901ca96a1166e034E', symObjAddr: 0x25D0, symBinAddr: 0x25478, symSize: 0x70 }
  - { offset: 0xBF01C, size: 0x8, addend: 0x0, symName: '__ZN4core6option15Option$LT$T$GT$3map17hd0e921dd9bb2ea07E', symObjAddr: 0x278C, symBinAddr: 0x254E8, symSize: 0x74 }
  - { offset: 0xBF088, size: 0x8, addend: 0x0, symName: '__ZN4core6option15Option$LT$T$GT$3map17hf41ecc557fc887bdE', symObjAddr: 0x285C, symBinAddr: 0x2555C, symSize: 0x50 }
  - { offset: 0xBF100, size: 0x8, addend: 0x0, symName: '__ZN4core6option15Option$LT$T$GT$4take17h5742199e63d70804E', symObjAddr: 0x28AC, symBinAddr: 0x255AC, symSize: 0x20 }
  - { offset: 0xBF157, size: 0x8, addend: 0x0, symName: '__ZN4core6option15Option$LT$T$GT$4take17h7f1ca064cd046075E', symObjAddr: 0x28CC, symBinAddr: 0x255CC, symSize: 0x3C }
  - { offset: 0xBF1C8, size: 0x8, addend: 0x0, symName: '__ZN4core6option15Option$LT$T$GT$6as_ref17h1d3ab2bc548fa1f4E', symObjAddr: 0x29D4, symBinAddr: 0x25608, symSize: 0x4C }
  - { offset: 0xBF21F, size: 0x8, addend: 0x0, symName: '__ZN4core6option15Option$LT$T$GT$6as_ref17h2248950a312bf162E', symObjAddr: 0x2A20, symBinAddr: 0x25654, symSize: 0x48 }
  - { offset: 0xBF2DC, size: 0x8, addend: 0x0, symName: '__ZN4core6option15Option$LT$T$GT$6as_ref17h6a5f7cefbd9ea6e9E', symObjAddr: 0x2AB4, symBinAddr: 0x2569C, symSize: 0x50 }
  - { offset: 0xBF333, size: 0x8, addend: 0x0, symName: '__ZN4core6option15Option$LT$T$GT$6as_ref17haf556e0eb8c77e90E', symObjAddr: 0x2B04, symBinAddr: 0x256EC, symSize: 0x48 }
  - { offset: 0xBF397, size: 0x8, addend: 0x0, symName: '__ZN4core6option15Option$LT$T$GT$6as_ref17hceccb452d64851a2E', symObjAddr: 0x2B4C, symBinAddr: 0x25734, symSize: 0x4C }
  - { offset: 0xBF3FB, size: 0x8, addend: 0x0, symName: '__ZN4core6option15Option$LT$T$GT$6as_ref17hd2a73d8a8ba7d61eE', symObjAddr: 0x2B98, symBinAddr: 0x25780, symSize: 0x4C }
  - { offset: 0xBF45F, size: 0x8, addend: 0x0, symName: '__ZN4core6option15Option$LT$T$GT$6as_ref17he7a4b1a7052c79d7E', symObjAddr: 0x2BE4, symBinAddr: 0x257CC, symSize: 0x4C }
  - { offset: 0xBF4A9, size: 0x8, addend: 0x0, symName: '__ZN4core6option15Option$LT$T$GT$6expect17h03023832cdb5207dE', symObjAddr: 0x2C30, symBinAddr: 0x25818, symSize: 0x5C }
  - { offset: 0xBF4E4, size: 0x8, addend: 0x0, symName: '__ZN4core6option15Option$LT$T$GT$6expect17h1d4fc340791b1ed5E', symObjAddr: 0x2C8C, symBinAddr: 0x25874, symSize: 0x60 }
  - { offset: 0xBF538, size: 0x8, addend: 0x0, symName: '__ZN4core6option15Option$LT$T$GT$6map_or17h528af9ea62db9045E', symObjAddr: 0x2D98, symBinAddr: 0x258D4, symSize: 0x9C }
  - { offset: 0xBF601, size: 0x8, addend: 0x0, symName: '__ZN4core6option15Option$LT$T$GT$6map_or17h9901a1c01d351318E', symObjAddr: 0x2ED0, symBinAddr: 0x25970, symSize: 0xA8 }
  - { offset: 0xBF68B, size: 0x8, addend: 0x0, symName: '__ZN4core6option15Option$LT$T$GT$6map_or17ha56c6fec640f1e27E', symObjAddr: 0x2F78, symBinAddr: 0x25A18, symSize: 0x9C }
  - { offset: 0xBF719, size: 0x8, addend: 0x0, symName: '__ZN4core6option15Option$LT$T$GT$7is_none17h788ff9e018ec3c70E', symObjAddr: 0x303C, symBinAddr: 0x25AB4, symSize: 0x28 }
  - { offset: 0xBF78C, size: 0x8, addend: 0x0, symName: '__ZN4core6option15Option$LT$T$GT$7is_none17hb185ccc74d8fbe06E', symObjAddr: 0x3064, symBinAddr: 0x25ADC, symSize: 0x28 }
  - { offset: 0xBF7E3, size: 0x8, addend: 0x0, symName: '__ZN4core6option15Option$LT$T$GT$7is_some17h3825bd3e2f297748E', symObjAddr: 0x30B4, symBinAddr: 0x25B04, symSize: 0x24 }
  - { offset: 0xBF80F, size: 0x8, addend: 0x0, symName: '__ZN4core6option15Option$LT$T$GT$7is_some17h7a408c8ba3328ee1E', symObjAddr: 0x3100, symBinAddr: 0x25B28, symSize: 0x2C }
  - { offset: 0xBF83B, size: 0x8, addend: 0x0, symName: '__ZN4core6option15Option$LT$T$GT$7is_some17h89b59800051d13d6E', symObjAddr: 0x312C, symBinAddr: 0x25B54, symSize: 0x28 }
  - { offset: 0xBF867, size: 0x8, addend: 0x0, symName: '__ZN4core6option15Option$LT$T$GT$7is_some17h96c54f81d75fe3edE', symObjAddr: 0x3154, symBinAddr: 0x25B7C, symSize: 0x28 }
  - { offset: 0xBF893, size: 0x8, addend: 0x0, symName: '__ZN4core6option15Option$LT$T$GT$7is_some17h9719b4c544cf30ccE', symObjAddr: 0x317C, symBinAddr: 0x25BA4, symSize: 0x28 }
  - { offset: 0xBF8CC, size: 0x8, addend: 0x0, symName: '__ZN4core6option15Option$LT$T$GT$7is_some17hadb3d547de3ac8a2E', symObjAddr: 0x31A4, symBinAddr: 0x25BCC, symSize: 0x28 }
  - { offset: 0xBF8F8, size: 0x8, addend: 0x0, symName: '__ZN4core6option15Option$LT$T$GT$7is_some17hb3d580d3dcd0ff54E', symObjAddr: 0x31CC, symBinAddr: 0x25BF4, symSize: 0x28 }
  - { offset: 0xBF924, size: 0x8, addend: 0x0, symName: '__ZN4core6option15Option$LT$T$GT$9unwrap_or17h3cdacc72e1525667E', symObjAddr: 0x31F4, symBinAddr: 0x25C1C, symSize: 0x48 }
  - { offset: 0xBF966, size: 0x8, addend: 0x0, symName: '__ZN4core6option15Option$LT$T$GT$9unwrap_or17he848cf9e1f4d3acfE', symObjAddr: 0x32C8, symBinAddr: 0x25C64, symSize: 0x68 }
  - { offset: 0xBFF9A, size: 0x8, addend: 0x0, symName: __ZN9hashbrown7control5group4neon5Group10match_full17hd85dc3dc93db15f8E, symObjAddr: 0x4634, symBinAddr: 0x265E8, symSize: 0x68 }
  - { offset: 0xBFFD2, size: 0x8, addend: 0x0, symName: __ZN9hashbrown7control5group4neon5Group22match_empty_or_deleted17h92862393b05c29e5E, symObjAddr: 0x469C, symBinAddr: 0x26650, symSize: 0x68 }
  - { offset: 0xC000A, size: 0x8, addend: 0x0, symName: __ZN9hashbrown7control5group4neon5Group44convert_special_to_empty_and_full_to_deleted17hdcdb9dd524d116fbE, symObjAddr: 0x4704, symBinAddr: 0x266B8, symSize: 0x88 }
  - { offset: 0xC0042, size: 0x8, addend: 0x0, symName: __ZN9hashbrown7control5group4neon5Group9match_tag17h8d7caf8cf16d2514E, symObjAddr: 0x478C, symBinAddr: 0x26740, symSize: 0x7C }
  - { offset: 0xC07D5, size: 0x8, addend: 0x0, symName: '__ZN4core3ptr7mut_ptr31_$LT$impl$u20$$BP$mut$u20$T$GT$6offset18precondition_check17hedfe79d6acc1d50eE', symObjAddr: 0x1F0, symBinAddr: 0x26840, symSize: 0xC4 }
  - { offset: 0xC1E20, size: 0x8, addend: 0x0, symName: __ZN4core9panicking13assert_failed17h3c74017970ef54aeE, symObjAddr: 0x1644, symBinAddr: 0x755D4, symSize: 0x54 }
  - { offset: 0xC1E89, size: 0x8, addend: 0x0, symName: __ZN4core9panicking13panic_display17h5aba893881db9797E, symObjAddr: 0x1698, symBinAddr: 0x26CC0, symSize: 0x5C }
  - { offset: 0xC214A, size: 0x8, addend: 0x0, symName: '__ZN4core7convert3num67_$LT$impl$u20$core..convert..TryFrom$LT$u64$GT$$u20$for$u20$u32$GT$8try_from17h10e8fae0a47522ddE', symObjAddr: 0x1490, symBinAddr: 0x26C08, symSize: 0x5C }
  - { offset: 0xC217E, size: 0x8, addend: 0x0, symName: '__ZN4core7convert3num71_$LT$impl$u20$core..convert..TryFrom$LT$usize$GT$$u20$for$u20$isize$GT$8try_from17hf8b619008102df0cE', symObjAddr: 0x1540, symBinAddr: 0x26C64, symSize: 0x5C }
  - { offset: 0xC24BF, size: 0x8, addend: 0x0, symName: __ZN4core4hash11BuildHasher8hash_one17hed31a36e4cecf332E, symObjAddr: 0x8B4, symBinAddr: 0x26904, symSize: 0x84 }
  - { offset: 0xC252A, size: 0x8, addend: 0x0, symName: __ZN4core4hash6Hasher11write_usize17hd92c35c4ef3ae7d1E, symObjAddr: 0x938, symBinAddr: 0x26988, symSize: 0x3C }
  - { offset: 0xC258A, size: 0x8, addend: 0x0, symName: __ZN4core4hash6Hasher19write_length_prefix17h2f75e2b23dba50f7E, symObjAddr: 0x974, symBinAddr: 0x269C4, symSize: 0x28 }
  - { offset: 0xC2726, size: 0x8, addend: 0x0, symName: __ZN4core4iter6traits8iterator8Iterator3zip17h320da2690a7e919dE, symObjAddr: 0x9D4, symBinAddr: 0x269EC, symSize: 0xC8 }
  - { offset: 0xC279C, size: 0x8, addend: 0x0, symName: __ZN4core4iter6traits8iterator8Iterator4take17h71779796ca8e5421E, symObjAddr: 0xB64, symBinAddr: 0x26AB4, symSize: 0x2C }
  - { offset: 0xC27F7, size: 0x8, addend: 0x0, symName: __ZN4core4iter6traits8iterator8Iterator9enumerate17h75ac643019163000E, symObjAddr: 0xE38, symBinAddr: 0x26AE0, symSize: 0x28 }
  - { offset: 0xC28CC, size: 0x8, addend: 0x0, symName: __ZN4core4iter8adapters3zip27TrustedRandomAccessNoCoerce4size17h59bf98a3d0aa94bdE, symObjAddr: 0xE60, symBinAddr: 0x26B08, symSize: 0x2C }
  - { offset: 0xC2903, size: 0x8, addend: 0x0, symName: __ZN4core4iter8adapters3zip27TrustedRandomAccessNoCoerce4size17h7fe9d1e4acd4c2efE, symObjAddr: 0xE8C, symBinAddr: 0x26B34, symSize: 0x2C }
  - { offset: 0xC2ACC, size: 0x8, addend: 0x0, symName: '__ZN91_$LT$core..slice..iter..Iter$LT$T$GT$$u20$as$u20$core..iter..traits..iterator..Iterator$GT$24__iterator_get_unchecked17h11c4bbcf1c1d262bE', symObjAddr: 0x2B58, symBinAddr: 0x26E90, symSize: 0x28 }
  - { offset: 0xC2B27, size: 0x8, addend: 0x0, symName: '__ZN91_$LT$core..slice..iter..Iter$LT$T$GT$$u20$as$u20$core..iter..traits..iterator..Iterator$GT$24__iterator_get_unchecked17hca412ae0cd8bd01dE', symObjAddr: 0x2BA0, symBinAddr: 0x26EB8, symSize: 0x20 }
  - { offset: 0xC2BD1, size: 0x8, addend: 0x0, symName: '__ZN91_$LT$core..slice..iter..Iter$LT$T$GT$$u20$as$u20$core..iter..traits..iterator..Iterator$GT$3any17h3f19da7c4360a320E', symObjAddr: 0x2BE8, symBinAddr: 0x26ED8, symSize: 0xE4 }
  - { offset: 0xC2CAC, size: 0x8, addend: 0x0, symName: '__ZN91_$LT$core..slice..iter..Iter$LT$T$GT$$u20$as$u20$core..iter..traits..iterator..Iterator$GT$4next17h2fa2e3b36f5d1a75E', symObjAddr: 0x2EF0, symBinAddr: 0x26FBC, symSize: 0x84 }
  - { offset: 0xC2D62, size: 0x8, addend: 0x0, symName: '__ZN91_$LT$core..slice..iter..Iter$LT$T$GT$$u20$as$u20$core..iter..traits..iterator..Iterator$GT$4next17h50d70c0831684fb4E', symObjAddr: 0x2F74, symBinAddr: 0x27040, symSize: 0x84 }
  - { offset: 0xC2E18, size: 0x8, addend: 0x0, symName: '__ZN91_$LT$core..slice..iter..Iter$LT$T$GT$$u20$as$u20$core..iter..traits..iterator..Iterator$GT$4next17hb4ef4f53969c7c62E', symObjAddr: 0x2FF8, symBinAddr: 0x270C4, symSize: 0x84 }
  - { offset: 0xC2ECE, size: 0x8, addend: 0x0, symName: '__ZN91_$LT$core..slice..iter..Iter$LT$T$GT$$u20$as$u20$core..iter..traits..iterator..Iterator$GT$4next17hbe5423fc57451d95E', symObjAddr: 0x307C, symBinAddr: 0x27148, symSize: 0x84 }
  - { offset: 0xC2F84, size: 0x8, addend: 0x0, symName: '__ZN91_$LT$core..slice..iter..Iter$LT$T$GT$$u20$as$u20$core..iter..traits..iterator..Iterator$GT$9size_hint17h3e7ecae2e308edf2E', symObjAddr: 0x3184, symBinAddr: 0x271CC, symSize: 0xB4 }
  - { offset: 0xC30B1, size: 0x8, addend: 0x0, symName: '__ZN91_$LT$core..slice..iter..Iter$LT$T$GT$$u20$as$u20$core..iter..traits..iterator..Iterator$GT$9size_hint17hb7b77b3548accdc2E', symObjAddr: 0x33A0, symBinAddr: 0x27280, symSize: 0xB4 }
  - { offset: 0xC31DE, size: 0x8, addend: 0x0, symName: '__ZN91_$LT$core..slice..iter..Iter$LT$T$GT$$u20$as$u20$core..iter..traits..iterator..Iterator$GT$9size_hint17hf4f697dbed74b7beE', symObjAddr: 0x3454, symBinAddr: 0x27334, symSize: 0xB4 }
  - { offset: 0xC3347, size: 0x8, addend: 0x0, symName: '__ZN94_$LT$core..slice..iter..IterMut$LT$T$GT$$u20$as$u20$core..iter..traits..iterator..Iterator$GT$4next17hba0154c6493af193E', symObjAddr: 0x35BC, symBinAddr: 0x273E8, symSize: 0x84 }
  - { offset: 0xC423B, size: 0x8, addend: 0x0, symName: __ZN8pyo3_ffi13unicodeobject15PyUnicode_Check17h70c8395e3c6063daE, symObjAddr: 0x2248, symBinAddr: 0x26E60, symSize: 0x30 }
  - { offset: 0xC4707, size: 0x8, addend: 0x0, symName: '__ZN3std4hash6random11RandomState3new28_$u7b$$u7b$closure$u7d$$u7d$17h8b325b1b7af34eb1E', symObjAddr: 0x54, symBinAddr: 0x267BC, symSize: 0x2C }
  - { offset: 0xC47C3, size: 0x8, addend: 0x0, symName: __ZN3std4hash6random11RandomState3new4KEYS27__rust_std_internal_init_fn17ha62153c048b7ce9bE, symObjAddr: 0x80, symBinAddr: 0x267E8, symSize: 0x24 }
  - { offset: 0xC47E5, size: 0x8, addend: 0x0, symName: '__ZN3std4hash6random11RandomState3new4KEYS29_$u7b$$u7b$constant$u7d$$u7d$28_$u7b$$u7b$closure$u7d$$u7d$17h1fef34175bc3e990E', symObjAddr: 0xA4, symBinAddr: 0x2680C, symSize: 0x34 }
  - { offset: 0xC4832, size: 0x8, addend: 0x0, symName: '__ZN71_$LT$std..hash..random..DefaultHasher$u20$as$u20$core..hash..Hasher$GT$5write17h6b87e350dbff2d70E', symObjAddr: 0x1B20, symBinAddr: 0x26D48, symSize: 0x2C }
  - { offset: 0xC488C, size: 0x8, addend: 0x0, symName: '__ZN71_$LT$std..hash..random..DefaultHasher$u20$as$u20$core..hash..Hasher$GT$6finish17h3b377aa9b6955b8fE', symObjAddr: 0x1B4C, symBinAddr: 0x26D74, symSize: 0x20 }
  - { offset: 0xC48DA, size: 0x8, addend: 0x0, symName: '__ZN74_$LT$std..hash..random..RandomState$u20$as$u20$core..hash..BuildHasher$GT$12build_hasher17h42a679a4405bef1dE', symObjAddr: 0x1B6C, symBinAddr: 0x26D94, symSize: 0xCC }
  - { offset: 0xC4C8F, size: 0x8, addend: 0x0, symName: '__ZN4core5slice4iter13Iter$LT$T$GT$3new17h3e17953432fd6bdbE', symObjAddr: 0xF10, symBinAddr: 0x26B60, symSize: 0x50 }
  - { offset: 0xC4E3F, size: 0x8, addend: 0x0, symName: '__ZN4core5slice4iter13Iter$LT$T$GT$3new17ha09d8669453000f4E', symObjAddr: 0xF60, symBinAddr: 0x26BB0, symSize: 0x58 }
  - { offset: 0xC5000, size: 0x8, addend: 0x0, symName: __ZN4pyo35types4none6PyNone9get_bound17ha9efef4d5222050bE, symObjAddr: 0x19E0, symBinAddr: 0x26D1C, symSize: 0x2C }
  - { offset: 0xC5B20, size: 0x8, addend: 0x0, symName: '__ZN77_$LT$alloc..raw_vec..RawVec$LT$T$C$A$GT$$u20$as$u20$core..ops..drop..Drop$GT$4drop17h0500d01831582c41E', symObjAddr: 0x4E6C, symBinAddr: 0x29D4C, symSize: 0x34 }
  - { offset: 0xC5B5C, size: 0x8, addend: 0x0, symName: '__ZN77_$LT$alloc..raw_vec..RawVec$LT$T$C$A$GT$$u20$as$u20$core..ops..drop..Drop$GT$4drop17h2d370624c2f83afaE', symObjAddr: 0x4EA0, symBinAddr: 0x29D80, symSize: 0x34 }
  - { offset: 0xC5B98, size: 0x8, addend: 0x0, symName: '__ZN77_$LT$alloc..raw_vec..RawVec$LT$T$C$A$GT$$u20$as$u20$core..ops..drop..Drop$GT$4drop17h2ff1973e50b8411cE', symObjAddr: 0x4ED4, symBinAddr: 0x29DB4, symSize: 0x30 }
  - { offset: 0xC5BD4, size: 0x8, addend: 0x0, symName: '__ZN77_$LT$alloc..raw_vec..RawVec$LT$T$C$A$GT$$u20$as$u20$core..ops..drop..Drop$GT$4drop17h4abfa364371402dcE', symObjAddr: 0x4F04, symBinAddr: 0x29DE4, symSize: 0x34 }
  - { offset: 0xC5C10, size: 0x8, addend: 0x0, symName: '__ZN77_$LT$alloc..raw_vec..RawVec$LT$T$C$A$GT$$u20$as$u20$core..ops..drop..Drop$GT$4drop17h6652c507e6c7b9e1E', symObjAddr: 0x4F38, symBinAddr: 0x29E18, symSize: 0x34 }
  - { offset: 0xC5C4C, size: 0x8, addend: 0x0, symName: '__ZN77_$LT$alloc..raw_vec..RawVec$LT$T$C$A$GT$$u20$as$u20$core..ops..drop..Drop$GT$4drop17h70be8fcaa77b6d7bE', symObjAddr: 0x4F6C, symBinAddr: 0x29E4C, symSize: 0x34 }
  - { offset: 0xC5C88, size: 0x8, addend: 0x0, symName: '__ZN77_$LT$alloc..raw_vec..RawVec$LT$T$C$A$GT$$u20$as$u20$core..ops..drop..Drop$GT$4drop17h7358776c1cb24bc7E', symObjAddr: 0x4FA0, symBinAddr: 0x29E80, symSize: 0x34 }
  - { offset: 0xC5CC4, size: 0x8, addend: 0x0, symName: '__ZN77_$LT$alloc..raw_vec..RawVec$LT$T$C$A$GT$$u20$as$u20$core..ops..drop..Drop$GT$4drop17h7c45530550e24cb5E', symObjAddr: 0x4FD4, symBinAddr: 0x29EB4, symSize: 0x30 }
  - { offset: 0xC5D00, size: 0x8, addend: 0x0, symName: '__ZN77_$LT$alloc..raw_vec..RawVec$LT$T$C$A$GT$$u20$as$u20$core..ops..drop..Drop$GT$4drop17he14a54fb5fa7f8b4E', symObjAddr: 0x5034, symBinAddr: 0x29EE4, symSize: 0x34 }
  - { offset: 0xC5D3C, size: 0x8, addend: 0x0, symName: '__ZN77_$LT$alloc..raw_vec..RawVec$LT$T$C$A$GT$$u20$as$u20$core..ops..drop..Drop$GT$4drop17he741ff35109cc4a0E', symObjAddr: 0x5068, symBinAddr: 0x29F18, symSize: 0x34 }
  - { offset: 0xC66C4, size: 0x8, addend: 0x0, symName: __ZN4core3ptr10swap_chunk17h097f71b1363f1336E, symObjAddr: 0xDC8, symBinAddr: 0x279B8, symSize: 0x3C }
  - { offset: 0xC66FD, size: 0x8, addend: 0x0, symName: __ZN4core3ptr10swap_chunk17h31ee6efc218eabdeE, symObjAddr: 0xE04, symBinAddr: 0x279F4, symSize: 0x3C }
  - { offset: 0xC6736, size: 0x8, addend: 0x0, symName: __ZN4core3ptr10swap_chunk17hd547bc3033e48160E, symObjAddr: 0xE40, symBinAddr: 0x27A30, symSize: 0x3C }
  - { offset: 0xC676F, size: 0x8, addend: 0x0, symName: __ZN4core3ptr10swap_chunk17hfc967e20f7efe04cE, symObjAddr: 0xE7C, symBinAddr: 0x27A6C, symSize: 0x3C }
  - { offset: 0xC67AD, size: 0x8, addend: 0x0, symName: __ZN4core3ptr11write_bytes18precondition_check17h944217db3064e906E, symObjAddr: 0xEB8, symBinAddr: 0x27AA8, symSize: 0x9C }
  - { offset: 0xC6943, size: 0x8, addend: 0x0, symName: __ZN4core3ptr14read_unaligned17hf1063367f4f9d5f2E, symObjAddr: 0xF54, symBinAddr: 0x27B44, symSize: 0x9C }
  - { offset: 0xC6A8E, size: 0x8, addend: 0x0, symName: __ZN4core3ptr15write_unaligned17h603d1f8d5e8103b0E, symObjAddr: 0xFF0, symBinAddr: 0x27BE0, symSize: 0x78 }
  - { offset: 0xC6B19, size: 0x8, addend: 0x0, symName: __ZN4core3ptr19copy_nonoverlapping18precondition_check17h197be7f383c39ad8E, symObjAddr: 0x1068, symBinAddr: 0x27C58, symSize: 0x168 }
  - { offset: 0xC6CCE, size: 0x8, addend: 0x0, symName: __ZN4core3ptr25swap_nonoverlapping_bytes17hacf01e6f7c42708fE, symObjAddr: 0x1414, symBinAddr: 0x27DC0, symSize: 0xD8 }
  - { offset: 0xC6E77, size: 0x8, addend: 0x0, symName: __ZN4core3ptr25swap_nonoverlapping_bytes25swap_nonoverlapping_short17hfcc1d78130960b70E, symObjAddr: 0x14EC, symBinAddr: 0x27E98, symSize: 0x11C }
  - { offset: 0xC7003, size: 0x8, addend: 0x0, symName: __ZN4core3ptr25swap_nonoverlapping_bytes26swap_nonoverlapping_chunks17h552b14c96b3097acE, symObjAddr: 0x1608, symBinAddr: 0x27FB4, symSize: 0xC0 }
  - { offset: 0xC7186, size: 0x8, addend: 0x0, symName: __ZN4core3ptr4copy18precondition_check17h1313e932d9454232E, symObjAddr: 0x16C8, symBinAddr: 0x28074, symSize: 0x130 }
  - { offset: 0xC72D2, size: 0x8, addend: 0x0, symName: '__ZN4core3ptr52_$LT$impl$u20$core..cmp..PartialEq$u20$for$u20$F$GT$2eq17he81a9b07cc025e05E', symObjAddr: 0x17F8, symBinAddr: 0x281A4, symSize: 0x50 }
  - { offset: 0xC731E, size: 0x8, addend: 0x0, symName: __ZN4core3ptr7replace18precondition_check17ha70053afedd6db97E, symObjAddr: 0x18B4, symBinAddr: 0x281F4, symSize: 0x9C }
  - { offset: 0xC8CFC, size: 0x8, addend: 0x0, symName: '__ZN4core3ops8function5impls79_$LT$impl$u20$core..ops..function..FnMut$LT$A$GT$$u20$for$u20$$RF$mut$u20$F$GT$8call_mut17hc2bfe64aa2474184E', symObjAddr: 0xD58, symBinAddr: 0x27948, symSize: 0x38 }
  - { offset: 0xC8D4B, size: 0x8, addend: 0x0, symName: '__ZN4core3ops8function5impls79_$LT$impl$u20$core..ops..function..FnMut$LT$A$GT$$u20$for$u20$$RF$mut$u20$F$GT$8call_mut17hfe836d8fafc3ce5cE', symObjAddr: 0xD90, symBinAddr: 0x27980, symSize: 0x38 }
  - { offset: 0xCA171, size: 0x8, addend: 0x0, symName: '__ZN4core5slice29_$LT$impl$u20$$u5b$T$u5d$$GT$4iter17ha63a69891799ae02E', symObjAddr: 0x1C04, symBinAddr: 0x28290, symSize: 0x28 }
  - { offset: 0xCA1A8, size: 0x8, addend: 0x0, symName: '__ZN4core5slice29_$LT$impl$u20$$u5b$T$u5d$$GT$4iter17he103172161839708E', symObjAddr: 0x1C2C, symBinAddr: 0x282B8, symSize: 0x28 }
  - { offset: 0xCA364, size: 0x8, addend: 0x0, symName: __ZN4pyo35types6module7__all__8INTERNED17h853c57031c5c8840E, symObjAddr: 0x6C90, symBinAddr: 0xC0568, symSize: 0x0 }
  - { offset: 0xCA37C, size: 0x8, addend: 0x0, symName: '__ZN115_$LT$pyo3..instance..Bound$LT$pyo3..types..module..PyModule$GT$$u20$as$u20$pyo3..types..module..PyModuleMethods$GT$3add5inner17hd11b91284e72c8faE', symObjAddr: 0x434, symBinAddr: 0x2746C, symSize: 0x264 }
  - { offset: 0xCA408, size: 0x8, addend: 0x0, symName: __ZN4pyo35types6module7__all__17h7f2c9fdf3c3546c1E, symObjAddr: 0x3D24, symBinAddr: 0x294A0, symSize: 0x24 }
  - { offset: 0xCA83A, size: 0x8, addend: 0x0, symName: '__ZN135_$LT$pyo3..impl_..pyclass..lazy_type_object..LazyTypeObjectInner..ensure_init..InitializationGuard$u20$as$u20$core..ops..drop..Drop$GT$4drop17hc961b63bca875badE', symObjAddr: 0x6B0, symBinAddr: 0x276D0, symSize: 0x98 }
  - { offset: 0xCA87C, size: 0x8, addend: 0x0, symName: '__ZN135_$LT$pyo3..impl_..pyclass..lazy_type_object..LazyTypeObjectInner..ensure_init..InitializationGuard$u20$as$u20$core..ops..drop..Drop$GT$4drop28_$u7b$$u7b$closure$u7d$$u7d$17h572945d08f7ec5d5E', symObjAddr: 0x748, symBinAddr: 0x27768, symSize: 0x38 }
  - { offset: 0xCA8BB, size: 0x8, addend: 0x0, symName: '__ZN4pyo35impl_7pyclass16lazy_type_object19LazyTypeObjectInner11ensure_init28_$u7b$$u7b$closure$u7d$$u7d$17h074cba867fd4f364E', symObjAddr: 0x3788, symBinAddr: 0x2903C, symSize: 0x154 }
  - { offset: 0xCA970, size: 0x8, addend: 0x0, symName: '__ZN4pyo35impl_7pyclass16lazy_type_object19LazyTypeObjectInner15get_or_try_init28_$u7b$$u7b$closure$u7d$$u7d$17h0172c2ba4f57b70eE', symObjAddr: 0x3974, symBinAddr: 0x29228, symSize: 0xFC }
  - { offset: 0xCAA0F, size: 0x8, addend: 0x0, symName: '__ZN4pyo35impl_7pyclass16lazy_type_object19LazyTypeObjectInner15get_or_try_init28_$u7b$$u7b$closure$u7d$$u7d$17h8d504054d29588ebE', symObjAddr: 0x3A70, symBinAddr: 0x29324, symSize: 0x150 }
  - { offset: 0xCAADC, size: 0x8, addend: 0x0, symName: '__ZN4pyo35impl_7pyclass16lazy_type_object19LazyTypeObjectInner15get_or_try_init28_$u7b$$u7b$closure$u7d$$u7d$28_$u7b$$u7b$closure$u7d$$u7d$17h02bac253301734abE', symObjAddr: 0x3BC0, symBinAddr: 0x29474, symSize: 0x2C }
  - { offset: 0xCAB1C, size: 0x8, addend: 0x0, symName: __ZN4pyo35impl_7pyclass16lazy_type_object18initialize_tp_dict17h1289e3280da5ae59E, symObjAddr: 0x2DA0, symBinAddr: 0x28654, symSize: 0x1D8 }
  - { offset: 0xCAC46, size: 0x8, addend: 0x0, symName: __ZN4pyo35impl_7pyclass16lazy_type_object21wrap_in_runtime_error17hd2df9724b164ac40E, symObjAddr: 0x3BEC, symBinAddr: 0x764A8, symSize: 0xF0 }
  - { offset: 0xCAEB3, size: 0x8, addend: 0x0, symName: '__ZN4pyo35impl_16extract_argument19FunctionDescription34missing_required_keyword_arguments28_$u7b$$u7b$closure$u7d$$u7d$17h9b9dcce34d2254d8E', symObjAddr: 0x2680, symBinAddr: 0x282E0, symSize: 0x84 }
  - { offset: 0xCAF23, size: 0x8, addend: 0x0, symName: '__ZN4pyo35impl_16extract_argument19FunctionDescription37missing_required_positional_arguments28_$u7b$$u7b$closure$u7d$$u7d$17h710b25ea1bfe81f0E', symObjAddr: 0x284C, symBinAddr: 0x28364, symSize: 0x78 }
  - { offset: 0xCAF8F, size: 0x8, addend: 0x0, symName: __ZN4pyo35impl_16extract_argument19push_parameter_list17hcb4a41e9fdae2910E, symObjAddr: 0x29D0, symBinAddr: 0x284E8, symSize: 0x16C }
  - { offset: 0xCB01B, size: 0x8, addend: 0x0, symName: __ZN4pyo35impl_16extract_argument25argument_extraction_error17h6774bf1f200a7431E, symObjAddr: 0x2B3C, symBinAddr: 0x76244, symSize: 0x264 }
  - { offset: 0xCBD3B, size: 0x8, addend: 0x0, symName: __ZN8pyo3_ffi10listobject12PyList_Check17h98263093de697ff7E, symObjAddr: 0x51BC, symBinAddr: 0x2A03C, symSize: 0x30 }
  - { offset: 0xCC22D, size: 0x8, addend: 0x0, symName: '__ZN3std3sys4sync5mutex7pthread5Mutex3get28_$u7b$$u7b$closure$u7d$$u7d$17h5f8731e74ae971b2E', symObjAddr: 0x9C0, symBinAddr: 0x277A0, symSize: 0xF4 }
  - { offset: 0xCC41C, size: 0x8, addend: 0x0, symName: '__ZN84_$LT$std..sys..sync..once_box..OnceBox$LT$T$GT$$u20$as$u20$core..ops..drop..Drop$GT$4drop17hed6b022f125fde64E', symObjAddr: 0x50F0, symBinAddr: 0x29F70, symSize: 0x74 }
  - { offset: 0xCC81E, size: 0x8, addend: 0x0, symName: '__ZN3std3sys4sync8once_box16OnceBox$LT$T$GT$10initialize17h69a8869460bb8f2dE', symObjAddr: 0xAB4, symBinAddr: 0x75628, symSize: 0xD8 }
  - { offset: 0xCC9F5, size: 0x8, addend: 0x0, symName: '__ZN3std3sys4sync8once_box16OnceBox$LT$T$GT$11get_or_init17h34fd5e4c8a256c75E', symObjAddr: 0xB8C, symBinAddr: 0x27894, symSize: 0xB4 }
  - { offset: 0xCCC15, size: 0x8, addend: 0x0, symName: '__ZN88_$LT$hashbrown..scopeguard..ScopeGuard$LT$T$C$F$GT$$u20$as$u20$core..ops..drop..Drop$GT$4drop17h0746eb515a08f6eeE', symObjAddr: 0x5164, symBinAddr: 0x29FE4, symSize: 0x2C }
  - { offset: 0xCCC4F, size: 0x8, addend: 0x0, symName: '__ZN88_$LT$hashbrown..scopeguard..ScopeGuard$LT$T$C$F$GT$$u20$as$u20$core..ops..drop..Drop$GT$4drop17hb74f45d6c180de52E', symObjAddr: 0x5190, symBinAddr: 0x2A010, symSize: 0x2C }
  - { offset: 0xCCE2C, size: 0x8, addend: 0x0, symName: __ZN4pyo35impl_16extract_argument19FunctionDescription26missing_required_arguments17h68a8f39a8db67f7dE, symObjAddr: 0x1C84, symBinAddr: 0x75700, symSize: 0x1F8 }
  - { offset: 0xCCF36, size: 0x8, addend: 0x0, symName: __ZN4pyo35impl_16extract_argument19FunctionDescription27unexpected_keyword_argument17h89054b6fdbcd4f5fE, symObjAddr: 0x1E7C, symBinAddr: 0x758F8, symSize: 0x124 }
  - { offset: 0xCCFC4, size: 0x8, addend: 0x0, symName: __ZN4pyo35impl_16extract_argument19FunctionDescription28multiple_values_for_argument17h4ed3645c74556b58E, symObjAddr: 0x1FA0, symBinAddr: 0x75A1C, symSize: 0x110 }
  - { offset: 0xCD04A, size: 0x8, addend: 0x0, symName: __ZN4pyo35impl_16extract_argument19FunctionDescription29too_many_positional_arguments17h17ee5c48c2b80e2dE, symObjAddr: 0x20B0, symBinAddr: 0x75B2C, symSize: 0x304 }
  - { offset: 0xCD15D, size: 0x8, addend: 0x0, symName: __ZN4pyo35impl_16extract_argument19FunctionDescription33positional_only_keyword_arguments17hd56d9c9203d27aadE, symObjAddr: 0x23B4, symBinAddr: 0x75E30, symSize: 0x148 }
  - { offset: 0xCD220, size: 0x8, addend: 0x0, symName: __ZN4pyo35impl_16extract_argument19FunctionDescription34missing_required_keyword_arguments17h602d0ff9fdb0ddaaE, symObjAddr: 0x24FC, symBinAddr: 0x75F78, symSize: 0x184 }
  - { offset: 0xCD2B7, size: 0x8, addend: 0x0, symName: __ZN4pyo35impl_16extract_argument19FunctionDescription37missing_required_positional_arguments17h2900b7fd495c2dbbE, symObjAddr: 0x2704, symBinAddr: 0x760FC, symSize: 0x148 }
  - { offset: 0xCD300, size: 0x8, addend: 0x0, symName: __ZN4pyo35impl_16extract_argument19FunctionDescription9full_name17he98998844ca2b54bE, symObjAddr: 0x28C4, symBinAddr: 0x283DC, symSize: 0x10C }
  - { offset: 0xCD54A, size: 0x8, addend: 0x0, symName: __ZN4pyo35impl_7pyclass16lazy_type_object19LazyTypeObjectInner11ensure_init17h8550d2b791f83cb2E, symObjAddr: 0x2F78, symBinAddr: 0x2882C, symSize: 0x810 }
  - { offset: 0xCD83A, size: 0x8, addend: 0x0, symName: __ZN4pyo35impl_7pyclass16lazy_type_object19LazyTypeObjectInner15get_or_try_init17h105b1fe4cbe0437fE, symObjAddr: 0x38DC, symBinAddr: 0x29190, symSize: 0x98 }
  - { offset: 0xCD8FF, size: 0x8, addend: 0x0, symName: '__ZN5alloc7raw_vec19RawVec$LT$T$C$A$GT$8grow_one17h286c7c60924807f9E', symObjAddr: 0x4414, symBinAddr: 0x294C4, symSize: 0x88 }
  - { offset: 0xCD9AF, size: 0x8, addend: 0x0, symName: '__ZN5alloc7raw_vec19RawVec$LT$T$C$A$GT$8grow_one17h29d34bb8a703712eE', symObjAddr: 0x449C, symBinAddr: 0x2954C, symSize: 0x88 }
  - { offset: 0xCDA5F, size: 0x8, addend: 0x0, symName: '__ZN5alloc7raw_vec19RawVec$LT$T$C$A$GT$8grow_one17h463d4315743763dfE', symObjAddr: 0x4524, symBinAddr: 0x295D4, symSize: 0x84 }
  - { offset: 0xCDB0F, size: 0x8, addend: 0x0, symName: '__ZN5alloc7raw_vec19RawVec$LT$T$C$A$GT$8grow_one17h7af3decf73c69720E', symObjAddr: 0x45A8, symBinAddr: 0x29658, symSize: 0x88 }
  - { offset: 0xCDBDD, size: 0x8, addend: 0x0, symName: '__ZN5alloc7raw_vec19RawVec$LT$T$C$A$GT$8grow_one17h884275f8aba72d23E', symObjAddr: 0x4630, symBinAddr: 0x296E0, symSize: 0x88 }
  - { offset: 0xCDC8D, size: 0x8, addend: 0x0, symName: '__ZN5alloc7raw_vec19RawVec$LT$T$C$A$GT$8grow_one17ha781402b022ef16bE', symObjAddr: 0x46B8, symBinAddr: 0x29768, symSize: 0x88 }
  - { offset: 0xCDD3D, size: 0x8, addend: 0x0, symName: '__ZN5alloc7raw_vec19RawVec$LT$T$C$A$GT$8grow_one17hc264b5bdb34f43ddE', symObjAddr: 0x4740, symBinAddr: 0x297F0, symSize: 0x84 }
  - { offset: 0xCDDED, size: 0x8, addend: 0x0, symName: '__ZN5alloc7raw_vec19RawVec$LT$T$C$A$GT$8grow_one17hfb76eff5602b0a31E', symObjAddr: 0x47C4, symBinAddr: 0x29874, symSize: 0x88 }
  - { offset: 0xCDEF6, size: 0x8, addend: 0x0, symName: '__ZN5alloc7raw_vec20RawVecInner$LT$A$GT$14current_memory17hb441130930fa2774E', symObjAddr: 0x48BC, symBinAddr: 0x298FC, symSize: 0x10C }
  - { offset: 0xCE142, size: 0x8, addend: 0x0, symName: '__ZN5alloc7raw_vec20RawVecInner$LT$A$GT$16shrink_unchecked17heeeb41e6de49d262E', symObjAddr: 0x4AD4, symBinAddr: 0x29A08, symSize: 0x28C }
  - { offset: 0xCE46F, size: 0x8, addend: 0x0, symName: '__ZN5alloc7raw_vec20RawVecInner$LT$A$GT$6shrink17h23d2075e41125346E', symObjAddr: 0x4D60, symBinAddr: 0x29C94, symSize: 0xB8 }
  - { offset: 0xCE521, size: 0x8, addend: 0x0, symName: '__ZN78_$LT$once_cell..sync..Lazy$LT$T$C$F$GT$$u20$as$u20$core..ops..deref..Deref$GT$5deref17h4a716bb262b13e75E', symObjAddr: 0x509C, symBinAddr: 0x29F4C, symSize: 0x24 }
  - { offset: 0xCE6AE, size: 0x8, addend: 0x0, symName: '__ZN9once_cell4sync17Lazy$LT$T$C$F$GT$5force28_$u7b$$u7b$closure$u7d$$u7d$17h4cf953df9452fe46E', symObjAddr: 0x5268, symBinAddr: 0x2A0BC, symSize: 0x70 }
  - { offset: 0xCE72D, size: 0x8, addend: 0x0, symName: '__ZN9once_cell4sync17OnceCell$LT$T$GT$11get_or_init28_$u7b$$u7b$closure$u7d$$u7d$17hd64e38723b940a21E', symObjAddr: 0x530C, symBinAddr: 0x2A160, symSize: 0x44 }
  - { offset: 0xCE8C9, size: 0x8, addend: 0x0, symName: '__ZN9once_cell4sync17Lazy$LT$T$C$F$GT$3get17hb6f0051607a29ae1E', symObjAddr: 0x5218, symBinAddr: 0x2A06C, symSize: 0x24 }
  - { offset: 0xCE8FE, size: 0x8, addend: 0x0, symName: '__ZN9once_cell4sync17Lazy$LT$T$C$F$GT$5force17h15252207c230ef3fE', symObjAddr: 0x523C, symBinAddr: 0x2A090, symSize: 0x2C }
  - { offset: 0xCE940, size: 0x8, addend: 0x0, symName: '__ZN9once_cell4sync17OnceCell$LT$T$GT$11get_or_init17h889b178dfe0f5113E', symObjAddr: 0x52D8, symBinAddr: 0x2A12C, symSize: 0x34 }
  - { offset: 0xCE984, size: 0x8, addend: 0x0, symName: '__ZN9once_cell4sync17OnceCell$LT$T$GT$13get_unchecked17h095fc641b3a5a5e1E', symObjAddr: 0x5350, symBinAddr: 0x2A1A4, symSize: 0x24 }
  - { offset: 0xCE9B0, size: 0x8, addend: 0x0, symName: '__ZN9once_cell4sync17OnceCell$LT$T$GT$15get_or_try_init17hfccd87574fb8396aE', symObjAddr: 0x5374, symBinAddr: 0x2A1C8, symSize: 0x128 }
  - { offset: 0xCEA13, size: 0x8, addend: 0x0, symName: '__ZN9once_cell4sync17OnceCell$LT$T$GT$3get17h46d18e9bd18816b6E', symObjAddr: 0x549C, symBinAddr: 0x2A2F0, symSize: 0x4C }
  - { offset: 0xCEEE7, size: 0x8, addend: 0x0, symName: '__ZN104_$LT$core..ops..index_range..IndexRange$u20$as$u20$core..slice..index..SliceIndex$LT$$u5b$T$u5d$$GT$$GT$17get_unchecked_mut18precondition_check17h0054b572378fd07eE', symObjAddr: 0x0, symBinAddr: 0x2A33C, symSize: 0x60 }
  - { offset: 0xCF6C9, size: 0x8, addend: 0x0, symName: '__ZN4core3cmp5impls54_$LT$impl$u20$core..cmp..PartialEq$u20$for$u20$i32$GT$2ne17h7ed75f7f624833f5E', symObjAddr: 0x14B8, symBinAddr: 0x2A8FC, symSize: 0x2C }
  - { offset: 0xCF70C, size: 0x8, addend: 0x0, symName: '__ZN4core3cmp5impls54_$LT$impl$u20$core..cmp..PartialEq$u20$for$u20$i64$GT$2ne17h032cdc167aab25f1E', symObjAddr: 0x1510, symBinAddr: 0x2A928, symSize: 0x2C }
  - { offset: 0xCF74F, size: 0x8, addend: 0x0, symName: '__ZN4core3cmp5impls54_$LT$impl$u20$core..cmp..PartialEq$u20$for$u20$u64$GT$2eq17h760dfaa24e4745abE', symObjAddr: 0x153C, symBinAddr: 0x2A954, symSize: 0x2C }
  - { offset: 0xCF792, size: 0x8, addend: 0x0, symName: '__ZN4core3cmp5impls69_$LT$impl$u20$core..cmp..PartialEq$LT$$RF$B$GT$$u20$for$u20$$RF$A$GT$2eq17h02e02f4b6f9e9f93E', symObjAddr: 0x15FC, symBinAddr: 0x2A980, symSize: 0x44 }
  - { offset: 0xCFE6E, size: 0x8, addend: 0x0, symName: '__ZN104_$LT$core..ops..index_range..IndexRange$u20$as$u20$core..slice..index..SliceIndex$LT$$u5b$T$u5d$$GT$$GT$17get_unchecked_mut18precondition_check17h0054b572378fd07eE', symObjAddr: 0x0, symBinAddr: 0x2A33C, symSize: 0x60 }
  - { offset: 0xCFECD, size: 0x8, addend: 0x0, symName: '__ZN75_$LT$usize$u20$as$u20$core..slice..index..SliceIndex$LT$$u5b$T$u5d$$GT$$GT$13get_unchecked18precondition_check17hf04ba1acc9e028a4E', symObjAddr: 0x3C5C, symBinAddr: 0x2AF18, symSize: 0x60 }
  - { offset: 0xCFF26, size: 0x8, addend: 0x0, symName: '__ZN75_$LT$usize$u20$as$u20$core..slice..index..SliceIndex$LT$$u5b$T$u5d$$GT$$GT$17get_unchecked_mut18precondition_check17he969396be7994953E', symObjAddr: 0x3CBC, symBinAddr: 0x2AF78, symSize: 0x60 }
  - { offset: 0xCFFB6, size: 0x8, addend: 0x0, symName: __ZN4core5slice6memchr6memchr17h586825c919309809E, symObjAddr: 0x1ABC, symBinAddr: 0x2ABB4, symSize: 0x114 }
  - { offset: 0xD13FC, size: 0x8, addend: 0x0, symName: __ZN4core10intrinsics11rotate_left17h5d4c5e421cf9512cE, symObjAddr: 0x13B0, symBinAddr: 0x2A8A8, symSize: 0x54 }
  - { offset: 0xD1770, size: 0x8, addend: 0x0, symName: __ZN4core5alloc6layout6Layout25from_size_align_unchecked18precondition_check17hd3b15d446f38dec9E, symObjAddr: 0x1904, symBinAddr: 0x2AAF8, symSize: 0xBC }
  - { offset: 0xD18D9, size: 0x8, addend: 0x0, symName: __ZN4core9core_arch7aarch644neon9generated7vld1_u817hc214b8f22d31b21bE, symObjAddr: 0x1BD0, symBinAddr: 0x2ACC8, symSize: 0x34 }
  - { offset: 0xD1907, size: 0x8, addend: 0x0, symName: __ZN4core9core_arch7aarch644neon9generated7vst1_u817h24464f8d69bf2210E, symObjAddr: 0x1C04, symBinAddr: 0x2ACFC, symSize: 0x40 }
  - { offset: 0xD1941, size: 0x8, addend: 0x0, symName: __ZN4core9core_arch7aarch644neon9generated8vcgez_s817h59b323f68500fc3dE, symObjAddr: 0x1C44, symBinAddr: 0x2AD3C, symSize: 0x68 }
  - { offset: 0xD19E3, size: 0x8, addend: 0x0, symName: __ZN4core9core_arch7aarch644neon9generated8vcltz_s817h07239ca0c42f661eE, symObjAddr: 0x1CAC, symBinAddr: 0x2ADA4, symSize: 0x68 }
  - { offset: 0xD1B68, size: 0x8, addend: 0x0, symName: '__ZN57_$LT$T$u20$as$u20$pyo3..conversion..FromPyObjectBound$GT$20from_py_object_bound17h02b9118ff636d493E', symObjAddr: 0x236C, symBinAddr: 0x2AE30, symSize: 0x34 }
  - { offset: 0xD1B9F, size: 0x8, addend: 0x0, symName: '__ZN57_$LT$T$u20$as$u20$pyo3..conversion..FromPyObjectBound$GT$20from_py_object_bound17h84787d6e2f61937aE', symObjAddr: 0x24D8, symBinAddr: 0x2AE64, symSize: 0x34 }
  - { offset: 0xD1E70, size: 0x8, addend: 0x0, symName: '__ZN74_$LT$pyo3..types..num..PyLong$u20$as$u20$pyo3..type_object..PyTypeInfo$GT$16is_type_of_bound17h225a7155d5c73913E', symObjAddr: 0x3C2C, symBinAddr: 0x2AEE8, symSize: 0x30 }
  - { offset: 0xD213D, size: 0x8, addend: 0x0, symName: '__ZN52_$LT$T$u20$as$u20$pyo3..type_object..PyTypeCheck$GT$10type_check17hf05bed48ba276f41E', symObjAddr: 0x2348, symBinAddr: 0x2AE0C, symSize: 0x24 }
  - { offset: 0xD24C1, size: 0x8, addend: 0x0, symName: __ZN3std5panic12catch_unwind17h18714f00c5d40c06E, symObjAddr: 0x544, symBinAddr: 0x2A39C, symSize: 0xD0 }
  - { offset: 0xD25E6, size: 0x8, addend: 0x0, symName: __ZN3std5panic12catch_unwind17h2fec3021dfdfabf5E, symObjAddr: 0x614, symBinAddr: 0x2A46C, symSize: 0xC0 }
  - { offset: 0xD270B, size: 0x8, addend: 0x0, symName: __ZN3std5panic12catch_unwind17h461ea4a2f4a28c03E, symObjAddr: 0x6D4, symBinAddr: 0x2A52C, symSize: 0xE4 }
  - { offset: 0xD2864, size: 0x8, addend: 0x0, symName: __ZN3std5panic12catch_unwind17h965202ba45cde709E, symObjAddr: 0x7B8, symBinAddr: 0x2A610, symSize: 0xE4 }
  - { offset: 0xD29BD, size: 0x8, addend: 0x0, symName: __ZN3std5panic12catch_unwind17h9a4ee357f2f7d4eaE, symObjAddr: 0x89C, symBinAddr: 0x2A6F4, symSize: 0xE4 }
  - { offset: 0xD2B16, size: 0x8, addend: 0x0, symName: __ZN3std5panic12catch_unwind17h9ffe91c06196baaaE, symObjAddr: 0x980, symBinAddr: 0x2A7D8, symSize: 0xD0 }
  - { offset: 0xD3815, size: 0x8, addend: 0x0, symName: '__ZN5alloc3str56_$LT$impl$u20$alloc..borrow..ToOwned$u20$for$u20$str$GT$8to_owned17hab7f33d95107f33bE', symObjAddr: 0x3740, symBinAddr: 0x2AE98, symSize: 0x50 }
  - { offset: 0xD39BD, size: 0x8, addend: 0x0, symName: __ZN4core3fmt2rt8Argument11new_display17h01e1db4228bcad9fE, symObjAddr: 0x1720, symBinAddr: 0x2A9C4, symSize: 0x2C }
  - { offset: 0xD39F5, size: 0x8, addend: 0x0, symName: __ZN4core3fmt2rt8Argument11new_display17h0b1126b3cea3f9cbE, symObjAddr: 0x174C, symBinAddr: 0x2A9F0, symSize: 0x2C }
  - { offset: 0xD3A47, size: 0x8, addend: 0x0, symName: __ZN4core3fmt2rt8Argument11new_display17h27e99db863921282E, symObjAddr: 0x17A4, symBinAddr: 0x2AA1C, symSize: 0x2C }
  - { offset: 0xD3A8C, size: 0x8, addend: 0x0, symName: __ZN4core3fmt2rt8Argument11new_display17h4719400b056befa9E, symObjAddr: 0x17D0, symBinAddr: 0x2AA48, symSize: 0x2C }
  - { offset: 0xD3AC4, size: 0x8, addend: 0x0, symName: __ZN4core3fmt2rt8Argument11new_display17h6d9a156e4acfbab3E, symObjAddr: 0x17FC, symBinAddr: 0x2AA74, symSize: 0x2C }
  - { offset: 0xD3B09, size: 0x8, addend: 0x0, symName: __ZN4core3fmt2rt8Argument11new_display17h94ef305350e70084E, symObjAddr: 0x1854, symBinAddr: 0x2AAA0, symSize: 0x2C }
  - { offset: 0xD3B4E, size: 0x8, addend: 0x0, symName: __ZN4core3fmt2rt8Argument11new_display17hf68f2dc0a9210e6cE, symObjAddr: 0x18AC, symBinAddr: 0x2AACC, symSize: 0x2C }
  - { offset: 0xD3E24, size: 0x8, addend: 0x0, symName: '__ZN45_$LT$T$u20$as$u20$alloc..string..ToString$GT$9to_string17h24b5451b52b870d4E', symObjAddr: 0x6F8, symBinAddr: 0x2B55C, symSize: 0x24 }
  - { offset: 0xD3E61, size: 0x8, addend: 0x0, symName: '__ZN49_$LT$T$u20$as$u20$alloc..string..SpecToString$GT$14spec_to_string17h23f3d82b5f547741E', symObjAddr: 0x858, symBinAddr: 0x2B580, symSize: 0xF4 }
  - { offset: 0xD433E, size: 0x8, addend: 0x0, symName: '__ZN4core3ptr7mut_ptr31_$LT$impl$u20$$BP$mut$u20$T$GT$7is_null17h0ccbb1422d8ceeebE', symObjAddr: 0xC14, symBinAddr: 0x2B674, symSize: 0x18 }
  - { offset: 0xD5E1E, size: 0x8, addend: 0x0, symName: '__ZN110_$LT$core..iter..adapters..enumerate..Enumerate$LT$I$GT$$u20$as$u20$core..iter..traits..iterator..Iterator$GT$4next17ha0f670900fe9f647E', symObjAddr: 0xEC, symBinAddr: 0x2B02C, symSize: 0xEC }
  - { offset: 0xD5F04, size: 0x8, addend: 0x0, symName: '__ZN110_$LT$core..iter..adapters..enumerate..Enumerate$LT$I$GT$$u20$as$u20$core..iter..traits..iterator..Iterator$GT$4next17ha5babf362ceb1d89E', symObjAddr: 0x1D8, symBinAddr: 0x2B118, symSize: 0xE0 }
  - { offset: 0xD6050, size: 0x8, addend: 0x0, symName: '__ZN63_$LT$I$u20$as$u20$core..iter..traits..collect..IntoIterator$GT$9into_iter17h18ea3310c030fe2eE', symObjAddr: 0x5424, symBinAddr: 0x2C914, symSize: 0x14 }
  - { offset: 0xD6087, size: 0x8, addend: 0x0, symName: '__ZN63_$LT$I$u20$as$u20$core..iter..traits..collect..IntoIterator$GT$9into_iter17h7d5180c2b0b8eabdE', symObjAddr: 0x5438, symBinAddr: 0x2C928, symSize: 0x18 }
  - { offset: 0xD610D, size: 0x8, addend: 0x0, symName: '__ZN31_$LT$dyn$u20$core..any..Any$GT$12downcast_ref17ha572fbde25f711a1E', symObjAddr: 0x340, symBinAddr: 0x2B1F8, symSize: 0xA4 }
  - { offset: 0xD61FE, size: 0x8, addend: 0x0, symName: '__ZN31_$LT$dyn$u20$core..any..Any$GT$12downcast_ref17hd4322a2dbcac029bE', symObjAddr: 0x3E4, symBinAddr: 0x2B29C, symSize: 0xA4 }
  - { offset: 0xD6369, size: 0x8, addend: 0x0, symName: '__ZN54_$LT$dyn$u20$core..any..Any$u2b$core..marker..Send$GT$12downcast_ref17h941fce3dc04754d4E', symObjAddr: 0x53CC, symBinAddr: 0x2C8BC, symSize: 0x2C }
  - { offset: 0xD63A0, size: 0x8, addend: 0x0, symName: '__ZN54_$LT$dyn$u20$core..any..Any$u2b$core..marker..Send$GT$12downcast_ref17ha9772e0c35121e6cE', symObjAddr: 0x53F8, symBinAddr: 0x2C8E8, symSize: 0x2C }
  - { offset: 0xD71EA, size: 0x8, addend: 0x0, symName: '__ZN4core5slice4iter87_$LT$impl$u20$core..iter..traits..collect..IntoIterator$u20$for$u20$$RF$$u5b$T$u5d$$GT$9into_iter17h062c6e914f7514dcE', symObjAddr: 0xD0C, symBinAddr: 0x2B68C, symSize: 0x50 }
  - { offset: 0xD75F0, size: 0x8, addend: 0x0, symName: __ZN3std4sync6poison10map_result17h6576100e7d0670f0E, symObjAddr: 0x488, symBinAddr: 0x2B340, symSize: 0xC4 }
  - { offset: 0xD7711, size: 0x8, addend: 0x0, symName: '__ZN76_$LT$std..sync..poison..PoisonError$LT$T$GT$$u20$as$u20$core..fmt..Debug$GT$3fmt17h27999693cdf730acE', symObjAddr: 0x5628, symBinAddr: 0x2C97C, symSize: 0x50 }
  - { offset: 0xD7DB6, size: 0x8, addend: 0x0, symName: '__ZN4pyo311conversions3std3num114_$LT$impl$u20$pyo3..conversion..IntoPy$LT$pyo3..instance..Py$LT$pyo3..types..any..PyAny$GT$$GT$$u20$for$u20$u8$GT$7into_py17hb3dc2b5d05ec4efbE', symObjAddr: 0x1488, symBinAddr: 0x2B6DC, symSize: 0x34 }
  - { offset: 0xD7E01, size: 0x8, addend: 0x0, symName: '__ZN4pyo311conversions3std3num115_$LT$impl$u20$pyo3..conversion..IntoPy$LT$pyo3..instance..Py$LT$pyo3..types..any..PyAny$GT$$GT$$u20$for$u20$u16$GT$7into_py17h2895cf81fbbe60b2E', symObjAddr: 0x1550, symBinAddr: 0x2B710, symSize: 0x34 }
  - { offset: 0xD7E4C, size: 0x8, addend: 0x0, symName: '__ZN4pyo311conversions3std3num115_$LT$impl$u20$pyo3..conversion..IntoPy$LT$pyo3..instance..Py$LT$pyo3..types..any..PyAny$GT$$GT$$u20$for$u20$u64$GT$7into_py17h501b6910c3185be9E', symObjAddr: 0x15B8, symBinAddr: 0x2B744, symSize: 0x2C }
  - { offset: 0xD7E97, size: 0x8, addend: 0x0, symName: '__ZN4pyo311conversions3std3num117_$LT$impl$u20$pyo3..conversion..IntoPy$LT$pyo3..instance..Py$LT$pyo3..types..any..PyAny$GT$$GT$$u20$for$u20$usize$GT$7into_py17hf61c031e42f3ad45E', symObjAddr: 0x1610, symBinAddr: 0x2B770, symSize: 0x20 }
  - { offset: 0xD7EDD, size: 0x8, addend: 0x0, symName: __ZN4pyo311conversions3std3num20err_if_invalid_value17h5440341fc10ebb80E, symObjAddr: 0x17F0, symBinAddr: 0x2B790, symSize: 0xC8 }
  - { offset: 0xD7F61, size: 0x8, addend: 0x0, symName: '__ZN4pyo311conversions3std3num64_$LT$impl$u20$pyo3..conversion..FromPyObject$u20$for$u20$u64$GT$13extract_bound17h39556ee9b85a5f01E', symObjAddr: 0x21C4, symBinAddr: 0x2B858, symSize: 0x1D8 }
  - { offset: 0xD7FFB, size: 0x8, addend: 0x0, symName: '__ZN4pyo311conversions3std3num66_$LT$impl$u20$pyo3..conversion..FromPyObject$u20$for$u20$usize$GT$13extract_bound17h0f5d75db3339576bE', symObjAddr: 0x24E8, symBinAddr: 0x2BA30, symSize: 0x9C }
  - { offset: 0xD8067, size: 0x8, addend: 0x0, symName: '__ZN4pyo311conversions3std3num66_$LT$impl$u20$pyo3..conversion..FromPyObject$u20$for$u20$usize$GT$13extract_bound28_$u7b$$u7b$closure$u7d$$u7d$17h79bfbe6b9a5c41d7E', symObjAddr: 0x2584, symBinAddr: 0x2BACC, symSize: 0x38 }
  - { offset: 0xD81CE, size: 0x8, addend: 0x0, symName: '__ZN4pyo34sync8Interned3get28_$u7b$$u7b$closure$u7d$$u7d$17ha262a11c9279eadfE', symObjAddr: 0x5108, symBinAddr: 0x2C888, symSize: 0x34 }
  - { offset: 0xD839F, size: 0x8, addend: 0x0, symName: '__ZN4pyo34sync20GILOnceCell$LT$T$GT$11get_or_init28_$u7b$$u7b$closure$u7d$$u7d$17h6914ba84a6db61a6E', symObjAddr: 0x34E0, symBinAddr: 0x2BCC4, symSize: 0x24 }
  - { offset: 0xD83DE, size: 0x8, addend: 0x0, symName: '__ZN4pyo34sync20GILOnceCell$LT$T$GT$11get_or_init28_$u7b$$u7b$closure$u7d$$u7d$17h8f346731b095a7f9E', symObjAddr: 0x3504, symBinAddr: 0x2BCE8, symSize: 0x34 }
  - { offset: 0xD89D7, size: 0x8, addend: 0x0, symName: '__ZN66_$LT$pyo3..pycell..PyBorrowError$u20$as$u20$core..fmt..Display$GT$3fmt17h4dbbb30e7b1d6eb9E', symObjAddr: 0x5524, symBinAddr: 0x2C940, symSize: 0x3C }
  - { offset: 0xD8A35, size: 0x8, addend: 0x0, symName: '__ZN87_$LT$$BP$mut$u20$pyo3_ffi..object..PyObject$u20$as$u20$pyo3..ffi_ptr_ext..FfiPtrExt$GT$12assume_owned17h0859eb847109eab8E', symObjAddr: 0x56A8, symBinAddr: 0x2C9CC, symSize: 0x24 }
  - { offset: 0xD8A7A, size: 0x8, addend: 0x0, symName: '__ZN87_$LT$$BP$mut$u20$pyo3_ffi..object..PyObject$u20$as$u20$pyo3..ffi_ptr_ext..FfiPtrExt$GT$15assume_borrowed17hf8ca1ea8701bd75dE', symObjAddr: 0x56CC, symBinAddr: 0x2C9F0, symSize: 0x24 }
  - { offset: 0xD8ABF, size: 0x8, addend: 0x0, symName: '__ZN87_$LT$$BP$mut$u20$pyo3_ffi..object..PyObject$u20$as$u20$pyo3..ffi_ptr_ext..FfiPtrExt$GT$19assume_owned_or_err17hb466c6a75091d2b2E', symObjAddr: 0x56F0, symBinAddr: 0x2CA14, symSize: 0x24 }
  - { offset: 0xD8B04, size: 0x8, addend: 0x0, symName: '__ZN87_$LT$$BP$mut$u20$pyo3_ffi..object..PyObject$u20$as$u20$pyo3..ffi_ptr_ext..FfiPtrExt$GT$19assume_owned_or_opt17hf6a170c9e2f57ef3E', symObjAddr: 0x5714, symBinAddr: 0x2CA38, symSize: 0x24 }
  - { offset: 0xD8B49, size: 0x8, addend: 0x0, symName: '__ZN87_$LT$$BP$mut$u20$pyo3_ffi..object..PyObject$u20$as$u20$pyo3..ffi_ptr_ext..FfiPtrExt$GT$25assume_borrowed_unchecked17hc95ad39bc3310374E', symObjAddr: 0x575C, symBinAddr: 0x2CA5C, symSize: 0x24 }
  - { offset: 0xD8C89, size: 0x8, addend: 0x0, symName: __ZN8pyo3_ffi6object12PyType_Check17h287b28b453ffe5efE, symObjAddr: 0x57D4, symBinAddr: 0x2CAA8, symSize: 0x30 }
  - { offset: 0xD8CB7, size: 0x8, addend: 0x0, symName: __ZN8pyo3_ffi6object17PyType_HasFeature17hc95667197cf057beE, symObjAddr: 0x5804, symBinAddr: 0x2CAD8, symSize: 0x88 }
  - { offset: 0xD8CF4, size: 0x8, addend: 0x0, symName: __ZN8pyo3_ffi6object19PyType_FastSubclass17h94438d5b2a8b63d6E, symObjAddr: 0x590C, symBinAddr: 0x2CB60, symSize: 0x28 }
  - { offset: 0xD8D31, size: 0x8, addend: 0x0, symName: __ZN8pyo3_ffi6object7Py_None17h5dc4c39c6a574f67E, symObjAddr: 0x5934, symBinAddr: 0x2CB88, symSize: 0xC }
  - { offset: 0xD8D4F, size: 0x8, addend: 0x0, symName: __ZN8pyo3_ffi6object7Py_SIZE17hf01ceaeb4d173333E, symObjAddr: 0x5940, symBinAddr: 0x2CB94, symSize: 0x1D4 }
  - { offset: 0xD8DFD, size: 0x8, addend: 0x0, symName: __ZN8pyo3_ffi6object7Py_TYPE17hdeee6de5ee335103E, symObjAddr: 0x5B14, symBinAddr: 0x2CD68, symSize: 0x74 }
  - { offset: 0xD9616, size: 0x8, addend: 0x0, symName: __ZN8pyo3_ffi10modsupport15PyModule_Create17h178d63b9efe47622E, symObjAddr: 0x5780, symBinAddr: 0x2CA80, symSize: 0x28 }
  - { offset: 0xD9BD4, size: 0x8, addend: 0x0, symName: __ZN3std4sync6poison4Flag4done17h8913603e67db262eE, symObjAddr: 0x54C, symBinAddr: 0x2B404, symSize: 0x8C }
  - { offset: 0xD9CC2, size: 0x8, addend: 0x0, symName: __ZN3std4sync6poison4Flag5guard17hdcaa21379c042cdaE, symObjAddr: 0x5D8, symBinAddr: 0x2B490, symSize: 0xCC }
  - { offset: 0xD9FF4, size: 0x8, addend: 0x0, symName: '__ZN4pyo34sync20GILOnceCell$LT$T$GT$11get_or_init17h8f1273a25d33b261E', symObjAddr: 0x3320, symBinAddr: 0x2BB04, symSize: 0xE8 }
  - { offset: 0xDA0DF, size: 0x8, addend: 0x0, symName: '__ZN4pyo34sync20GILOnceCell$LT$T$GT$11get_or_init17ha9e224fa721ef2e0E', symObjAddr: 0x3408, symBinAddr: 0x2BBEC, symSize: 0xD8 }
  - { offset: 0xDA1F8, size: 0x8, addend: 0x0, symName: '__ZN4pyo34sync20GILOnceCell$LT$T$GT$15get_or_try_init17h887f4fc1ba68242fE', symObjAddr: 0x3608, symBinAddr: 0x2BD1C, symSize: 0xCC }
  - { offset: 0xDA2DD, size: 0x8, addend: 0x0, symName: '__ZN4pyo34sync20GILOnceCell$LT$T$GT$15get_or_try_init17hd5009d976afe3282E', symObjAddr: 0x36D4, symBinAddr: 0x2BDE8, symSize: 0xCC }
  - { offset: 0xDA3EA, size: 0x8, addend: 0x0, symName: '__ZN4pyo34sync20GILOnceCell$LT$T$GT$15get_or_try_init17hda4de9ad2f885b0dE', symObjAddr: 0x3860, symBinAddr: 0x2BEB4, symSize: 0xE8 }
  - { offset: 0xDA464, size: 0x8, addend: 0x0, symName: '__ZN4pyo34sync20GILOnceCell$LT$T$GT$3get17h17ce3c3ba5139a10E', symObjAddr: 0x3948, symBinAddr: 0x2BF9C, symSize: 0x70 }
  - { offset: 0xDA4A8, size: 0x8, addend: 0x0, symName: '__ZN4pyo34sync20GILOnceCell$LT$T$GT$3get17h24a12dca14bd1156E', symObjAddr: 0x39B8, symBinAddr: 0x2C00C, symSize: 0x70 }
  - { offset: 0xDA4EC, size: 0x8, addend: 0x0, symName: '__ZN4pyo34sync20GILOnceCell$LT$T$GT$3get17h4add25cba78bc542E', symObjAddr: 0x3A28, symBinAddr: 0x2C07C, symSize: 0x70 }
  - { offset: 0xDA530, size: 0x8, addend: 0x0, symName: '__ZN4pyo34sync20GILOnceCell$LT$T$GT$3get17h96b9a30b23aa3857E', symObjAddr: 0x3A98, symBinAddr: 0x2C0EC, symSize: 0x70 }
  - { offset: 0xDA574, size: 0x8, addend: 0x0, symName: '__ZN4pyo34sync20GILOnceCell$LT$T$GT$3get17hf21a23e349bdba55E', symObjAddr: 0x3B08, symBinAddr: 0x2C15C, symSize: 0x74 }
  - { offset: 0xDA5EE, size: 0x8, addend: 0x0, symName: '__ZN4pyo34sync20GILOnceCell$LT$T$GT$3set17h0b4eb072bf9d60fcE', symObjAddr: 0x3C28, symBinAddr: 0x2C1D0, symSize: 0x140 }
  - { offset: 0xDA6A8, size: 0x8, addend: 0x0, symName: '__ZN4pyo34sync20GILOnceCell$LT$T$GT$3set17h11afbf8aeb11d4ebE', symObjAddr: 0x3D68, symBinAddr: 0x2C310, symSize: 0x140 }
  - { offset: 0xDA762, size: 0x8, addend: 0x0, symName: '__ZN4pyo34sync20GILOnceCell$LT$T$GT$3set17h29f74f8cba71b996E', symObjAddr: 0x3FE8, symBinAddr: 0x2C450, symSize: 0x108 }
  - { offset: 0xDA81C, size: 0x8, addend: 0x0, symName: '__ZN4pyo34sync20GILOnceCell$LT$T$GT$3set17h3a9e7e8c2611c71eE', symObjAddr: 0x40F0, symBinAddr: 0x2C558, symSize: 0x194 }
  - { offset: 0xDA8D7, size: 0x8, addend: 0x0, symName: '__ZN4pyo34sync20GILOnceCell$LT$T$GT$3set17hacc4ab73c1ff1177E', symObjAddr: 0x4284, symBinAddr: 0x2C6EC, symSize: 0x140 }
  - { offset: 0xDA9B1, size: 0x8, addend: 0x0, symName: '__ZN4pyo34sync20GILOnceCell$LT$T$GT$4init17h03bb48361bbe2423E', symObjAddr: 0x455C, symBinAddr: 0x76598, symSize: 0x18C }
  - { offset: 0xDAAB2, size: 0x8, addend: 0x0, symName: '__ZN4pyo34sync20GILOnceCell$LT$T$GT$4init17h399bba4d26727975E', symObjAddr: 0x4868, symBinAddr: 0x76724, symSize: 0x120 }
  - { offset: 0xDAB69, size: 0x8, addend: 0x0, symName: '__ZN4pyo34sync20GILOnceCell$LT$T$GT$4init17h7e69c2dd0e5832c5E', symObjAddr: 0x4988, symBinAddr: 0x76844, symSize: 0x11C }
  - { offset: 0xDAC48, size: 0x8, addend: 0x0, symName: '__ZN4pyo34sync20GILOnceCell$LT$T$GT$4init17h88ec8e086cdbcfe8E', symObjAddr: 0x4AA4, symBinAddr: 0x76960, symSize: 0x1B8 }
  - { offset: 0xDAD49, size: 0x8, addend: 0x0, symName: '__ZN4pyo34sync20GILOnceCell$LT$T$GT$4init17h8bb374fda67d7dd2E', symObjAddr: 0x4C5C, symBinAddr: 0x76B18, symSize: 0x158 }
  - { offset: 0xDAE2D, size: 0x8, addend: 0x0, symName: '__ZN4pyo34sync21GILProtected$LT$T$GT$3get17h31e742f807cecdccE', symObjAddr: 0x4DB4, symBinAddr: 0x2C82C, symSize: 0x14 }
  - { offset: 0xDAE8B, size: 0x8, addend: 0x0, symName: __ZN4pyo34sync8Interned3get17h3a9828c27d4f3362E, symObjAddr: 0x50C0, symBinAddr: 0x2C840, symSize: 0x48 }
  - { offset: 0xDAEEB, size: 0x8, addend: 0x0, symName: '__ZN9hashbrown11rustc_entry62_$LT$impl$u20$hashbrown..map..HashMap$LT$K$C$V$C$S$C$A$GT$$GT$11rustc_entry28_$u7b$$u7b$closure$u7d$$u7d$17h50fa22a6afc1ecf7E', symObjAddr: 0x6098, symBinAddr: 0x2CDDC, symSize: 0x38 }
  - { offset: 0xDC594, size: 0x8, addend: 0x0, symName: '__ZN102_$LT$core..iter..adapters..zip..Zip$LT$A$C$B$GT$$u20$as$u20$core..iter..traits..iterator..Iterator$GT$4next17h085b6a50db534e61E', symObjAddr: 0xAC, symBinAddr: 0x2CE14, symSize: 0x24 }
  - { offset: 0xDC5D2, size: 0x8, addend: 0x0, symName: '__ZN102_$LT$core..iter..adapters..zip..Zip$LT$A$C$B$GT$$u20$as$u20$core..iter..traits..iterator..Iterator$GT$4next17ha95380b4ee2afd72E', symObjAddr: 0xD0, symBinAddr: 0x2CE38, symSize: 0x24 }
  - { offset: 0xDC610, size: 0x8, addend: 0x0, symName: '__ZN102_$LT$core..iter..adapters..zip..Zip$LT$A$C$B$GT$$u20$as$u20$core..iter..traits..iterator..Iterator$GT$9size_hint17h1e8f01632ea87a3eE', symObjAddr: 0x118, symBinAddr: 0x2CE5C, symSize: 0x24 }
  - { offset: 0xDC64E, size: 0x8, addend: 0x0, symName: '__ZN102_$LT$core..iter..adapters..zip..Zip$LT$A$C$B$GT$$u20$as$u20$core..iter..traits..iterator..Iterator$GT$9size_hint17h763e9ea15707b42eE', symObjAddr: 0x13C, symBinAddr: 0x2CE80, symSize: 0x24 }
  - { offset: 0xDC692, size: 0x8, addend: 0x0, symName: '__ZN111_$LT$core..iter..adapters..zip..Zip$LT$A$C$B$GT$$u20$as$u20$core..iter..adapters..zip..ZipImpl$LT$A$C$B$GT$$GT$3new17h4141342e75cc8cc2E', symObjAddr: 0x248, symBinAddr: 0x2CEA4, symSize: 0xBC }
  - { offset: 0xDC725, size: 0x8, addend: 0x0, symName: '__ZN111_$LT$core..iter..adapters..zip..Zip$LT$A$C$B$GT$$u20$as$u20$core..iter..adapters..zip..ZipImpl$LT$A$C$B$GT$$GT$4next17h5f2151dc34531efdE', symObjAddr: 0x4DC, symBinAddr: 0x2CF9C, symSize: 0xB0 }
  - { offset: 0xDC77B, size: 0x8, addend: 0x0, symName: '__ZN111_$LT$core..iter..adapters..zip..Zip$LT$A$C$B$GT$$u20$as$u20$core..iter..adapters..zip..ZipImpl$LT$A$C$B$GT$$GT$9size_hint17h02e065f4eafdbfa2E', symObjAddr: 0x740, symBinAddr: 0x2D12C, symSize: 0x34 }
  - { offset: 0xDC7C1, size: 0x8, addend: 0x0, symName: '__ZN111_$LT$core..iter..adapters..zip..Zip$LT$A$C$B$GT$$u20$as$u20$core..iter..adapters..zip..ZipImpl$LT$A$C$B$GT$$GT$3new17h7c05da8639c8449dE', symObjAddr: 0x4A0, symBinAddr: 0x2CF60, symSize: 0x3C }
  - { offset: 0xDC80D, size: 0x8, addend: 0x0, symName: '__ZN111_$LT$core..iter..adapters..zip..Zip$LT$A$C$B$GT$$u20$as$u20$core..iter..adapters..zip..ZipImpl$LT$A$C$B$GT$$GT$4next17ha3637703e26e3a23E', symObjAddr: 0x58C, symBinAddr: 0x2D04C, symSize: 0xE0 }
  - { offset: 0xDC96E, size: 0x8, addend: 0x0, symName: '__ZN111_$LT$core..iter..adapters..zip..Zip$LT$A$C$B$GT$$u20$as$u20$core..iter..adapters..zip..ZipImpl$LT$A$C$B$GT$$GT$9size_hint17h47423cc47ab024daE', symObjAddr: 0x774, symBinAddr: 0x2D160, symSize: 0x12C }
  - { offset: 0xDCC57, size: 0x8, addend: 0x0, symName: __ZN4core4iter6traits8iterator8Iterator10filter_map17h408c6fea2b466ec5E, symObjAddr: 0x1D00, symBinAddr: 0x2DDBC, symSize: 0x30 }
  - { offset: 0xDCCC5, size: 0x8, addend: 0x0, symName: __ZN4core4iter6traits8iterator8Iterator10filter_map17hf044893ecd710e68E, symObjAddr: 0x1D30, symBinAddr: 0x2DDEC, symSize: 0x30 }
  - { offset: 0xDCD33, size: 0x8, addend: 0x0, symName: __ZN4core4iter6traits8iterator8Iterator8find_map17h73b7dbbab17e5709E, symObjAddr: 0x1E1C, symBinAddr: 0x2DE1C, symSize: 0x8C }
  - { offset: 0xDCDBB, size: 0x8, addend: 0x0, symName: __ZN4core4iter6traits8iterator8Iterator8find_map17hadb3d46c08e76916E, symObjAddr: 0x1EA8, symBinAddr: 0x2DEA8, symSize: 0x8C }
  - { offset: 0xDCE4D, size: 0x8, addend: 0x0, symName: '__ZN4core4iter6traits8iterator8Iterator8find_map5check28_$u7b$$u7b$closure$u7d$$u7d$17h50bf731fc893e6b4E', symObjAddr: 0x1F34, symBinAddr: 0x2DF34, symSize: 0x7C }
  - { offset: 0xDCED0, size: 0x8, addend: 0x0, symName: '__ZN4core4iter6traits8iterator8Iterator8find_map5check28_$u7b$$u7b$closure$u7d$$u7d$17had64e02a296bfdbaE', symObjAddr: 0x1FB0, symBinAddr: 0x2DFB0, symSize: 0x7C }
  - { offset: 0xDCF7B, size: 0x8, addend: 0x0, symName: __ZN4core4iter6traits8iterator8Iterator8try_fold17h3e303a5732e0d89bE, symObjAddr: 0x20A4, symBinAddr: 0x2E02C, symSize: 0x190 }
  - { offset: 0xDD031, size: 0x8, addend: 0x0, symName: __ZN4core4iter6traits8iterator8Iterator8try_fold17h8c7b460b7fdd14aaE, symObjAddr: 0x2234, symBinAddr: 0x2E1BC, symSize: 0x190 }
  - { offset: 0xDD492, size: 0x8, addend: 0x0, symName: __ZN4core3mem4drop17hc363cc4fc550a4f2E, symObjAddr: 0x1178, symBinAddr: 0x2D778, symSize: 0x2C }
  - { offset: 0xDD4F8, size: 0x8, addend: 0x0, symName: __ZN4core3mem4take17h068c7a8f735bc415E, symObjAddr: 0x11A4, symBinAddr: 0x2D7A4, symSize: 0x54 }
  - { offset: 0xDD588, size: 0x8, addend: 0x0, symName: __ZN4core3mem4take17h1a2728b0a9a2f083E, symObjAddr: 0x11F8, symBinAddr: 0x2D7F8, symSize: 0x54 }
  - { offset: 0xDD618, size: 0x8, addend: 0x0, symName: __ZN4core3mem4take17h61c3c985e07f2f07E, symObjAddr: 0x124C, symBinAddr: 0x2D84C, symSize: 0x54 }
  - { offset: 0xDD6A8, size: 0x8, addend: 0x0, symName: __ZN4core3mem4take17h97717981dc8a8a18E, symObjAddr: 0x12A0, symBinAddr: 0x2D8A0, symSize: 0x54 }
  - { offset: 0xDD705, size: 0x8, addend: 0x0, symName: __ZN4core3mem6forget17h2ffd23845bf9819eE, symObjAddr: 0x12F4, symBinAddr: 0x2D8F4, symSize: 0x14 }
  - { offset: 0xDD736, size: 0x8, addend: 0x0, symName: __ZN4core3mem6forget17he0c6037634dec87fE, symObjAddr: 0x131C, symBinAddr: 0x2D908, symSize: 0x14 }
  - { offset: 0xDDD40, size: 0x8, addend: 0x0, symName: '__ZN118_$LT$$u5b$core..mem..maybe_uninit..MaybeUninit$LT$T$GT$$u5d$$u20$as$u20$core..array..iter..iter_inner..PartialDrop$GT$12partial_drop17hfb9d61758345337cE', symObjAddr: 0xBC8, symBinAddr: 0x2D28C, symSize: 0xA0 }
  - { offset: 0xDDE40, size: 0x8, addend: 0x0, symName: '__ZN129_$LT$$u5b$core..mem..maybe_uninit..MaybeUninit$LT$T$GT$$u3b$$u20$N$u5d$$u20$as$u20$core..array..iter..iter_inner..PartialDrop$GT$12partial_drop17h17724de7b77944fbE', symObjAddr: 0xC68, symBinAddr: 0x2D32C, symSize: 0x4C }
  - { offset: 0xDDEAF, size: 0x8, addend: 0x0, symName: '__ZN4core3str6traits54_$LT$impl$u20$core..cmp..PartialEq$u20$for$u20$str$GT$2eq17hf1255f73faf1387eE', symObjAddr: 0x14AC, symBinAddr: 0x2D91C, symSize: 0x4C }
  - { offset: 0xDDFCA, size: 0x8, addend: 0x0, symName: '__ZN4core3fmt8builders11DebugStruct10field_with28_$u7b$$u7b$closure$u7d$$u7d$17h9c2af1b6650b82a8E', symObjAddr: 0xE24, symBinAddr: 0x2D424, symSize: 0x354 }
  - { offset: 0xDE554, size: 0x8, addend: 0x0, symName: __ZN4core4char7methods25encode_utf8_raw_unchecked17hcadbcd6c00a05bfeE, symObjAddr: 0x18AC, symBinAddr: 0x2D968, symSize: 0x188 }
  - { offset: 0xDE7CB, size: 0x8, addend: 0x0, symName: __ZN4core4hash3sip9u8to64_le17h62fe2dfc8fb1a0f1E, symObjAddr: 0x1AC0, symBinAddr: 0x2DB7C, symSize: 0x240 }
  - { offset: 0xDE988, size: 0x8, addend: 0x0, symName: '__ZN69_$LT$core..hash..sip..Sip13Rounds$u20$as$u20$core..hash..sip..Sip$GT$8c_rounds17h309d4d405c41cb96E', symObjAddr: 0x31F8, symBinAddr: 0x2E38C, symSize: 0x1A0 }
  - { offset: 0xDEAFD, size: 0x8, addend: 0x0, symName: '__ZN69_$LT$core..hash..sip..Sip13Rounds$u20$as$u20$core..hash..sip..Sip$GT$8d_rounds17h2c501d131aeb7fecE', symObjAddr: 0x3398, symBinAddr: 0x2E52C, symSize: 0x46C }
  - { offset: 0xDEF3A, size: 0x8, addend: 0x0, symName: '__ZN71_$LT$core..hash..sip..Hasher$LT$S$GT$$u20$as$u20$core..hash..Hasher$GT$5write17hb716cfb4c73ac308E', symObjAddr: 0x3880, symBinAddr: 0x2E998, symSize: 0x230 }
  - { offset: 0xDF0B3, size: 0x8, addend: 0x0, symName: '__ZN71_$LT$core..hash..sip..Hasher$LT$S$GT$$u20$as$u20$core..hash..Hasher$GT$6finish17h03b7bed69985fe14E', symObjAddr: 0x3AB0, symBinAddr: 0x2EBC8, symSize: 0xA0 }
  - { offset: 0xDF2FC, size: 0x8, addend: 0x0, symName: '__ZN71_$LT$pyo3..impl_..panic..PanicTrap$u20$as$u20$core..ops..drop..Drop$GT$4drop17h08bc720b3d2e6fadE', symObjAddr: 0x3B50, symBinAddr: 0x2EC68, symSize: 0x20 }
  - { offset: 0xDFB34, size: 0x8, addend: 0x0, symName: __ZN8pyo3_ffi10longobject12PyLong_Check17h1ec848b4955306faE, symObjAddr: 0x3E94, symBinAddr: 0x2ED7C, symSize: 0x30 }
  - { offset: 0xE04F7, size: 0x8, addend: 0x0, symName: '__ZN87_$LT$T$u20$as$u20$alloc..slice..$LT$impl$u20$$u5b$T$u5d$$GT$..to_vec_in..ConvertVec$GT$6to_vec17h1721159efe74042bE', symObjAddr: 0x3DA0, symBinAddr: 0x2EC88, symSize: 0xF4 }
  - { offset: 0xE0A64, size: 0x8, addend: 0x0, symName: __ZN4core3fmt8builders11DebugStruct10field_with17h12731fe513638d59E, symObjAddr: 0xD78, symBinAddr: 0x2D378, symSize: 0xAC }
  - { offset: 0xE0BD0, size: 0x8, addend: 0x0, symName: '__ZN4core4hash3sip15Hasher$LT$S$GT$5reset17hd2948d095e3eacdfE', symObjAddr: 0x1A34, symBinAddr: 0x2DAF0, symSize: 0x8C }
  - { offset: 0xE0CD2, size: 0x8, addend: 0x0, symName: __ZN4pyo35impl_5panic9PanicTrap3new17h8c0cd4825db27098E, symObjAddr: 0x2840, symBinAddr: 0x2E34C, symSize: 0x18 }
  - { offset: 0xE0CF4, size: 0x8, addend: 0x0, symName: __ZN4pyo35impl_5panic9PanicTrap6disarm17h38b0de9fcc3f20ecE, symObjAddr: 0x2858, symBinAddr: 0x2E364, symSize: 0x28 }
  - { offset: 0xE102F, size: 0x8, addend: 0x0, symName: '__ZN102_$LT$$RF$mut$u20$alloc..vec..Vec$LT$T$C$A$GT$$u20$as$u20$core..iter..traits..collect..IntoIterator$GT$9into_iter17hb29b0424baebbcfbE', symObjAddr: 0x0, symBinAddr: 0x2EDAC, symSize: 0x60 }
  - { offset: 0xE1311, size: 0x8, addend: 0x0, symName: '__ZN102_$LT$pyo3..internal..get_slot..Slot$LT$47_i32$GT$$u20$as$u20$pyo3..internal..get_slot..GetSlotImpl$GT$8get_slot17h962c1d2730b307cfE', symObjAddr: 0x60, symBinAddr: 0x2EE0C, symSize: 0x74 }
  - { offset: 0xE135C, size: 0x8, addend: 0x0, symName: '__ZN102_$LT$pyo3..internal..get_slot..Slot$LT$48_i32$GT$$u20$as$u20$pyo3..internal..get_slot..GetSlotImpl$GT$8get_slot17h349af831d7b15bffE', symObjAddr: 0xD4, symBinAddr: 0x2EE80, symSize: 0x74 }
  - { offset: 0xE13A7, size: 0x8, addend: 0x0, symName: '__ZN102_$LT$pyo3..internal..get_slot..Slot$LT$51_i32$GT$$u20$as$u20$pyo3..internal..get_slot..GetSlotImpl$GT$8get_slot17h080be7c79dfe6726E', symObjAddr: 0x148, symBinAddr: 0x2EEF4, symSize: 0x74 }
  - { offset: 0xE140C, size: 0x8, addend: 0x0, symName: __ZN4pyo315internal_tricks12ptr_from_ref17h06c6498ad5638f52E, symObjAddr: 0x10A0, symBinAddr: 0x2F774, symSize: 0x14 }
  - { offset: 0xE1441, size: 0x8, addend: 0x0, symName: __ZN4pyo315internal_tricks12ptr_from_ref17h23acd3e98698f205E, symObjAddr: 0x10C8, symBinAddr: 0x2F788, symSize: 0x14 }
  - { offset: 0xE1476, size: 0x8, addend: 0x0, symName: __ZN4pyo315internal_tricks12ptr_from_ref17h2dfbea8629407370E, symObjAddr: 0x10DC, symBinAddr: 0x2F79C, symSize: 0x14 }
  - { offset: 0xE14AB, size: 0x8, addend: 0x0, symName: __ZN4pyo315internal_tricks12ptr_from_ref17h3491494b782f560aE, symObjAddr: 0x10F0, symBinAddr: 0x2F7B0, symSize: 0x14 }
  - { offset: 0xE14E0, size: 0x8, addend: 0x0, symName: __ZN4pyo315internal_tricks12ptr_from_ref17h36e7125b841d0a65E, symObjAddr: 0x1118, symBinAddr: 0x2F7C4, symSize: 0x14 }
  - { offset: 0xE1515, size: 0x8, addend: 0x0, symName: __ZN4pyo315internal_tricks12ptr_from_ref17h4290645badd8d06dE, symObjAddr: 0x112C, symBinAddr: 0x2F7D8, symSize: 0x14 }
  - { offset: 0xE154A, size: 0x8, addend: 0x0, symName: __ZN4pyo315internal_tricks12ptr_from_ref17h4345e2debe6dfaebE, symObjAddr: 0x1140, symBinAddr: 0x2F7EC, symSize: 0x14 }
  - { offset: 0xE157F, size: 0x8, addend: 0x0, symName: __ZN4pyo315internal_tricks12ptr_from_ref17h53f5b3d4e816e865E, symObjAddr: 0x1168, symBinAddr: 0x2F800, symSize: 0x14 }
  - { offset: 0xE15B4, size: 0x8, addend: 0x0, symName: __ZN4pyo315internal_tricks12ptr_from_ref17h8bb02293cab69fbaE, symObjAddr: 0x11A4, symBinAddr: 0x2F814, symSize: 0x14 }
  - { offset: 0xE15E9, size: 0x8, addend: 0x0, symName: __ZN4pyo315internal_tricks12ptr_from_ref17h9167e3ba4910919fE, symObjAddr: 0x11B8, symBinAddr: 0x2F828, symSize: 0x14 }
  - { offset: 0xE161E, size: 0x8, addend: 0x0, symName: __ZN4pyo315internal_tricks12ptr_from_ref17h9bed1dd855a38f0fE, symObjAddr: 0x11CC, symBinAddr: 0x2F83C, symSize: 0x14 }
  - { offset: 0xE1653, size: 0x8, addend: 0x0, symName: __ZN4pyo315internal_tricks12ptr_from_ref17hb2695b4f16001dacE, symObjAddr: 0x11F4, symBinAddr: 0x2F850, symSize: 0x14 }
  - { offset: 0xE1688, size: 0x8, addend: 0x0, symName: __ZN4pyo315internal_tricks12ptr_from_ref17hc7ba8c8e6bc46e9cE, symObjAddr: 0x1208, symBinAddr: 0x2F864, symSize: 0x14 }
  - { offset: 0xE3ABD, size: 0x8, addend: 0x0, symName: '__ZN70_$LT$core..num..error..TryFromIntError$u20$as$u20$core..fmt..Debug$GT$3fmt17h8b78b06b6eeccbe2E', symObjAddr: 0x3294, symBinAddr: 0x31630, symSize: 0x54 }
  - { offset: 0xE412C, size: 0x8, addend: 0x0, symName: '__ZN4core7convert3num18ptr_try_from_impls69_$LT$impl$u20$core..convert..TryFrom$LT$u64$GT$$u20$for$u20$usize$GT$8try_from17h767ef88add87eb66E', symObjAddr: 0xDBC, symBinAddr: 0x2F75C, symSize: 0x18 }
  - { offset: 0xE4162, size: 0x8, addend: 0x0, symName: '__ZN50_$LT$T$u20$as$u20$core..convert..Into$LT$U$GT$$GT$4into17h0c22cd2cd5a31a5cE', symObjAddr: 0x13D4, symBinAddr: 0x2F878, symSize: 0x14 }
  - { offset: 0xE579B, size: 0x8, addend: 0x0, symName: '__ZN45_$LT$T$u20$as$u20$alloc..string..ToString$GT$9to_string17h800a565cc7c8fa29E', symObjAddr: 0xB54, symBinAddr: 0x2F644, symSize: 0x24 }
  - { offset: 0xE57D8, size: 0x8, addend: 0x0, symName: '__ZN49_$LT$T$u20$as$u20$alloc..string..SpecToString$GT$14spec_to_string17h2dff9a79db5d626eE', symObjAddr: 0xB9C, symBinAddr: 0x2F668, symSize: 0xF4 }
  - { offset: 0xE58A8, size: 0x8, addend: 0x0, symName: '__ZN5alloc6string104_$LT$impl$u20$core..convert..From$LT$alloc..string..String$GT$$u20$for$u20$alloc..vec..Vec$LT$u8$GT$$GT$4from17h2b56e89495c522d9E', symObjAddr: 0x2F50, symBinAddr: 0x31374, symSize: 0x18 }
  - { offset: 0xE58DC, size: 0x8, addend: 0x0, symName: '__ZN5alloc6string94_$LT$impl$u20$core..convert..From$LT$$RF$str$GT$$u20$for$u20$alloc..borrow..Cow$LT$str$GT$$GT$4from17h0e964461aafa8b9dE', symObjAddr: 0x2F68, symBinAddr: 0x3138C, symSize: 0x2C }
  - { offset: 0xE5B0C, size: 0x8, addend: 0x0, symName: '__ZN102_$LT$$RF$mut$u20$alloc..vec..Vec$LT$T$C$A$GT$$u20$as$u20$core..iter..traits..collect..IntoIterator$GT$9into_iter17hb29b0424baebbcfbE', symObjAddr: 0x0, symBinAddr: 0x2EDAC, symSize: 0x60 }
  - { offset: 0xE5F21, size: 0x8, addend: 0x0, symName: '__ZN107_$LT$alloc..vec..Vec$LT$T$C$A$GT$..retain_mut..PanicGuard$LT$T$C$A$GT$$u20$as$u20$core..ops..drop..Drop$GT$4drop17h2563f4e82148cd2fE', symObjAddr: 0x2C8, symBinAddr: 0x76C70, symSize: 0x180 }
  - { offset: 0xE618D, size: 0x8, addend: 0x0, symName: '__ZN5alloc3vec16Vec$LT$T$C$A$GT$6retain28_$u7b$$u7b$closure$u7d$$u7d$17h2d426af6278d6693E', symObjAddr: 0x24F0, symBinAddr: 0x30934, symSize: 0x30 }
  - { offset: 0xE61EE, size: 0x8, addend: 0x0, symName: '__ZN5alloc3vec16Vec$LT$T$C$A$GT$7set_len18precondition_check17h1de0dc6972731072E', symObjAddr: 0x2670, symBinAddr: 0x30AB4, symSize: 0x60 }
  - { offset: 0xE64AC, size: 0x8, addend: 0x0, symName: '__ZN111_$LT$alloc..vec..Vec$LT$T$GT$$u20$as$u20$alloc..vec..spec_from_iter_nested..SpecFromIterNested$LT$T$C$I$GT$$GT$9from_iter17h54b90e4895f58829E', symObjAddr: 0x448, symBinAddr: 0x2EF68, symSize: 0x244 }
  - { offset: 0xE670A, size: 0x8, addend: 0x0, symName: '__ZN111_$LT$alloc..vec..Vec$LT$T$GT$$u20$as$u20$alloc..vec..spec_from_iter_nested..SpecFromIterNested$LT$T$C$I$GT$$GT$9from_iter17h7e4564ffe3b9b7b4E', symObjAddr: 0x68C, symBinAddr: 0x2F1AC, symSize: 0x24C }
  - { offset: 0xE6969, size: 0x8, addend: 0x0, symName: '__ZN111_$LT$alloc..vec..Vec$LT$T$GT$$u20$as$u20$alloc..vec..spec_from_iter_nested..SpecFromIterNested$LT$T$C$I$GT$$GT$9from_iter17hcc0d654801d61450E', symObjAddr: 0x8D8, symBinAddr: 0x2F3F8, symSize: 0x24C }
  - { offset: 0xE74D4, size: 0x8, addend: 0x0, symName: '__ZN72_$LT$alloc..vec..Vec$LT$T$C$A$GT$$u20$as$u20$core..ops..deref..Deref$GT$5deref17h497ebcbc3865fb7bE', symObjAddr: 0x3360, symBinAddr: 0x316FC, symSize: 0x20 }
  - { offset: 0xE7591, size: 0x8, addend: 0x0, symName: '__ZN72_$LT$alloc..vec..Vec$LT$T$C$A$GT$$u20$as$u20$core..ops..deref..Deref$GT$5deref17h8ecdf46d24078165E', symObjAddr: 0x3380, symBinAddr: 0x3171C, symSize: 0x20 }
  - { offset: 0xE764E, size: 0x8, addend: 0x0, symName: '__ZN72_$LT$alloc..vec..Vec$LT$T$C$A$GT$$u20$as$u20$core..ops..deref..Deref$GT$5deref17haee3c4c235b87305E', symObjAddr: 0x33A0, symBinAddr: 0x3173C, symSize: 0x20 }
  - { offset: 0xE7711, size: 0x8, addend: 0x0, symName: '__ZN67_$LT$alloc..vec..Vec$LT$T$GT$$u20$as$u20$core..default..Default$GT$7default17h70f4fc1e1e0a93a6E', symObjAddr: 0x3018, symBinAddr: 0x3143C, symSize: 0x14 }
  - { offset: 0xE7733, size: 0x8, addend: 0x0, symName: '__ZN67_$LT$alloc..vec..Vec$LT$T$GT$$u20$as$u20$core..default..Default$GT$7default17h70f4fc1e1e0a93a6E', symObjAddr: 0x3018, symBinAddr: 0x3143C, symSize: 0x14 }
  - { offset: 0xE774E, size: 0x8, addend: 0x0, symName: '__ZN67_$LT$alloc..vec..Vec$LT$T$GT$$u20$as$u20$core..default..Default$GT$7default17hadf541a79358d884E', symObjAddr: 0x302C, symBinAddr: 0x31450, symSize: 0x14 }
  - { offset: 0xE7770, size: 0x8, addend: 0x0, symName: '__ZN67_$LT$alloc..vec..Vec$LT$T$GT$$u20$as$u20$core..default..Default$GT$7default17hadf541a79358d884E', symObjAddr: 0x302C, symBinAddr: 0x31450, symSize: 0x14 }
  - { offset: 0xE778B, size: 0x8, addend: 0x0, symName: '__ZN67_$LT$alloc..vec..Vec$LT$T$GT$$u20$as$u20$core..default..Default$GT$7default17hbc2858d3cc9c5900E', symObjAddr: 0x3040, symBinAddr: 0x31464, symSize: 0x14 }
  - { offset: 0xE77AD, size: 0x8, addend: 0x0, symName: '__ZN67_$LT$alloc..vec..Vec$LT$T$GT$$u20$as$u20$core..default..Default$GT$7default17hbc2858d3cc9c5900E', symObjAddr: 0x3040, symBinAddr: 0x31464, symSize: 0x14 }
  - { offset: 0xE77C8, size: 0x8, addend: 0x0, symName: '__ZN67_$LT$alloc..vec..Vec$LT$T$GT$$u20$as$u20$core..default..Default$GT$7default17hf1cedf5d3c73fd52E', symObjAddr: 0x3054, symBinAddr: 0x31478, symSize: 0x14 }
  - { offset: 0xE77EA, size: 0x8, addend: 0x0, symName: '__ZN67_$LT$alloc..vec..Vec$LT$T$GT$$u20$as$u20$core..default..Default$GT$7default17hf1cedf5d3c73fd52E', symObjAddr: 0x3054, symBinAddr: 0x31478, symSize: 0x14 }
  - { offset: 0xE780B, size: 0x8, addend: 0x0, symName: '__ZN70_$LT$alloc..vec..Vec$LT$T$C$A$GT$$u20$as$u20$core..ops..drop..Drop$GT$4drop17h0e1e824453789558E', symObjAddr: 0x30CC, symBinAddr: 0x3148C, symSize: 0x24 }
  - { offset: 0xE78BB, size: 0x8, addend: 0x0, symName: '__ZN70_$LT$alloc..vec..Vec$LT$T$C$A$GT$$u20$as$u20$core..ops..drop..Drop$GT$4drop17h1f6b52889e3fbf48E', symObjAddr: 0x30F0, symBinAddr: 0x314B0, symSize: 0x24 }
  - { offset: 0xE796B, size: 0x8, addend: 0x0, symName: '__ZN70_$LT$alloc..vec..Vec$LT$T$C$A$GT$$u20$as$u20$core..ops..drop..Drop$GT$4drop17h2a01c81dd24fd232E', symObjAddr: 0x3114, symBinAddr: 0x314D4, symSize: 0x24 }
  - { offset: 0xE7A1B, size: 0x8, addend: 0x0, symName: '__ZN70_$LT$alloc..vec..Vec$LT$T$C$A$GT$$u20$as$u20$core..ops..drop..Drop$GT$4drop17h35e004380e636ae6E', symObjAddr: 0x3138, symBinAddr: 0x314F8, symSize: 0x38 }
  - { offset: 0xE7ACB, size: 0x8, addend: 0x0, symName: '__ZN70_$LT$alloc..vec..Vec$LT$T$C$A$GT$$u20$as$u20$core..ops..drop..Drop$GT$4drop17h594bad00efbb55f3E', symObjAddr: 0x3170, symBinAddr: 0x31530, symSize: 0x24 }
  - { offset: 0xE7B7B, size: 0x8, addend: 0x0, symName: '__ZN70_$LT$alloc..vec..Vec$LT$T$C$A$GT$$u20$as$u20$core..ops..drop..Drop$GT$4drop17h7e6ef3ed485ecfd0E', symObjAddr: 0x3194, symBinAddr: 0x31554, symSize: 0x38 }
  - { offset: 0xE7C2B, size: 0x8, addend: 0x0, symName: '__ZN70_$LT$alloc..vec..Vec$LT$T$C$A$GT$$u20$as$u20$core..ops..drop..Drop$GT$4drop17h8758b3bf62f53dcaE', symObjAddr: 0x31CC, symBinAddr: 0x3158C, symSize: 0x24 }
  - { offset: 0xE7CDB, size: 0x8, addend: 0x0, symName: '__ZN70_$LT$alloc..vec..Vec$LT$T$C$A$GT$$u20$as$u20$core..ops..drop..Drop$GT$4drop17h97b5875af43fef6bE', symObjAddr: 0x31F0, symBinAddr: 0x315B0, symSize: 0x38 }
  - { offset: 0xE7D8B, size: 0x8, addend: 0x0, symName: '__ZN70_$LT$alloc..vec..Vec$LT$T$C$A$GT$$u20$as$u20$core..ops..drop..Drop$GT$4drop17hd6efe06818c59030E', symObjAddr: 0x324C, symBinAddr: 0x315E8, symSize: 0x24 }
  - { offset: 0xE7E3B, size: 0x8, addend: 0x0, symName: '__ZN70_$LT$alloc..vec..Vec$LT$T$C$A$GT$$u20$as$u20$core..ops..drop..Drop$GT$4drop17he7b210828462debaE', symObjAddr: 0x3270, symBinAddr: 0x3160C, symSize: 0x24 }
  - { offset: 0xE7EF1, size: 0x8, addend: 0x0, symName: '__ZN90_$LT$alloc..vec..Vec$LT$T$C$A$GT$$u20$as$u20$core..iter..traits..collect..IntoIterator$GT$9into_iter17h00523e173b93836cE', symObjAddr: 0x3438, symBinAddr: 0x3175C, symSize: 0xA8 }
  - { offset: 0xE80E8, size: 0x8, addend: 0x0, symName: '__ZN90_$LT$alloc..vec..Vec$LT$T$C$A$GT$$u20$as$u20$core..iter..traits..collect..IntoIterator$GT$9into_iter17h0a5347635e4bc819E', symObjAddr: 0x34E0, symBinAddr: 0x31804, symSize: 0xB0 }
  - { offset: 0xE82DF, size: 0x8, addend: 0x0, symName: '__ZN90_$LT$alloc..vec..Vec$LT$T$C$A$GT$$u20$as$u20$core..iter..traits..collect..IntoIterator$GT$9into_iter17h11ec01fe845edbf6E', symObjAddr: 0x3590, symBinAddr: 0x318B4, symSize: 0xA8 }
  - { offset: 0xE84DC, size: 0x8, addend: 0x0, symName: '__ZN95_$LT$alloc..vec..Vec$LT$T$GT$$u20$as$u20$core..iter..traits..collect..FromIterator$LT$T$GT$$GT$9from_iter17h298e9b786a8d0d63E', symObjAddr: 0x3638, symBinAddr: 0x3195C, symSize: 0x34 }
  - { offset: 0xE851D, size: 0x8, addend: 0x0, symName: '__ZN95_$LT$alloc..vec..Vec$LT$T$GT$$u20$as$u20$core..iter..traits..collect..FromIterator$LT$T$GT$$GT$9from_iter17h77d378260952b078E', symObjAddr: 0x366C, symBinAddr: 0x31990, symSize: 0x34 }
  - { offset: 0xE855E, size: 0x8, addend: 0x0, symName: '__ZN95_$LT$alloc..vec..Vec$LT$T$GT$$u20$as$u20$core..iter..traits..collect..FromIterator$LT$T$GT$$GT$9from_iter17hd0583bcda35e318bE', symObjAddr: 0x36A0, symBinAddr: 0x319C4, symSize: 0x34 }
  - { offset: 0xE85AA, size: 0x8, addend: 0x0, symName: '__ZN97_$LT$alloc..vec..Vec$LT$T$C$A$GT$$u20$as$u20$alloc..vec..spec_extend..SpecExtend$LT$T$C$I$GT$$GT$11spec_extend17h447a48923c5ef326E', symObjAddr: 0x36D4, symBinAddr: 0x319F8, symSize: 0x24 }
  - { offset: 0xE85FC, size: 0x8, addend: 0x0, symName: '__ZN97_$LT$alloc..vec..Vec$LT$T$C$A$GT$$u20$as$u20$alloc..vec..spec_extend..SpecExtend$LT$T$C$I$GT$$GT$11spec_extend17h4a29ea1d4e4a77c6E', symObjAddr: 0x36F8, symBinAddr: 0x31A1C, symSize: 0x24 }
  - { offset: 0xE864E, size: 0x8, addend: 0x0, symName: '__ZN97_$LT$alloc..vec..Vec$LT$T$C$A$GT$$u20$as$u20$alloc..vec..spec_extend..SpecExtend$LT$T$C$I$GT$$GT$11spec_extend17he2fb2aba4de556b2E', symObjAddr: 0x371C, symBinAddr: 0x31A40, symSize: 0x24 }
  - { offset: 0xE86AC, size: 0x8, addend: 0x0, symName: '__ZN98_$LT$alloc..vec..Vec$LT$T$GT$$u20$as$u20$alloc..vec..spec_from_iter..SpecFromIter$LT$T$C$I$GT$$GT$9from_iter17h180f3bdd0f13b190E', symObjAddr: 0x3740, symBinAddr: 0x31A64, symSize: 0x14 }
  - { offset: 0xE86EB, size: 0x8, addend: 0x0, symName: '__ZN98_$LT$alloc..vec..Vec$LT$T$GT$$u20$as$u20$alloc..vec..spec_from_iter..SpecFromIter$LT$T$C$I$GT$$GT$9from_iter17h4cae9c6d3c10efccE', symObjAddr: 0x3754, symBinAddr: 0x31A78, symSize: 0x14 }
  - { offset: 0xE872A, size: 0x8, addend: 0x0, symName: '__ZN98_$LT$alloc..vec..Vec$LT$T$GT$$u20$as$u20$alloc..vec..spec_from_iter..SpecFromIter$LT$T$C$I$GT$$GT$9from_iter17hbfb3403de59c774bE', symObjAddr: 0x3768, symBinAddr: 0x31A8C, symSize: 0x14 }
  - { offset: 0xE98D1, size: 0x8, addend: 0x0, symName: __ZN5alloc6borrow3Cow8Borrowed17h9f3bed01d2aa2e6bE, symObjAddr: 0x2F24, symBinAddr: 0x31348, symSize: 0x2C }
  - { offset: 0xE9909, size: 0x8, addend: 0x0, symName: '__ZN66_$LT$alloc..borrow..Cow$LT$B$GT$$u20$as$u20$core..fmt..Display$GT$3fmt17hce722837f854bb2dE', symObjAddr: 0x2F94, symBinAddr: 0x313B8, symSize: 0x84 }
  - { offset: 0xE99C1, size: 0x8, addend: 0x0, symName: '__ZN71_$LT$alloc..borrow..Cow$LT$B$GT$$u20$as$u20$core..ops..deref..Deref$GT$5deref17hc794d5ab61b583ceE', symObjAddr: 0x32E8, symBinAddr: 0x31684, symSize: 0x78 }
  - { offset: 0xEA569, size: 0x8, addend: 0x0, symName: '__ZN5alloc3vec12Vec$LT$T$GT$13with_capacity17h99f57eb3d0dd4c19E', symObjAddr: 0x13E8, symBinAddr: 0x2F88C, symSize: 0x44 }
  - { offset: 0xEA5E1, size: 0x8, addend: 0x0, symName: '__ZN5alloc3vec12Vec$LT$T$GT$3new17h18197c1999b6ff9bE', symObjAddr: 0x142C, symBinAddr: 0x2F8D0, symSize: 0x14 }
  - { offset: 0xEA5FE, size: 0x8, addend: 0x0, symName: '__ZN5alloc3vec12Vec$LT$T$GT$3new17h53de7c77f71b45e0E', symObjAddr: 0x1440, symBinAddr: 0x2F8E4, symSize: 0x14 }
  - { offset: 0xEA61B, size: 0x8, addend: 0x0, symName: '__ZN5alloc3vec12Vec$LT$T$GT$3new17h74495184d36f334aE', symObjAddr: 0x1454, symBinAddr: 0x2F8F8, symSize: 0x14 }
  - { offset: 0xEA67D, size: 0x8, addend: 0x0, symName: '__ZN5alloc3vec12Vec$LT$T$GT$3new17h822323e1ee396450E', symObjAddr: 0x1468, symBinAddr: 0x2F90C, symSize: 0x14 }
  - { offset: 0xEA6C8, size: 0x8, addend: 0x0, symName: '__ZN5alloc3vec12Vec$LT$T$GT$3new17hb97066a34c4cd494E', symObjAddr: 0x147C, symBinAddr: 0x2F920, symSize: 0x14 }
  - { offset: 0xEA6E5, size: 0x8, addend: 0x0, symName: '__ZN5alloc3vec12Vec$LT$T$GT$3new17hd024ac3e14e0a308E', symObjAddr: 0x1490, symBinAddr: 0x2F934, symSize: 0x14 }
  - { offset: 0xEA702, size: 0x8, addend: 0x0, symName: '__ZN5alloc3vec12Vec$LT$T$GT$3new17he716be7889eaeac8E', symObjAddr: 0x14A4, symBinAddr: 0x2F948, symSize: 0x14 }
  - { offset: 0xEA76A, size: 0x8, addend: 0x0, symName: '__ZN5alloc3vec16Vec$LT$T$C$A$GT$10as_mut_ptr17h7ab74546d9c19f42E', symObjAddr: 0x14B8, symBinAddr: 0x2F95C, symSize: 0x18 }
  - { offset: 0xEA9D3, size: 0x8, addend: 0x0, symName: '__ZN5alloc3vec16Vec$LT$T$C$A$GT$10retain_mut17hde95d7bbc3854702E', symObjAddr: 0x14D0, symBinAddr: 0x2F974, symSize: 0x31C }
  - { offset: 0xEAFEA, size: 0x8, addend: 0x0, symName: '__ZN5alloc3vec16Vec$LT$T$C$A$GT$16extend_desugared17h0c2ffc506580b297E', symObjAddr: 0x17EC, symBinAddr: 0x2FC90, symSize: 0x1C4 }
  - { offset: 0xEB3C7, size: 0x8, addend: 0x0, symName: '__ZN5alloc3vec16Vec$LT$T$C$A$GT$16extend_desugared17h728ed69fd73a090bE', symObjAddr: 0x19B0, symBinAddr: 0x2FE54, symSize: 0x1C4 }
  - { offset: 0xEB90C, size: 0x8, addend: 0x0, symName: '__ZN5alloc3vec16Vec$LT$T$C$A$GT$16extend_desugared17hd26023b018e0e25bE', symObjAddr: 0x1B74, symBinAddr: 0x30018, symSize: 0x1C8 }
  - { offset: 0xEBF67, size: 0x8, addend: 0x0, symName: '__ZN5alloc3vec16Vec$LT$T$C$A$GT$16into_boxed_slice17h15133583cbb79de0E', symObjAddr: 0x1D3C, symBinAddr: 0x301E0, symSize: 0x1EC }
  - { offset: 0xEC72B, size: 0x8, addend: 0x0, symName: '__ZN5alloc3vec16Vec$LT$T$C$A$GT$16into_boxed_slice17h970f9b659941673eE', symObjAddr: 0x1F28, symBinAddr: 0x303CC, symSize: 0x1EC }
  - { offset: 0xECEEF, size: 0x8, addend: 0x0, symName: '__ZN5alloc3vec16Vec$LT$T$C$A$GT$16into_boxed_slice17hd8c6db91ac956c72E', symObjAddr: 0x2114, symBinAddr: 0x305B8, symSize: 0x1EC }
  - { offset: 0xED2DD, size: 0x8, addend: 0x0, symName: '__ZN5alloc3vec16Vec$LT$T$C$A$GT$4push17h0a0c89383c23b54cE', symObjAddr: 0x2360, symBinAddr: 0x307A4, symSize: 0x24 }
  - { offset: 0xED322, size: 0x8, addend: 0x0, symName: '__ZN5alloc3vec16Vec$LT$T$C$A$GT$4push17h150377f83d199a37E', symObjAddr: 0x2384, symBinAddr: 0x307C8, symSize: 0x28 }
  - { offset: 0xED366, size: 0x8, addend: 0x0, symName: '__ZN5alloc3vec16Vec$LT$T$C$A$GT$4push17h2ac0f6e07768db4cE', symObjAddr: 0x23AC, symBinAddr: 0x307F0, symSize: 0x24 }
  - { offset: 0xED3AB, size: 0x8, addend: 0x0, symName: '__ZN5alloc3vec16Vec$LT$T$C$A$GT$4push17h9a3505531f4a54ffE', symObjAddr: 0x23D0, symBinAddr: 0x30814, symSize: 0x30 }
  - { offset: 0xED3EF, size: 0x8, addend: 0x0, symName: '__ZN5alloc3vec16Vec$LT$T$C$A$GT$4push17hafdb86ae07045f88E', symObjAddr: 0x2400, symBinAddr: 0x30844, symSize: 0x24 }
  - { offset: 0xED441, size: 0x8, addend: 0x0, symName: '__ZN5alloc3vec16Vec$LT$T$C$A$GT$4push17he102d68ab7bf9d1fE', symObjAddr: 0x2424, symBinAddr: 0x30868, symSize: 0x2C }
  - { offset: 0xED485, size: 0x8, addend: 0x0, symName: '__ZN5alloc3vec16Vec$LT$T$C$A$GT$4push17hef4bf5788240f1ffE', symObjAddr: 0x2450, symBinAddr: 0x30894, symSize: 0x30 }
  - { offset: 0xED4C9, size: 0x8, addend: 0x0, symName: '__ZN5alloc3vec16Vec$LT$T$C$A$GT$4push17hf0cfd258f3111e20E', symObjAddr: 0x2480, symBinAddr: 0x308C4, symSize: 0x24 }
  - { offset: 0xED50E, size: 0x8, addend: 0x0, symName: '__ZN5alloc3vec16Vec$LT$T$C$A$GT$6retain17h2fae45805bb696dcE', symObjAddr: 0x24A4, symBinAddr: 0x308E8, symSize: 0x4C }
  - { offset: 0xED671, size: 0x8, addend: 0x0, symName: '__ZN5alloc3vec16Vec$LT$T$C$A$GT$7reserve17hd270872e1a56f64dE', symObjAddr: 0x2520, symBinAddr: 0x30964, symSize: 0xA8 }
  - { offset: 0xED8D5, size: 0x8, addend: 0x0, symName: '__ZN5alloc3vec16Vec$LT$T$C$A$GT$7reserve17hfa10580840498493E', symObjAddr: 0x25C8, symBinAddr: 0x30A0C, symSize: 0xA8 }
  - { offset: 0xEDA48, size: 0x8, addend: 0x0, symName: '__ZN5alloc3vec16Vec$LT$T$C$A$GT$8is_empty17h04603035fdee58ecE', symObjAddr: 0x26D0, symBinAddr: 0x30B14, symSize: 0x20 }
  - { offset: 0xEDAC0, size: 0x8, addend: 0x0, symName: '__ZN5alloc3vec16Vec$LT$T$C$A$GT$8is_empty17h3dd05debcd3980bcE', symObjAddr: 0x26F0, symBinAddr: 0x30B34, symSize: 0x20 }
  - { offset: 0xEDB45, size: 0x8, addend: 0x0, symName: '__ZN5alloc3vec16Vec$LT$T$C$A$GT$8is_empty17h440e5cc42b8ceaa4E', symObjAddr: 0x2710, symBinAddr: 0x30B54, symSize: 0x20 }
  - { offset: 0xEDBBD, size: 0x8, addend: 0x0, symName: '__ZN5alloc3vec16Vec$LT$T$C$A$GT$8is_empty17h94f39cf37e9db0feE', symObjAddr: 0x2730, symBinAddr: 0x30B74, symSize: 0x20 }
  - { offset: 0xEDC35, size: 0x8, addend: 0x0, symName: '__ZN5alloc3vec16Vec$LT$T$C$A$GT$8is_empty17hdaae38a0ac20f85cE', symObjAddr: 0x2750, symBinAddr: 0x30B94, symSize: 0x20 }
  - { offset: 0xEDD75, size: 0x8, addend: 0x0, symName: '__ZN5alloc3vec16Vec$LT$T$C$A$GT$8push_mut17h0c69d1677e6d8242E', symObjAddr: 0x2770, symBinAddr: 0x30BB4, symSize: 0xDC }
  - { offset: 0xEE00E, size: 0x8, addend: 0x0, symName: '__ZN5alloc3vec16Vec$LT$T$C$A$GT$8push_mut17h1831bef5c5acc299E', symObjAddr: 0x284C, symBinAddr: 0x30C90, symSize: 0xE4 }
  - { offset: 0xEE2A6, size: 0x8, addend: 0x0, symName: '__ZN5alloc3vec16Vec$LT$T$C$A$GT$8push_mut17h2f30e562d5f11953E', symObjAddr: 0x2930, symBinAddr: 0x30D74, symSize: 0xD0 }
  - { offset: 0xEE508, size: 0x8, addend: 0x0, symName: '__ZN5alloc3vec16Vec$LT$T$C$A$GT$8push_mut17h5df118ebac57d3e3E', symObjAddr: 0x2A00, symBinAddr: 0x30E44, symSize: 0xCC }
  - { offset: 0xEE777, size: 0x8, addend: 0x0, symName: '__ZN5alloc3vec16Vec$LT$T$C$A$GT$8push_mut17h6e34ca3ca73ba98cE', symObjAddr: 0x2ACC, symBinAddr: 0x30F10, symSize: 0xF8 }
  - { offset: 0xEE9E7, size: 0x8, addend: 0x0, symName: '__ZN5alloc3vec16Vec$LT$T$C$A$GT$8push_mut17h75dffcb9b5ea2928E', symObjAddr: 0x2BC4, symBinAddr: 0x31008, symSize: 0xF8 }
  - { offset: 0xEEC7E, size: 0x8, addend: 0x0, symName: '__ZN5alloc3vec16Vec$LT$T$C$A$GT$8push_mut17haa8cea3a714066e7E', symObjAddr: 0x2CBC, symBinAddr: 0x31100, symSize: 0xF4 }
  - { offset: 0xEEEE3, size: 0x8, addend: 0x0, symName: '__ZN5alloc3vec16Vec$LT$T$C$A$GT$8push_mut17hd0aa3dc8fcafc51eE', symObjAddr: 0x2DB0, symBinAddr: 0x311F4, symSize: 0xE0 }
  - { offset: 0xEF0AB, size: 0x8, addend: 0x0, symName: '__ZN5alloc6borrow12Cow$LT$B$GT$10into_owned17h1fd1778385ba1a58E', symObjAddr: 0x2EB0, symBinAddr: 0x312D4, symSize: 0x74 }
  - { offset: 0xEFDE1, size: 0x8, addend: 0x0, symName: '__ZN103_$LT$alloc..vec..into_iter..IntoIter$LT$T$C$A$GT$$u20$as$u20$core..iter..traits..iterator..Iterator$GT$4next17h226ea189eb37d9e7E', symObjAddr: 0x0, symBinAddr: 0x31AA0, symSize: 0x94 }
  - { offset: 0xEFE3D, size: 0x8, addend: 0x0, symName: '__ZN45_$LT$T$u20$as$u20$alloc..string..ToString$GT$9to_string17h02a1990272df0cc6E', symObjAddr: 0x2628, symBinAddr: 0x32750, symSize: 0x24 }
  - { offset: 0xEFE7A, size: 0x8, addend: 0x0, symName: '__ZN49_$LT$T$u20$as$u20$alloc..string..SpecToString$GT$14spec_to_string17h52bb4e4889b79b10E', symObjAddr: 0x2764, symBinAddr: 0x32774, symSize: 0xF4 }
  - { offset: 0xEFFD5, size: 0x8, addend: 0x0, symName: '__ZN103_$LT$alloc..vec..into_iter..IntoIter$LT$T$C$A$GT$$u20$as$u20$core..iter..traits..iterator..Iterator$GT$4next17h226ea189eb37d9e7E', symObjAddr: 0x0, symBinAddr: 0x31AA0, symSize: 0x94 }
  - { offset: 0xF012F, size: 0x8, addend: 0x0, symName: '__ZN103_$LT$alloc..vec..into_iter..IntoIter$LT$T$C$A$GT$$u20$as$u20$core..iter..traits..iterator..Iterator$GT$4next17hade2c107ea457a35E', symObjAddr: 0x94, symBinAddr: 0x31B34, symSize: 0xA8 }
  - { offset: 0xF028D, size: 0x8, addend: 0x0, symName: '__ZN103_$LT$alloc..vec..into_iter..IntoIter$LT$T$C$A$GT$$u20$as$u20$core..iter..traits..iterator..Iterator$GT$4next17he31d2a865829beadE', symObjAddr: 0x13C, symBinAddr: 0x31BDC, symSize: 0x88 }
  - { offset: 0xF03E7, size: 0x8, addend: 0x0, symName: '__ZN103_$LT$alloc..vec..into_iter..IntoIter$LT$T$C$A$GT$$u20$as$u20$core..iter..traits..iterator..Iterator$GT$9size_hint17hcb9661b2a9ca2992E', symObjAddr: 0x1C4, symBinAddr: 0x31C64, symSize: 0xB4 }
  - { offset: 0xF0500, size: 0x8, addend: 0x0, symName: '__ZN103_$LT$alloc..vec..into_iter..IntoIter$LT$T$C$A$GT$$u20$as$u20$core..iter..traits..iterator..Iterator$GT$9size_hint17hd91b40cfecdcbfbaE', symObjAddr: 0x278, symBinAddr: 0x31D18, symSize: 0xB4 }
  - { offset: 0xF0619, size: 0x8, addend: 0x0, symName: '__ZN103_$LT$alloc..vec..into_iter..IntoIter$LT$T$C$A$GT$$u20$as$u20$core..iter..traits..iterator..Iterator$GT$9size_hint17hdebb75ba9d1c2bdfE', symObjAddr: 0x32C, symBinAddr: 0x31DCC, symSize: 0xB4 }
  - { offset: 0xF0742, size: 0x8, addend: 0x0, symName: '__ZN157_$LT$$LT$alloc..vec..into_iter..IntoIter$LT$T$C$A$GT$$u20$as$u20$core..ops..drop..Drop$GT$..drop..DropGuard$LT$T$C$A$GT$$u20$as$u20$core..ops..drop..Drop$GT$4drop17h5244d966741d8a8dE', symObjAddr: 0x1CA8, symBinAddr: 0x32028, symSize: 0x6C }
  - { offset: 0xF0885, size: 0x8, addend: 0x0, symName: '__ZN157_$LT$$LT$alloc..vec..into_iter..IntoIter$LT$T$C$A$GT$$u20$as$u20$core..ops..drop..Drop$GT$..drop..DropGuard$LT$T$C$A$GT$$u20$as$u20$core..ops..drop..Drop$GT$4drop17hd689d964f5c6c5daE', symObjAddr: 0x1D14, symBinAddr: 0x32094, symSize: 0x6C }
  - { offset: 0xF09C8, size: 0x8, addend: 0x0, symName: '__ZN157_$LT$$LT$alloc..vec..into_iter..IntoIter$LT$T$C$A$GT$$u20$as$u20$core..ops..drop..Drop$GT$..drop..DropGuard$LT$T$C$A$GT$$u20$as$u20$core..ops..drop..Drop$GT$4drop17he3618d6d266c581aE', symObjAddr: 0x1D80, symBinAddr: 0x32100, symSize: 0x6C }
  - { offset: 0xF0B82, size: 0x8, addend: 0x0, symName: '__ZN86_$LT$alloc..vec..into_iter..IntoIter$LT$T$C$A$GT$$u20$as$u20$core..ops..drop..Drop$GT$4drop17h58751c2d0f4717abE', symObjAddr: 0x4B24, symBinAddr: 0x347F8, symSize: 0x64 }
  - { offset: 0xF0BD4, size: 0x8, addend: 0x0, symName: '__ZN86_$LT$alloc..vec..into_iter..IntoIter$LT$T$C$A$GT$$u20$as$u20$core..ops..drop..Drop$GT$4drop17h8f0a23007a7598ccE', symObjAddr: 0x4B88, symBinAddr: 0x3485C, symSize: 0x78 }
  - { offset: 0xF0C26, size: 0x8, addend: 0x0, symName: '__ZN86_$LT$alloc..vec..into_iter..IntoIter$LT$T$C$A$GT$$u20$as$u20$core..ops..drop..Drop$GT$4drop17h94f2157074609974E', symObjAddr: 0x4C00, symBinAddr: 0x348D4, symSize: 0x78 }
  - { offset: 0xF1168, size: 0x8, addend: 0x0, symName: '__ZN64_$LT$alloc..ffi..c_str..NulError$u20$as$u20$core..fmt..Debug$GT$3fmt17h1ada122d8e269d72E', symObjAddr: 0x4A04, symBinAddr: 0x34750, symSize: 0x5C }
  - { offset: 0xF11A8, size: 0x8, addend: 0x0, symName: '__ZN70_$LT$alloc..ffi..c_str..CString$u20$as$u20$core..ops..deref..Deref$GT$5deref17h7e5895e48b0ac2bcE', symObjAddr: 0x4A78, symBinAddr: 0x347AC, symSize: 0x20 }
  - { offset: 0xF166A, size: 0x8, addend: 0x0, symName: '__ZN4core3ptr8non_null16NonNull$LT$T$GT$13new_unchecked18precondition_check17h2475bc1e8f9a22d2E', symObjAddr: 0x28C4, symBinAddr: 0x328D4, symSize: 0x58 }
  - { offset: 0xF1AA5, size: 0x8, addend: 0x0, symName: '__ZN4core3ptr9const_ptr33_$LT$impl$u20$$BP$const$u20$T$GT$20offset_from_unsigned18precondition_check17h248f0be0d99ff585E', symObjAddr: 0x2974, symBinAddr: 0x32984, symSize: 0x60 }
  - { offset: 0xF1B8E, size: 0x8, addend: 0x0, symName: '__ZN4core3ptr9const_ptr33_$LT$impl$u20$$BP$const$u20$T$GT$6offset18precondition_check17hf7b20a7561e45936E', symObjAddr: 0x29D4, symBinAddr: 0x329E4, symSize: 0xC4 }
  - { offset: 0xF1D87, size: 0x8, addend: 0x0, symName: '__ZN4core3ptr9const_ptr33_$LT$impl$u20$$BP$const$u20$T$GT$7is_null17h9e769148c6245e31E', symObjAddr: 0x2AB0, symBinAddr: 0x32AA8, symSize: 0x18 }
  - { offset: 0xF3750, size: 0x8, addend: 0x0, symName: __ZN4core3cmp9PartialEq2ne17h7b71353e6d139b9fE, symObjAddr: 0x2858, symBinAddr: 0x32868, symSize: 0x30 }
  - { offset: 0xF57AC, size: 0x8, addend: 0x0, symName: __ZN8pyo3_ffi7objimpl12PyType_IS_GC17h6f6a145a82dac034E, symObjAddr: 0x4CA4, symBinAddr: 0x3494C, symSize: 0x2C }
  - { offset: 0xF5CD7, size: 0x8, addend: 0x0, symName: __ZN4pyo33gil4POOL17habc1316b446d1cd5E, symObjAddr: 0x62E8, symBinAddr: 0xC0580, symSize: 0x0 }
  - { offset: 0xF5D44, size: 0x8, addend: 0x0, symName: __ZN4pyo33gil5START17h9287f439ee43b044E, symObjAddr: 0x6328, symBinAddr: 0xC05C0, symSize: 0x0 }
  - { offset: 0xF5D6D, size: 0x8, addend: 0x0, symName: '__ZN4pyo33gil9GIL_COUNT29_$u7b$$u7b$constant$u7d$$u7d$28_$u7b$$u7b$closure$u7d$$u7d$23__RUST_STD_INTERNAL_VAL17h1b9e3a780009ba48E', symObjAddr: 0x6344, symBinAddr: 0xC0F38, symSize: 0x0 }
  - { offset: 0xF5D7C, size: 0x8, addend: 0x0, symName: '__ZN4pyo33gil9GIL_COUNT29_$u7b$$u7b$constant$u7d$$u7d$28_$u7b$$u7b$closure$u7d$$u7d$17heacfa1bb41424dafE', symObjAddr: 0x3940, symBinAddr: 0x337F0, symSize: 0x30 }
  - { offset: 0xF5DD4, size: 0x8, addend: 0x0, symName: '__ZN63_$LT$pyo3..gil..SuspendGIL$u20$as$u20$core..ops..drop..Drop$GT$4drop28_$u7b$$u7b$closure$u7d$$u7d$17hda3ca8a6c14bf2daE', symObjAddr: 0x4964, symBinAddr: 0x34718, symSize: 0x38 }
  - { offset: 0xF5E10, size: 0x8, addend: 0x0, symName: '__ZN63_$LT$pyo3..gil..SuspendGIL$u20$as$u20$core..ops..drop..Drop$GT$4drop17hfbb1131f5b2f6cf0E', symObjAddr: 0x48E4, symBinAddr: 0x34698, symSize: 0x80 }
  - { offset: 0xF5EA8, size: 0x8, addend: 0x0, symName: '__ZN4pyo33gil10SuspendGIL3new28_$u7b$$u7b$closure$u7d$$u7d$17h59776029de0e51daE', symObjAddr: 0x2CC0, symBinAddr: 0x32C4C, symSize: 0x28 }
  - { offset: 0xF5EEF, size: 0x8, addend: 0x0, symName: '__ZN4pyo33gil19increment_gil_count28_$u7b$$u7b$closure$u7d$$u7d$17h47c46f8f4744660aE', symObjAddr: 0x3514, symBinAddr: 0x334A0, symSize: 0x74 }
  - { offset: 0xF5F47, size: 0x8, addend: 0x0, symName: '__ZN4pyo33gil15gil_is_acquired28_$u7b$$u7b$closure$u7d$$u7d$17ha437e191f44f790dE', symObjAddr: 0x327C, symBinAddr: 0x33208, symSize: 0x2C }
  - { offset: 0xF5F8A, size: 0x8, addend: 0x0, symName: '__ZN4pyo33gil19decrement_gil_count28_$u7b$$u7b$closure$u7d$$u7d$17h86fef0bad28686aaE', symObjAddr: 0x3488, symBinAddr: 0x33414, symSize: 0x8C }
  - { offset: 0xF60A3, size: 0x8, addend: 0x0, symName: __ZN4pyo33gil15register_decref17h109e759ae6dcce9fE, symObjAddr: 0x32A8, symBinAddr: 0x33234, symSize: 0x1E0 }
  - { offset: 0xF611E, size: 0x8, addend: 0x0, symName: __ZN4pyo33gil27prepare_freethreaded_python17h9b12ce042c6f9209E, symObjAddr: 0x3588, symBinAddr: 0x33514, symSize: 0x1C }
  - { offset: 0xF613C, size: 0x8, addend: 0x0, symName: '__ZN4pyo33gil27prepare_freethreaded_python28_$u7b$$u7b$closure$u7d$$u7d$17h8e7a3cb33ca315b0E', symObjAddr: 0x35A4, symBinAddr: 0x33530, symSize: 0x38 }
  - { offset: 0xF61D6, size: 0x8, addend: 0x0, symName: '__ZN4pyo33gil8GILGuard7acquire28_$u7b$$u7b$closure$u7d$$u7d$17h55a49656684cb6b6E', symObjAddr: 0x38B0, symBinAddr: 0x33760, symSize: 0x90 }
  - { offset: 0xF6260, size: 0x8, addend: 0x0, symName: '__ZN61_$LT$pyo3..gil..GILGuard$u20$as$u20$core..ops..drop..Drop$GT$4drop17h56bccc8d1f51bac1E', symObjAddr: 0x4888, symBinAddr: 0x3463C, symSize: 0x5C }
  - { offset: 0xF64E5, size: 0x8, addend: 0x0, symName: '__ZN103_$LT$pyo3..instance..Bound$LT$pyo3..types..any..PyAny$GT$$u20$as$u20$pyo3..types..any..PyAnyMethods$GT$7getattr5inner17h28ececa17cfaabbeE', symObjAddr: 0x1278, symBinAddr: 0x31E80, symSize: 0xA8 }
  - { offset: 0xF6528, size: 0x8, addend: 0x0, symName: '__ZN103_$LT$pyo3..instance..Bound$LT$pyo3..types..any..PyAny$GT$$u20$as$u20$pyo3..types..any..PyAnyMethods$GT$7setattr5inner17hedb2cdb10153b5c8E', symObjAddr: 0x1470, symBinAddr: 0x31F28, symSize: 0xDC }
  - { offset: 0xF65A2, size: 0x8, addend: 0x0, symName: '__ZN152_$LT$core..result..Result$LT$pyo3..instance..Bound$LT$pyo3..types..any..PyAny$GT$$C$pyo3..err..PyErr$GT$$u20$as$u20$pyo3..py_result_ext..PyResultExt$GT$23downcast_into_unchecked28_$u7b$$u7b$closure$u7d$$u7d$17hb37252176b7b61c6E', symObjAddr: 0x1BF4, symBinAddr: 0x32004, symSize: 0x24 }
  - { offset: 0xF65FA, size: 0x8, addend: 0x0, symName: '__ZN4pyo33err5impls94_$LT$impl$u20$pyo3..err..err_state..PyErrArguments$u20$for$u20$alloc..ffi..c_str..NulError$GT$9arguments17h7795c17f323b1d85E', symObjAddr: 0x2C14, symBinAddr: 0x32BA0, symSize: 0x6C }
  - { offset: 0xF670E, size: 0x8, addend: 0x0, symName: __ZN4pyo35impl_10trampoline10trampoline17h1123667d59a7f618E, symObjAddr: 0x3970, symBinAddr: 0x33820, symSize: 0x15C }
  - { offset: 0xF67B1, size: 0x8, addend: 0x0, symName: __ZN4pyo35impl_10trampoline10trampoline17h234f21d700cd35ebE, symObjAddr: 0x3ACC, symBinAddr: 0x3397C, symSize: 0x158 }
  - { offset: 0xF6854, size: 0x8, addend: 0x0, symName: __ZN4pyo35impl_10trampoline10trampoline17h3b91df614ac3720aE, symObjAddr: 0x3C24, symBinAddr: 0x33AD4, symSize: 0x15C }
  - { offset: 0xF68F7, size: 0x8, addend: 0x0, symName: __ZN4pyo35impl_10trampoline10trampoline17h8db37f61de19b577E, symObjAddr: 0x3D80, symBinAddr: 0x33C30, symSize: 0x15C }
  - { offset: 0xF699A, size: 0x8, addend: 0x0, symName: __ZN4pyo35impl_10trampoline10trampoline17h92b5e05ebc6fd806E, symObjAddr: 0x3EDC, symBinAddr: 0x33D8C, symSize: 0x14C }
  - { offset: 0xF6A3C, size: 0x8, addend: 0x0, symName: __ZN4pyo35impl_10trampoline10trampoline17ha54515959323b9adE, symObjAddr: 0x4028, symBinAddr: 0x33ED8, symSize: 0x158 }
  - { offset: 0xF6AE4, size: 0x8, addend: 0x0, symName: '__ZN4pyo35impl_10trampoline10trampoline28_$u7b$$u7b$closure$u7d$$u7d$17h29b49630f27dea18E', symObjAddr: 0x4180, symBinAddr: 0x34030, symSize: 0x2C }
  - { offset: 0xF6B32, size: 0x8, addend: 0x0, symName: '__ZN4pyo35impl_10trampoline10trampoline28_$u7b$$u7b$closure$u7d$$u7d$17hb3800fca1a91ece7E', symObjAddr: 0x41AC, symBinAddr: 0x3405C, symSize: 0x34 }
  - { offset: 0xF6B81, size: 0x8, addend: 0x0, symName: '__ZN4pyo35impl_10trampoline10trampoline28_$u7b$$u7b$closure$u7d$$u7d$17hd6280ba397c4b408E', symObjAddr: 0x41E0, symBinAddr: 0x34090, symSize: 0x2C }
  - { offset: 0xF6BCF, size: 0x8, addend: 0x0, symName: '__ZN4pyo35impl_10trampoline10trampoline28_$u7b$$u7b$closure$u7d$$u7d$17hd688708f8e5a2d4dE', symObjAddr: 0x420C, symBinAddr: 0x340BC, symSize: 0x34 }
  - { offset: 0xF6C1E, size: 0x8, addend: 0x0, symName: '__ZN4pyo35impl_10trampoline10trampoline28_$u7b$$u7b$closure$u7d$$u7d$17hed7b8265becb8d89E', symObjAddr: 0x4240, symBinAddr: 0x340F0, symSize: 0x34 }
  - { offset: 0xF6C6D, size: 0x8, addend: 0x0, symName: '__ZN4pyo35impl_10trampoline10trampoline28_$u7b$$u7b$closure$u7d$$u7d$17heed457bce74a780fE', symObjAddr: 0x4274, symBinAddr: 0x34124, symSize: 0x24 }
  - { offset: 0xF6CBC, size: 0x8, addend: 0x0, symName: __ZN4pyo35impl_10trampoline33panic_result_into_callback_output17h6e8edbe416bc2122E, symObjAddr: 0x4298, symBinAddr: 0x34148, symSize: 0xF8 }
  - { offset: 0xF6D7F, size: 0x8, addend: 0x0, symName: __ZN4pyo35impl_10trampoline33panic_result_into_callback_output17hd9cddd5965a23060E, symObjAddr: 0x4390, symBinAddr: 0x34240, symSize: 0x104 }
  - { offset: 0xF6EFD, size: 0x8, addend: 0x0, symName: '__ZN72_$LT$pyo3..pycell..impl_..BorrowFlag$u20$as$u20$core..cmp..PartialEq$GT$2eq17h79b3f8bfee4e7184E', symObjAddr: 0x4A98, symBinAddr: 0x347CC, symSize: 0x2C }
  - { offset: 0xF6F3D, size: 0x8, addend: 0x0, symName: '__ZN96_$LT$pyo3..pycell..impl_..BorrowChecker$u20$as$u20$pyo3..pycell..impl_..PyClassBorrowChecker$GT$10try_borrow17hd006bf39adb30d1dE', symObjAddr: 0x4DF0, symBinAddr: 0x34A68, symSize: 0x78 }
  - { offset: 0xF6F86, size: 0x8, addend: 0x0, symName: '__ZN96_$LT$pyo3..pycell..impl_..BorrowChecker$u20$as$u20$pyo3..pycell..impl_..PyClassBorrowChecker$GT$14release_borrow17h6dfad65d5eb3e005E', symObjAddr: 0x4E68, symBinAddr: 0x34AE0, symSize: 0x3C }
  - { offset: 0xF765F, size: 0x8, addend: 0x0, symName: '__ZN3std6thread5local17LocalKey$LT$T$GT$4with17h0f9895b00be3597dE', symObjAddr: 0x1DEC, symBinAddr: 0x3216C, symSize: 0x50 }
  - { offset: 0xF7716, size: 0x8, addend: 0x0, symName: '__ZN3std6thread5local17LocalKey$LT$T$GT$4with17h304387d513c860a1E', symObjAddr: 0x1E3C, symBinAddr: 0x321BC, symSize: 0x48 }
  - { offset: 0xF7781, size: 0x8, addend: 0x0, symName: '__ZN3std6thread5local17LocalKey$LT$T$GT$4with17heed979b25619edf8E', symObjAddr: 0x1F20, symBinAddr: 0x32204, symSize: 0x4C }
  - { offset: 0xF783A, size: 0x8, addend: 0x0, symName: '__ZN3std6thread5local17LocalKey$LT$T$GT$8try_with17h33ac1c3b68b874b4E', symObjAddr: 0x2050, symBinAddr: 0x32250, symSize: 0xD8 }
  - { offset: 0xF79C9, size: 0x8, addend: 0x0, symName: '__ZN3std6thread5local17LocalKey$LT$T$GT$8try_with17h6659bb139470344aE', symObjAddr: 0x2128, symBinAddr: 0x32328, symSize: 0xE8 }
  - { offset: 0xF7B4B, size: 0x8, addend: 0x0, symName: '__ZN3std6thread5local17LocalKey$LT$T$GT$8try_with17h6673d087664b894aE', symObjAddr: 0x2210, symBinAddr: 0x32410, symSize: 0xD8 }
  - { offset: 0xF7CCD, size: 0x8, addend: 0x0, symName: '__ZN3std6thread5local17LocalKey$LT$T$GT$8try_with17hd84299ee07912f03E', symObjAddr: 0x22E8, symBinAddr: 0x324E8, symSize: 0xCC }
  - { offset: 0xF7E4E, size: 0x8, addend: 0x0, symName: '__ZN3std6thread5local17LocalKey$LT$T$GT$8try_with17hdc1250d23e0b107aE', symObjAddr: 0x23B4, symBinAddr: 0x325B4, symSize: 0xD0 }
  - { offset: 0xF7FD0, size: 0x8, addend: 0x0, symName: '__ZN3std6thread5local17LocalKey$LT$T$GT$8try_with17hf0dbaf8bac24d362E', symObjAddr: 0x255C, symBinAddr: 0x32684, symSize: 0xCC }
  - { offset: 0xF81C9, size: 0x8, addend: 0x0, symName: '__ZN4core3ptr8non_null16NonNull$LT$T$GT$13new_unchecked17h28842bfb5967619aE', symObjAddr: 0x2888, symBinAddr: 0x32898, symSize: 0x3C }
  - { offset: 0xF820F, size: 0x8, addend: 0x0, symName: '__ZN4core3ptr8non_null16NonNull$LT$T$GT$3new17hb017ba3b28562c94E', symObjAddr: 0x291C, symBinAddr: 0x3292C, symSize: 0x58 }
  - { offset: 0xF828D, size: 0x8, addend: 0x0, symName: '__ZN4core4iter8adapters7step_by15StepBy$LT$I$GT$3new17h897140384516e81fE', symObjAddr: 0x2AC8, symBinAddr: 0x32AC0, symSize: 0xE0 }
  - { offset: 0xF82FD, size: 0x8, addend: 0x0, symName: __ZN4pyo33gil10SuspendGIL3new17h3ea65f36697ccea3E, symObjAddr: 0x2C80, symBinAddr: 0x32C0C, symSize: 0x40 }
  - { offset: 0xF83D3, size: 0x8, addend: 0x0, symName: __ZN4pyo33gil13ReferencePool13update_counts17h85395b9417d195c3E, symObjAddr: 0x2CE8, symBinAddr: 0x32C74, symSize: 0x420 }
  - { offset: 0xF84FD, size: 0x8, addend: 0x0, symName: __ZN4pyo33gil13ReferencePool15register_decref17h3e05e563e965f3ddE, symObjAddr: 0x3108, symBinAddr: 0x33094, symSize: 0x128 }
  - { offset: 0xF8569, size: 0x8, addend: 0x0, symName: __ZN4pyo33gil13ReferencePool3new17hbe8192910c51c627E, symObjAddr: 0x3230, symBinAddr: 0x331BC, symSize: 0x4C }
  - { offset: 0xF857C, size: 0x8, addend: 0x0, symName: __ZN4pyo33gil7LockGIL4bail17h27942e0b0e752f2cE, symObjAddr: 0x365C, symBinAddr: 0x76DF0, symSize: 0x5C }
  - { offset: 0xF859F, size: 0x8, addend: 0x0, symName: __ZN4pyo33gil8GILGuard17acquire_unchecked17h52301e32bddda142E, symObjAddr: 0x36B8, symBinAddr: 0x33568, symSize: 0xAC }
  - { offset: 0xF8605, size: 0x8, addend: 0x0, symName: __ZN4pyo33gil8GILGuard6assume17h92144e2819d7cb8aE, symObjAddr: 0x3764, symBinAddr: 0x33614, symSize: 0xB0 }
  - { offset: 0xF8657, size: 0x8, addend: 0x0, symName: __ZN4pyo33gil8GILGuard6python17h817ca83c31f90f9fE, symObjAddr: 0x3814, symBinAddr: 0x336C4, symSize: 0x20 }
  - { offset: 0xF8679, size: 0x8, addend: 0x0, symName: __ZN4pyo33gil8GILGuard7acquire17h4e616e50283f14a3E, symObjAddr: 0x3834, symBinAddr: 0x336E4, symSize: 0x7C }
  - { offset: 0xF86F6, size: 0x8, addend: 0x0, symName: __ZN4pyo36pycell5impl_10BorrowFlag9decrement17h3bd7770ad6e3cf39E, symObjAddr: 0x4504, symBinAddr: 0x34344, symSize: 0x40 }
  - { offset: 0xF8718, size: 0x8, addend: 0x0, symName: __ZN4pyo36pycell5impl_10BorrowFlag9increment17h22977ea5e711a27aE, symObjAddr: 0x4544, symBinAddr: 0x34384, symSize: 0x40 }
  - { offset: 0xF873A, size: 0x8, addend: 0x0, symName: __ZN5alloc3ffi5c_str7CString3new17h4d585b576c7254c1E, symObjAddr: 0x45A8, symBinAddr: 0x343C4, symSize: 0x14 }
  - { offset: 0xF87DE, size: 0x8, addend: 0x0, symName: '__ZN5alloc3vec9into_iter21IntoIter$LT$T$C$A$GT$16as_raw_mut_slice17h7ee68546bebb966bE', symObjAddr: 0x45BC, symBinAddr: 0x343D8, symSize: 0xCC }
  - { offset: 0xF892E, size: 0x8, addend: 0x0, symName: '__ZN5alloc3vec9into_iter21IntoIter$LT$T$C$A$GT$16as_raw_mut_slice17hcfbfa4582ca477cfE', symObjAddr: 0x4688, symBinAddr: 0x344A4, symSize: 0xCC }
  - { offset: 0xF8A7E, size: 0x8, addend: 0x0, symName: '__ZN5alloc3vec9into_iter21IntoIter$LT$T$C$A$GT$16as_raw_mut_slice17hf00107e39ac57b35E', symObjAddr: 0x4754, symBinAddr: 0x34570, symSize: 0xCC }
  - { offset: 0xF8E7B, size: 0x8, addend: 0x0, symName: '__ZN92_$LT$hashbrown..map..Iter$LT$K$C$V$GT$$u20$as$u20$core..iter..traits..iterator..Iterator$GT$4next17h0849bbd5aefdbc40E', symObjAddr: 0x4D00, symBinAddr: 0x34978, symSize: 0xF0 }
  - { offset: 0xF9106, size: 0x8, addend: 0x0, symName: '__ZN9hashbrown3map11make_hasher28_$u7b$$u7b$closure$u7d$$u7d$17h806ec954974b6ed8E', symObjAddr: 0x5064, symBinAddr: 0x34C44, symSize: 0x3C }
  - { offset: 0xF943D, size: 0x8, addend: 0x0, symName: '__ZN9hashbrown11rustc_entry62_$LT$impl$u20$hashbrown..map..HashMap$LT$K$C$V$C$S$C$A$GT$$GT$11rustc_entry17h526364cf23f57a64E', symObjAddr: 0x4F3C, symBinAddr: 0x34B1C, symSize: 0x128 }
  - { offset: 0xF965A, size: 0x8, addend: 0x0, symName: '__ZN9hashbrown3map28HashMap$LT$K$C$V$C$S$C$A$GT$4iter17hc54c0dadf80b10cdE', symObjAddr: 0x50A0, symBinAddr: 0x34C80, symSize: 0xA8 }
  - { offset: 0xFA427, size: 0x8, addend: 0x0, symName: '__ZN64_$LT$core..str..error..Utf8Error$u20$as$u20$core..fmt..Debug$GT$3fmt17hc90e4c22e28cf671E', symObjAddr: 0x5F60, symBinAddr: 0x363C8, symSize: 0x88 }
  - { offset: 0xFBACF, size: 0x8, addend: 0x0, symName: '__ZN53_$LT$T$u20$as$u20$core..slice..cmp..SliceContains$GT$14slice_contains28_$u7b$$u7b$closure$u7d$$u7d$17h74734d8dc2a87d9eE', symObjAddr: 0x5CA0, symBinAddr: 0x36328, symSize: 0x38 }
  - { offset: 0xFBB1F, size: 0x8, addend: 0x0, symName: '__ZN73_$LT$$u5b$A$u5d$$u20$as$u20$core..slice..cmp..SlicePartialEq$LT$B$GT$$GT$5equal17h10d250dd6d3ad226E', symObjAddr: 0x6014, symBinAddr: 0x36450, symSize: 0x88 }
  - { offset: 0xFBBA5, size: 0x8, addend: 0x0, symName: '__ZN73_$LT$$u5b$A$u5d$$u20$as$u20$core..slice..cmp..SlicePartialEq$LT$B$GT$$GT$5equal17h60e9110a0bafa43dE', symObjAddr: 0x609C, symBinAddr: 0x364D8, symSize: 0x88 }
  - { offset: 0xFBC8B, size: 0x8, addend: 0x0, symName: '__ZN4core5slice4iter87_$LT$impl$u20$core..iter..traits..collect..IntoIterator$u20$for$u20$$RF$$u5b$T$u5d$$GT$9into_iter17hf4ecb947a4eda0dbE', symObjAddr: 0x100C, symBinAddr: 0x34FD8, symSize: 0x50 }
  - { offset: 0xFBEEA, size: 0x8, addend: 0x0, symName: __ZN4core4hint16assert_unchecked18precondition_check17h8a1d94d9b164a333E, symObjAddr: 0xEDC, symBinAddr: 0x34F44, symSize: 0x58 }
  - { offset: 0xFBF35, size: 0x8, addend: 0x0, symName: __ZN4core4hint21unreachable_unchecked18precondition_check17h478ffdb38d7d80baE, symObjAddr: 0xF34, symBinAddr: 0x34F9C, symSize: 0x3C }
  - { offset: 0xFBFD4, size: 0x8, addend: 0x0, symName: '__ZN63_$LT$I$u20$as$u20$core..iter..traits..collect..IntoIterator$GT$9into_iter17h9a0842ac70542958E', symObjAddr: 0x5F48, symBinAddr: 0x363B0, symSize: 0x18 }
  - { offset: 0xFC082, size: 0x8, addend: 0x0, symName: '__ZN4pyo33err9err_state10PyErrState4lazy28_$u7b$$u7b$closure$u7d$$u7d$17h48cb72cfaf3b1dd6E', symObjAddr: 0x2828, symBinAddr: 0x35430, symSize: 0x70 }
  - { offset: 0xFC21F, size: 0x8, addend: 0x0, symName: __ZN4pyo33err9err_state10raise_lazy17haa642b4cf1e86d04E, symObjAddr: 0x29A8, symBinAddr: 0x355B0, symSize: 0x148 }
  - { offset: 0xFC2AC, size: 0x8, addend: 0x0, symName: '__ZN4pyo33err9err_state20PyErrStateNormalized10ptraceback28_$u7b$$u7b$closure$u7d$$u7d$17h91245cb7a8b7ce3aE', symObjAddr: 0x2B20, symBinAddr: 0x35728, symSize: 0x24 }
  - { offset: 0xFC2EF, size: 0x8, addend: 0x0, symName: '__ZN4pyo33err9err_state20PyErrStateNormalized4take28_$u7b$$u7b$closure$u7d$$u7d$17hbb90069a98426a3fE', symObjAddr: 0x2B68, symBinAddr: 0x35770, symSize: 0x14 }
  - { offset: 0xFC333, size: 0x8, addend: 0x0, symName: '__ZN58_$LT$T$u20$as$u20$pyo3..err..err_state..PyErrArguments$GT$9arguments17h019ea3477014cb2aE', symObjAddr: 0x5D40, symBinAddr: 0x36360, symSize: 0x28 }
  - { offset: 0xFC381, size: 0x8, addend: 0x0, symName: '__ZN58_$LT$T$u20$as$u20$pyo3..err..err_state..PyErrArguments$GT$9arguments17h8c35b65e0468927cE', symObjAddr: 0x5D68, symBinAddr: 0x36388, symSize: 0x28 }
  - { offset: 0xFC87F, size: 0x8, addend: 0x0, symName: '__ZN79_$LT$pyo3..types..string..PyString$u20$as$u20$pyo3..type_object..PyTypeInfo$GT$16is_type_of_bound17ha76c1193ea240973E', symObjAddr: 0x6250, symBinAddr: 0x365EC, symSize: 0x30 }
  - { offset: 0xFC9E1, size: 0x8, addend: 0x0, symName: __ZN4pyo35panic14PanicException15type_object_raw11TYPE_OBJECT17hefa7e388680de193E, symObjAddr: 0x36F90, symBinAddr: 0xC1070, symSize: 0x0 }
  - { offset: 0xFC9EE, size: 0x8, addend: 0x0, symName: '__ZN4pyo35panic14PanicException15type_object_raw28_$u7b$$u7b$closure$u7d$$u7d$17h3e73bfe2cf2b0e01E', symObjAddr: 0x3788, symBinAddr: 0x35F40, symSize: 0xB4 }
  - { offset: 0xFCABE, size: 0x8, addend: 0x0, symName: '__ZN77_$LT$pyo3..panic..PanicException$u20$as$u20$pyo3..type_object..PyTypeInfo$GT$15type_object_raw17h5c40011a252b03c6E', symObjAddr: 0x6194, symBinAddr: 0x36560, symSize: 0x1C }
  - { offset: 0xFCD46, size: 0x8, addend: 0x0, symName: '__ZN114_$LT$pyo3..pyclass_init..PyNativeTypeInitializer$LT$T$GT$$u20$as$u20$pyo3..pyclass_init..PyObjectInit$LT$T$GT$$GT$15into_new_object5inner17h9703e310713212d4E', symObjAddr: 0x418, symBinAddr: 0x34D28, symSize: 0x21C }
  - { offset: 0xFCEE9, size: 0x8, addend: 0x0, symName: __ZN4pyo35impl_7pyclass17build_pyclass_doc17h0a4ac7c2c2cd8514E, symObjAddr: 0x3044, symBinAddr: 0x357FC, symSize: 0x258 }
  - { offset: 0xFD01C, size: 0x8, addend: 0x0, symName: '__ZN4pyo35impl_7pyclass17build_pyclass_doc28_$u7b$$u7b$closure$u7d$$u7d$17h789522f92cb5361eE', symObjAddr: 0x329C, symBinAddr: 0x35A54, symSize: 0x64 }
  - { offset: 0xFD057, size: 0x8, addend: 0x0, symName: __ZN4pyo35impl_7pyclass30get_sequence_item_from_mapping17hcf92f17db61e9e9bE, symObjAddr: 0x3300, symBinAddr: 0x35AB8, symSize: 0x210 }
  - { offset: 0xFD111, size: 0x8, addend: 0x0, symName: __ZN4pyo35impl_7pyclass33assign_sequence_item_from_mapping17hac2a935996dae525E, symObjAddr: 0x3510, symBinAddr: 0x35CC8, symSize: 0x24C }
  - { offset: 0xFD1D2, size: 0x8, addend: 0x0, symName: '__ZN97_$LT$pyo3..impl_..pyclass..PyClassItemsIter$u20$as$u20$core..iter..traits..iterator..Iterator$GT$4next17ha5aeda7a6ddd0695E', symObjAddr: 0x6C14, symBinAddr: 0x368EC, symSize: 0xD0 }
  - { offset: 0xFD6CA, size: 0x8, addend: 0x0, symName: '__ZN79_$LT$pyo3..exceptions..PyTypeError$u20$as$u20$pyo3..type_object..PyTypeInfo$GT$15type_object_raw17hca0d5b04941e4164E', symObjAddr: 0x61E0, symBinAddr: 0x3657C, symSize: 0x24 }
  - { offset: 0xFD709, size: 0x8, addend: 0x0, symName: '__ZN79_$LT$pyo3..exceptions..PyTypeError$u20$as$u20$pyo3..type_object..PyTypeInfo$GT$15type_object_raw28_$u7b$$u7b$closure$u7d$$u7d$17hb741c59ad2f97a31E', symObjAddr: 0x6204, symBinAddr: 0x365A0, symSize: 0x4C }
  - { offset: 0xFD75C, size: 0x8, addend: 0x0, symName: '__ZN80_$LT$pyo3..exceptions..PyValueError$u20$as$u20$pyo3..type_object..PyTypeInfo$GT$15type_object_raw17h5c54474655ddfb6cE', symObjAddr: 0x6280, symBinAddr: 0x3661C, symSize: 0x24 }
  - { offset: 0xFD79B, size: 0x8, addend: 0x0, symName: '__ZN80_$LT$pyo3..exceptions..PyValueError$u20$as$u20$pyo3..type_object..PyTypeInfo$GT$15type_object_raw28_$u7b$$u7b$closure$u7d$$u7d$17h93db736c9e283953E', symObjAddr: 0x62A4, symBinAddr: 0x36640, symSize: 0x4C }
  - { offset: 0xFD7EE, size: 0x8, addend: 0x0, symName: '__ZN81_$LT$pyo3..exceptions..PyImportError$u20$as$u20$pyo3..type_object..PyTypeInfo$GT$15type_object_raw17h2a18fe557adb69ebE', symObjAddr: 0x63B8, symBinAddr: 0x3668C, symSize: 0x24 }
  - { offset: 0xFD82D, size: 0x8, addend: 0x0, symName: '__ZN81_$LT$pyo3..exceptions..PyImportError$u20$as$u20$pyo3..type_object..PyTypeInfo$GT$15type_object_raw28_$u7b$$u7b$closure$u7d$$u7d$17h21d6e9bb6134316fE', symObjAddr: 0x63DC, symBinAddr: 0x366B0, symSize: 0x4C }
  - { offset: 0xFD880, size: 0x8, addend: 0x0, symName: '__ZN82_$LT$pyo3..exceptions..PyRuntimeError$u20$as$u20$pyo3..type_object..PyTypeInfo$GT$15type_object_raw17hfa6169db2fee0da9E', symObjAddr: 0x6458, symBinAddr: 0x366FC, symSize: 0x24 }
  - { offset: 0xFD8BF, size: 0x8, addend: 0x0, symName: '__ZN82_$LT$pyo3..exceptions..PyRuntimeError$u20$as$u20$pyo3..type_object..PyTypeInfo$GT$15type_object_raw28_$u7b$$u7b$closure$u7d$$u7d$17h9d37b51f5e311e49E', symObjAddr: 0x647C, symBinAddr: 0x36720, symSize: 0x4C }
  - { offset: 0xFD912, size: 0x8, addend: 0x0, symName: '__ZN83_$LT$pyo3..exceptions..PyBaseException$u20$as$u20$pyo3..type_object..PyTypeInfo$GT$15type_object_raw17h20a26860b9a36dd8E', symObjAddr: 0x6538, symBinAddr: 0x3676C, symSize: 0x24 }
  - { offset: 0xFD951, size: 0x8, addend: 0x0, symName: '__ZN83_$LT$pyo3..exceptions..PyBaseException$u20$as$u20$pyo3..type_object..PyTypeInfo$GT$15type_object_raw28_$u7b$$u7b$closure$u7d$$u7d$17h004dbf5988468abcE', symObjAddr: 0x655C, symBinAddr: 0x36790, symSize: 0x4C }
  - { offset: 0xFD99E, size: 0x8, addend: 0x0, symName: '__ZN83_$LT$pyo3..exceptions..PyBaseException$u20$as$u20$pyo3..type_object..PyTypeInfo$GT$16is_type_of_bound17h6237d8731c74ae84E', symObjAddr: 0x65A8, symBinAddr: 0x367DC, symSize: 0x30 }
  - { offset: 0xFD9D2, size: 0x8, addend: 0x0, symName: '__ZN83_$LT$pyo3..exceptions..PyOverflowError$u20$as$u20$pyo3..type_object..PyTypeInfo$GT$15type_object_raw17heac992c90e65559eE', symObjAddr: 0x65D8, symBinAddr: 0x3680C, symSize: 0x24 }
  - { offset: 0xFDA11, size: 0x8, addend: 0x0, symName: '__ZN83_$LT$pyo3..exceptions..PyOverflowError$u20$as$u20$pyo3..type_object..PyTypeInfo$GT$15type_object_raw28_$u7b$$u7b$closure$u7d$$u7d$17h93fd197ecf74660aE', symObjAddr: 0x65FC, symBinAddr: 0x36830, symSize: 0x4C }
  - { offset: 0xFDA64, size: 0x8, addend: 0x0, symName: '__ZN84_$LT$pyo3..exceptions..PyAttributeError$u20$as$u20$pyo3..type_object..PyTypeInfo$GT$15type_object_raw17h062268c2960fe9f5E', symObjAddr: 0x6668, symBinAddr: 0x3687C, symSize: 0x24 }
  - { offset: 0xFDAA3, size: 0x8, addend: 0x0, symName: '__ZN84_$LT$pyo3..exceptions..PyAttributeError$u20$as$u20$pyo3..type_object..PyTypeInfo$GT$15type_object_raw28_$u7b$$u7b$closure$u7d$$u7d$17hcbce8da5fbec522fE', symObjAddr: 0x668C, symBinAddr: 0x368A0, symSize: 0x4C }
  - { offset: 0xFDB65, size: 0x8, addend: 0x0, symName: __ZN4pyo311type_object10PyTypeInfo17type_object_bound17h02942bba8907ff91E, symObjAddr: 0x2224, symBinAddr: 0x351D8, symSize: 0x30 }
  - { offset: 0xFDBA5, size: 0x8, addend: 0x0, symName: __ZN4pyo311type_object10PyTypeInfo17type_object_bound17h1a105de04ff63358E, symObjAddr: 0x2284, symBinAddr: 0x35208, symSize: 0x30 }
  - { offset: 0xFDBE5, size: 0x8, addend: 0x0, symName: __ZN4pyo311type_object10PyTypeInfo17type_object_bound17h2fb8896c71d4292eE, symObjAddr: 0x22E4, symBinAddr: 0x35238, symSize: 0x30 }
  - { offset: 0xFDC25, size: 0x8, addend: 0x0, symName: __ZN4pyo311type_object10PyTypeInfo17type_object_bound17h67ac3f3c90f71caeE, symObjAddr: 0x2374, symBinAddr: 0x35268, symSize: 0x30 }
  - { offset: 0xFDC65, size: 0x8, addend: 0x0, symName: __ZN4pyo311type_object10PyTypeInfo17type_object_bound17h8f06a4cdaa348159E, symObjAddr: 0x2404, symBinAddr: 0x35298, symSize: 0x30 }
  - { offset: 0xFDCA5, size: 0x8, addend: 0x0, symName: __ZN4pyo311type_object10PyTypeInfo17type_object_bound17h901b8f525ecbd5f0E, symObjAddr: 0x2434, symBinAddr: 0x352C8, symSize: 0x30 }
  - { offset: 0xFDCE5, size: 0x8, addend: 0x0, symName: __ZN4pyo311type_object10PyTypeInfo17type_object_bound17hd14b6d22347aa00fE, symObjAddr: 0x2554, symBinAddr: 0x352F8, symSize: 0x30 }
  - { offset: 0xFDD25, size: 0x8, addend: 0x0, symName: __ZN4pyo311type_object10PyTypeInfo17type_object_bound17hf431cc752f88718cE, symObjAddr: 0x2584, symBinAddr: 0x35328, symSize: 0x30 }
  - { offset: 0xFDD6B, size: 0x8, addend: 0x0, symName: '__ZN52_$LT$T$u20$as$u20$pyo3..type_object..PyTypeCheck$GT$10type_check17h455b88c676925985E', symObjAddr: 0x5C10, symBinAddr: 0x362E0, symSize: 0x24 }
  - { offset: 0xFDDA0, size: 0x8, addend: 0x0, symName: '__ZN52_$LT$T$u20$as$u20$pyo3..type_object..PyTypeCheck$GT$10type_check17hcb30b8e52790c30aE', symObjAddr: 0x5C58, symBinAddr: 0x36304, symSize: 0x24 }
  - { offset: 0xFEF1E, size: 0x8, addend: 0x0, symName: __ZN4pyo310exceptions11PyTypeError7new_err17h1bc9810d69da8c3fE, symObjAddr: 0x1180, symBinAddr: 0x35028, symSize: 0x28 }
  - { offset: 0xFEF49, size: 0x8, addend: 0x0, symName: __ZN4pyo310exceptions11PyTypeError7new_err17h7be979fe7543459cE, symObjAddr: 0x11A8, symBinAddr: 0x35050, symSize: 0x34 }
  - { offset: 0xFEF75, size: 0x8, addend: 0x0, symName: __ZN4pyo310exceptions11PyTypeError7new_err17h8100669a4174e072E, symObjAddr: 0x11DC, symBinAddr: 0x35084, symSize: 0x34 }
  - { offset: 0xFEFA1, size: 0x8, addend: 0x0, symName: __ZN4pyo310exceptions12PyValueError7new_err17h2a3504d9d524342fE, symObjAddr: 0x1210, symBinAddr: 0x350B8, symSize: 0x28 }
  - { offset: 0xFEFCC, size: 0x8, addend: 0x0, symName: __ZN4pyo310exceptions12PyValueError7new_err17hb546f0dc2acd3e85E, symObjAddr: 0x1290, symBinAddr: 0x350E0, symSize: 0x34 }
  - { offset: 0xFEFF8, size: 0x8, addend: 0x0, symName: __ZN4pyo310exceptions12PyValueError7new_err17hff7d97407b88a74aE, symObjAddr: 0x1320, symBinAddr: 0x35114, symSize: 0x34 }
  - { offset: 0xFF024, size: 0x8, addend: 0x0, symName: __ZN4pyo310exceptions13PyImportError7new_err17h683c582495f59e7eE, symObjAddr: 0x1354, symBinAddr: 0x35148, symSize: 0x28 }
  - { offset: 0xFF04F, size: 0x8, addend: 0x0, symName: __ZN4pyo310exceptions14PyRuntimeError7new_err17h4a251fb28f8c9410E, symObjAddr: 0x137C, symBinAddr: 0x35170, symSize: 0x34 }
  - { offset: 0xFF07B, size: 0x8, addend: 0x0, symName: __ZN4pyo310exceptions15PyOverflowError7new_err17h16b1828fab400a42E, symObjAddr: 0x13D4, symBinAddr: 0x351A4, symSize: 0x34 }
  - { offset: 0xFF0C5, size: 0x8, addend: 0x0, symName: __ZN4pyo33err9err_state10PyErrState10normalized17h40749e480e99c9daE, symObjAddr: 0x2750, symBinAddr: 0x35358, symSize: 0x3C }
  - { offset: 0xFF0F4, size: 0x8, addend: 0x0, symName: __ZN4pyo33err9err_state10PyErrState4lazy17h79e99e3a2bd1b35cE, symObjAddr: 0x278C, symBinAddr: 0x35394, symSize: 0x9C }
  - { offset: 0xFF14A, size: 0x8, addend: 0x0, symName: __ZN4pyo33err9err_state10PyErrState7restore17h5caad02b6f160765E, symObjAddr: 0x2898, symBinAddr: 0x354A0, symSize: 0x84 }
  - { offset: 0xFF1C0, size: 0x8, addend: 0x0, symName: __ZN4pyo33err9err_state10PyErrState9normalize17he1a3ec0a59b6ea01E, symObjAddr: 0x291C, symBinAddr: 0x35524, symSize: 0x8C }
  - { offset: 0xFF243, size: 0x8, addend: 0x0, symName: __ZN4pyo33err9err_state20PyErrStateNormalized10ptraceback17h4bb7469ffbe9014aE, symObjAddr: 0x2AF0, symBinAddr: 0x356F8, symSize: 0x30 }
  - { offset: 0xFF27E, size: 0x8, addend: 0x0, symName: __ZN4pyo33err9err_state20PyErrStateNormalized4take17h74be77d1631f6bb7E, symObjAddr: 0x2B44, symBinAddr: 0x3574C, symSize: 0x24 }
  - { offset: 0xFF2AB, size: 0x8, addend: 0x0, symName: __ZN4pyo33err9err_state20PyErrStateNormalized5ptype17hdfa9f577b12e150bE, symObjAddr: 0x2B7C, symBinAddr: 0x35784, symSize: 0x2C }
  - { offset: 0xFF2E6, size: 0x8, addend: 0x0, symName: __ZN4pyo33err9err_state20PyErrStateNormalized9clone_ref17h4258e249f4517535E, symObjAddr: 0x2BA8, symBinAddr: 0x357B0, symSize: 0x24 }
  - { offset: 0xFF355, size: 0x8, addend: 0x0, symName: __ZN4pyo35impl_7pyclass16PyClassItemsIter3new17hb4a870475c3fb558E, symObjAddr: 0x2D5C, symBinAddr: 0x357D4, symSize: 0x28 }
  - { offset: 0xFF3D1, size: 0x8, addend: 0x0, symName: __ZN4pyo35panic14PanicException15type_object_raw17h8b9e0a095a511b8bE, symObjAddr: 0x375C, symBinAddr: 0x35F14, symSize: 0x2C }
  - { offset: 0xFF42E, size: 0x8, addend: 0x0, symName: __ZN4pyo35panic14PanicException18from_panic_payload17h5399986f8d1af699E, symObjAddr: 0x383C, symBinAddr: 0x76E4C, symSize: 0x144 }
  - { offset: 0xFF48D, size: 0x8, addend: 0x0, symName: __ZN4pyo35panic14PanicException7new_err17h36d7b9b5982bfed8E, symObjAddr: 0x3980, symBinAddr: 0x35FF4, symSize: 0x28 }
  - { offset: 0xFF4CB, size: 0x8, addend: 0x0, symName: __ZN4pyo35panic14PanicException7new_err17head62d35edc795d0E, symObjAddr: 0x39A8, symBinAddr: 0x3601C, symSize: 0x34 }
  - { offset: 0xFF504, size: 0x8, addend: 0x0, symName: __ZN4pyo35types5bytes7PyBytes9new_bound17h71a2db6e4c27d103E, symObjAddr: 0x4218, symBinAddr: 0x36050, symSize: 0x58 }
  - { offset: 0xFF579, size: 0x8, addend: 0x0, symName: __ZN4pyo35types6string8PyString12intern_bound17hbfdeba2205aa5e3bE, symObjAddr: 0x4B78, symBinAddr: 0x360A8, symSize: 0x8C }
  - { offset: 0xFF60B, size: 0x8, addend: 0x0, symName: __ZN4pyo35types6string8PyString9new_bound17h8859ac8230bde505E, symObjAddr: 0x4CB8, symBinAddr: 0x36134, symSize: 0x68 }
  - { offset: 0xFF69A, size: 0x8, addend: 0x0, symName: __ZN4pyo36marker6Python14get_type_bound17h887bee5e36ea6b24E, symObjAddr: 0x5080, symBinAddr: 0x3619C, symSize: 0x1C }
  - { offset: 0xFF6D2, size: 0x8, addend: 0x0, symName: __ZN4pyo36marker6Python14get_type_bound17hc2b7fe41eeea27fbE, symObjAddr: 0x509C, symBinAddr: 0x361B8, symSize: 0x1C }
  - { offset: 0xFF70A, size: 0x8, addend: 0x0, symName: __ZN4pyo36marker6Python19assume_gil_acquired17heda3a921141e8c44E, symObjAddr: 0x50B8, symBinAddr: 0x361D4, symSize: 0x4 }
  - { offset: 0xFF71D, size: 0x8, addend: 0x0, symName: __ZN4pyo36marker6Python4None17hf10ebf8da28bd246E, symObjAddr: 0x50BC, symBinAddr: 0x361D8, symSize: 0x20 }
  - { offset: 0xFF780, size: 0x8, addend: 0x0, symName: __ZN4pyo36marker6Python8with_gil17hb241b5b09ef80ddbE, symObjAddr: 0x59D0, symBinAddr: 0x361F8, symSize: 0xE8 }
  - { offset: 0x100777, size: 0x8, addend: 0x0, symName: '__ZN59_$LT$core..ffi..c_str..CStr$u20$as$u20$core..hash..Hash$GT$4hash17hadbc6c08fd74cc5cE', symObjAddr: 0x6F9C, symBinAddr: 0x39BC8, symSize: 0x30 }
  - { offset: 0x1007BC, size: 0x8, addend: 0x0, symName: '__ZN63_$LT$core..ffi..c_str..CStr$u20$as$u20$core..cmp..PartialEq$GT$2eq17h9451026a8eaa3715E', symObjAddr: 0x7020, symBinAddr: 0x39BF8, symSize: 0x4C }
  - { offset: 0x1010BF, size: 0x8, addend: 0x0, symName: __ZN4core4iter6traits8iterator8Iterator3map17h4306ab2cc0b273abE, symObjAddr: 0x11B0, symBinAddr: 0x36F58, symSize: 0x50 }
  - { offset: 0x101742, size: 0x8, addend: 0x0, symName: '__ZN185_$LT$core..ops..control_flow..ControlFlow$LT$B$C$C$GT$$u20$as$u20$core..ops..try_trait..FromResidual$LT$core..ops..control_flow..ControlFlow$LT$B$C$core..convert..Infallible$GT$$GT$$GT$13from_residual17hc97740bb00ab2d33E', symObjAddr: 0x79C, symBinAddr: 0x36AA8, symSize: 0x18 }
  - { offset: 0x101786, size: 0x8, addend: 0x0, symName: '__ZN95_$LT$core..ops..control_flow..ControlFlow$LT$B$C$C$GT$$u20$as$u20$core..ops..try_trait..Try$GT$11from_output17hcb1bee641f9cf019E', symObjAddr: 0x77F0, symBinAddr: 0x39F3C, symSize: 0x10 }
  - { offset: 0x1017C4, size: 0x8, addend: 0x0, symName: '__ZN95_$LT$core..ops..control_flow..ControlFlow$LT$B$C$C$GT$$u20$as$u20$core..ops..try_trait..Try$GT$6branch17h65c228cbb90e828cE', symObjAddr: 0x7800, symBinAddr: 0x39F4C, symSize: 0x54 }
  - { offset: 0x101F07, size: 0x8, addend: 0x0, symName: '__ZN4core3cmp5impls69_$LT$impl$u20$core..cmp..PartialEq$LT$$RF$B$GT$$u20$for$u20$$RF$A$GT$2eq17h4f237854f6bb1f99E', symObjAddr: 0xB74, symBinAddr: 0x36DD0, symSize: 0x44 }
  - { offset: 0x101F74, size: 0x8, addend: 0x0, symName: __ZN4core3cmp9PartialEq2ne17h2a670001b9b2973bE, symObjAddr: 0xBB8, symBinAddr: 0x36E14, symSize: 0x30 }
  - { offset: 0x10202C, size: 0x8, addend: 0x0, symName: '__ZN4core5slice29_$LT$impl$u20$$u5b$T$u5d$$GT$8contains17h66eba1efff8f80aaE', symObjAddr: 0x135C, symBinAddr: 0x36FA8, symSize: 0x48 }
  - { offset: 0x1021A0, size: 0x8, addend: 0x0, symName: '__ZN53_$LT$T$u20$as$u20$core..slice..cmp..SliceContains$GT$14slice_contains17h2bd0e58d77194cbfE', symObjAddr: 0x6ED0, symBinAddr: 0x39B50, symSize: 0x78 }
  - { offset: 0x102338, size: 0x8, addend: 0x0, symName: '__ZN4core3str21_$LT$impl$u20$str$GT$3len17h83d8963bc1751eedE', symObjAddr: 0xED4, symBinAddr: 0x36ED0, symSize: 0x1C }
  - { offset: 0x102375, size: 0x8, addend: 0x0, symName: '__ZN4core4hash5impls52_$LT$impl$u20$core..hash..Hash$u20$for$u20$$RF$T$GT$4hash17h07c23b057d74a45aE', symObjAddr: 0x1144, symBinAddr: 0x36EEC, symSize: 0x3C }
  - { offset: 0x1023C0, size: 0x8, addend: 0x0, symName: '__ZN4core4hash5impls52_$LT$impl$u20$core..hash..Hash$u20$for$u20$$RF$T$GT$4hash17h236aa880e00551b9E', symObjAddr: 0x1180, symBinAddr: 0x36F28, symSize: 0x30 }
  - { offset: 0x102889, size: 0x8, addend: 0x0, symName: '__ZN4pyo35types5tuple125_$LT$impl$u20$pyo3..conversion..IntoPy$LT$pyo3..instance..Py$LT$pyo3..types..any..PyAny$GT$$GT$$u20$for$u20$$LP$T0$C$$RP$$GT$7into_py17hbe7f712fe2ab27daE', symObjAddr: 0x2988, symBinAddr: 0x37020, symSize: 0x48 }
  - { offset: 0x1028DC, size: 0x8, addend: 0x0, symName: __ZN4pyo35types5tuple16array_into_tuple17h1f1e7a5120aad7caE, symObjAddr: 0x3730, symBinAddr: 0x37068, symSize: 0x1F0 }
  - { offset: 0x102A64, size: 0x8, addend: 0x0, symName: '__ZN107_$LT$pyo3..instance..Bound$LT$pyo3..types..list..PyList$GT$$u20$as$u20$pyo3..types..list..PyListMethods$GT$6append5inner17hd3eac274ccb84d40E', symObjAddr: 0x3E0, symBinAddr: 0x36A0C, symSize: 0x9C }
  - { offset: 0x102AD2, size: 0x8, addend: 0x0, symName: '__ZN75_$LT$pyo3..types..list..PyList$u20$as$u20$pyo3..type_object..PyTypeInfo$GT$16is_type_of_bound17hb71bd330686a3018E', symObjAddr: 0x7098, symBinAddr: 0x39C70, symSize: 0x30 }
  - { offset: 0x102F3E, size: 0x8, addend: 0x0, symName: '__ZN4pyo37pyclass18create_type_object13PyTypeBuilder31finalize_methods_and_properties28_$u7b$$u7b$closure$u7d$$u7d$17hd0dfcd278ddf66f3E', symObjAddr: 0x56C8, symBinAddr: 0x38348, symSize: 0xE8 }
  - { offset: 0x1030D9, size: 0x8, addend: 0x0, symName: __ZN4pyo37pyclass18create_type_object13GetSetDefType21create_py_get_set_def13getset_getter17h3d9b09b96a5db32fE, symObjAddr: 0x4650, symBinAddr: 0x372D0, symSize: 0x94 }
  - { offset: 0x103157, size: 0x8, addend: 0x0, symName: '__ZN4pyo37pyclass18create_type_object13GetSetDefType21create_py_get_set_def13getset_getter28_$u7b$$u7b$closure$u7d$$u7d$17h1e82380b02789976E', symObjAddr: 0x46E4, symBinAddr: 0x37364, symSize: 0x34 }
  - { offset: 0x1031B6, size: 0x8, addend: 0x0, symName: __ZN4pyo37pyclass18create_type_object13GetSetDefType21create_py_get_set_def13getset_setter17ha16d0cc97be319a3E, symObjAddr: 0x4718, symBinAddr: 0x37398, symSize: 0xAC }
  - { offset: 0x103243, size: 0x8, addend: 0x0, symName: '__ZN4pyo37pyclass18create_type_object13GetSetDefType21create_py_get_set_def13getset_setter28_$u7b$$u7b$closure$u7d$$u7d$17h334f64d85f869b99E', symObjAddr: 0x47C4, symBinAddr: 0x37444, symSize: 0x38 }
  - { offset: 0x1032B1, size: 0x8, addend: 0x0, symName: __ZN4pyo37pyclass18create_type_object13GetSetDefType21create_py_get_set_def6getter17h2929e712a5ef994aE, symObjAddr: 0x49A0, symBinAddr: 0x37620, symSize: 0x48 }
  - { offset: 0x103311, size: 0x8, addend: 0x0, symName: '__ZN4pyo37pyclass18create_type_object13GetSetDefType21create_py_get_set_def6getter28_$u7b$$u7b$closure$u7d$$u7d$17h6f38a97462e4978dE', symObjAddr: 0x49E8, symBinAddr: 0x37668, symSize: 0x34 }
  - { offset: 0x103370, size: 0x8, addend: 0x0, symName: __ZN4pyo37pyclass18create_type_object13GetSetDefType21create_py_get_set_def6setter17h14aba090c5c35c65E, symObjAddr: 0x4A1C, symBinAddr: 0x3769C, symSize: 0x5C }
  - { offset: 0x1033DF, size: 0x8, addend: 0x0, symName: '__ZN4pyo37pyclass18create_type_object13GetSetDefType21create_py_get_set_def6setter28_$u7b$$u7b$closure$u7d$$u7d$17h78e6f53cbf50407fE', symObjAddr: 0x4A78, symBinAddr: 0x376F8, symSize: 0x38 }
  - { offset: 0x1036EF, size: 0x8, addend: 0x0, symName: __ZN4pyo37pyclass18create_type_object16call_super_clear17h161755ba41d1a0ecE, symObjAddr: 0x67C8, symBinAddr: 0x39448, symSize: 0x44 }
  - { offset: 0x103722, size: 0x8, addend: 0x0, symName: '__ZN4pyo37pyclass18create_type_object16call_super_clear28_$u7b$$u7b$closure$u7d$$u7d$17hedeb36f70880158fE', symObjAddr: 0x680C, symBinAddr: 0x3948C, symSize: 0x18 }
  - { offset: 0x10376F, size: 0x8, addend: 0x0, symName: __ZN4pyo37pyclass18create_type_object18create_type_object5inner17he8172902e07db235E, symObjAddr: 0x6824, symBinAddr: 0x394A4, symSize: 0x2EC }
  - { offset: 0x10386C, size: 0x8, addend: 0x0, symName: __ZN4pyo37pyclass18create_type_object22no_constructor_defined17h03809d8d4960ca50E, symObjAddr: 0x6B10, symBinAddr: 0x39790, symSize: 0x40 }
  - { offset: 0x1038BD, size: 0x8, addend: 0x0, symName: '__ZN4pyo37pyclass18create_type_object22no_constructor_defined28_$u7b$$u7b$closure$u7d$$u7d$17hf4687705faed9952E', symObjAddr: 0x6B50, symBinAddr: 0x397D0, symSize: 0x144 }
  - { offset: 0x10398D, size: 0x8, addend: 0x0, symName: '__ZN4pyo37pyclass18create_type_object22no_constructor_defined28_$u7b$$u7b$closure$u7d$$u7d$28_$u7b$$u7b$closure$u7d$$u7d$17h1734b866911f322cE', symObjAddr: 0x6C94, symBinAddr: 0x39914, symSize: 0x5C }
  - { offset: 0x1039C6, size: 0x8, addend: 0x0, symName: '__ZN4pyo37pyclass18create_type_object22no_constructor_defined28_$u7b$$u7b$closure$u7d$$u7d$28_$u7b$$u7b$closure$u7d$$u7d$17h524ff63665dc90f6E', symObjAddr: 0x6CF0, symBinAddr: 0x39970, symSize: 0x6C }
  - { offset: 0x103A0C, size: 0x8, addend: 0x0, symName: __ZN4pyo37pyclass18create_type_object23py_class_qualified_name17hf7f102d0ebe30cd8E, symObjAddr: 0x6D5C, symBinAddr: 0x399DC, symSize: 0x150 }
  - { offset: 0x103ACB, size: 0x8, addend: 0x0, symName: '__ZN94_$LT$pyo3..pyclass..create_type_object..GetSetDefBuilder$u20$as$u20$core..default..Default$GT$7default17ha036171fa3d6afb0E', symObjAddr: 0x7788, symBinAddr: 0x39EE8, symSize: 0x54 }
  - { offset: 0x103AF6, size: 0x8, addend: 0x0, symName: '__ZN52_$LT$T$u20$as$u20$pyo3..type_object..PyTypeCheck$GT$10type_check17h7826a3374dcb81ceE', symObjAddr: 0x6EAC, symBinAddr: 0x39B2C, symSize: 0x24 }
  - { offset: 0x1041BF, size: 0x8, addend: 0x0, symName: __ZN8pyo3_ffi7cpython11tupleobject16PyTuple_GET_ITEM17hdf9088a72c2b2ad1E, symObjAddr: 0x72D8, symBinAddr: 0x39CA0, symSize: 0x10C }
  - { offset: 0x10421E, size: 0x8, addend: 0x0, symName: __ZN8pyo3_ffi7cpython11tupleobject16PyTuple_GET_SIZE17h4c8f4f66ad29adb5E, symObjAddr: 0x73E4, symBinAddr: 0x39DAC, symSize: 0x24 }
  - { offset: 0x10424A, size: 0x8, addend: 0x0, symName: __ZN8pyo3_ffi7cpython11tupleobject16PyTuple_SET_ITEM17ha3f4a3638d3a49e4E, symObjAddr: 0x7408, symBinAddr: 0x39DD0, symSize: 0x118 }
  - { offset: 0x104991, size: 0x8, addend: 0x0, symName: '__ZN105_$LT$std..collections..hash..map..Iter$LT$K$C$V$GT$$u20$as$u20$core..iter..traits..iterator..Iterator$GT$4next17hf86451ed9c342eb8E', symObjAddr: 0x350, symBinAddr: 0x369BC, symSize: 0x24 }
  - { offset: 0x1049D1, size: 0x8, addend: 0x0, symName: '__ZN105_$LT$std..collections..hash..map..Iter$LT$K$C$V$GT$$u20$as$u20$core..iter..traits..iterator..Iterator$GT$9size_hint17hd0a50330f77da875E', symObjAddr: 0x374, symBinAddr: 0x369E0, symSize: 0x2C }
  - { offset: 0x104E3C, size: 0x8, addend: 0x0, symName: '__ZN66_$LT$std..thread..id..ThreadId$u20$as$u20$core..cmp..PartialEq$GT$2eq17hd6a619bed322b0d6E', symObjAddr: 0x706C, symBinAddr: 0x39C44, symSize: 0x2C }
  - { offset: 0x10596E, size: 0x8, addend: 0x0, symName: '__ZN3std11collections4hash3map18Entry$LT$K$C$V$GT$10or_default17h50ba9bd77e373852E', symObjAddr: 0x7C8, symBinAddr: 0x36AC0, symSize: 0x190 }
  - { offset: 0x105BCC, size: 0x8, addend: 0x0, symName: '__ZN3std11collections4hash3map20HashMap$LT$K$C$V$GT$3new17hf102d170250d7ad6E', symObjAddr: 0x958, symBinAddr: 0x36C50, symSize: 0x7C }
  - { offset: 0x105CE6, size: 0x8, addend: 0x0, symName: '__ZN3std11collections4hash3map28HashMap$LT$K$C$V$C$S$C$A$GT$3len17hab9e93d4f3f47e87E', symObjAddr: 0x9D4, symBinAddr: 0x36CCC, symSize: 0x18 }
  - { offset: 0x105D90, size: 0x8, addend: 0x0, symName: '__ZN3std11collections4hash3map28HashMap$LT$K$C$V$C$S$C$A$GT$4iter17hf0334d0a384893e6E', symObjAddr: 0x9EC, symBinAddr: 0x36CE4, symSize: 0x44 }
  - { offset: 0x105DE4, size: 0x8, addend: 0x0, symName: '__ZN3std11collections4hash3map28HashMap$LT$K$C$V$C$S$C$A$GT$5entry17hca048c66c646e17fE', symObjAddr: 0xA30, symBinAddr: 0x36D28, symSize: 0xA8 }
  - { offset: 0x105E8C, size: 0x8, addend: 0x0, symName: __ZN4core3ffi5c_str4CStr6as_ptr17h7ede2fea408fbee3E, symObjAddr: 0xBE8, symBinAddr: 0x36E44, symSize: 0x18 }
  - { offset: 0x105EFE, size: 0x8, addend: 0x0, symName: __ZN4core3ffi5c_str4CStr8to_bytes17he45994019d0f92bbE, symObjAddr: 0xC7C, symBinAddr: 0x36E5C, symSize: 0x74 }
  - { offset: 0x106056, size: 0x8, addend: 0x0, symName: __ZN4pyo35types4list6PyList11empty_bound17h42a8dad834f4ab5aE, symObjAddr: 0x2874, symBinAddr: 0x36FF0, symSize: 0x30 }
  - { offset: 0x106090, size: 0x8, addend: 0x0, symName: __ZN4pyo35types5tuple21BorrowedTupleIterator3new17h6c207b9b9a6ee9c4E, symObjAddr: 0x3C3C, symBinAddr: 0x37258, symSize: 0x48 }
  - { offset: 0x1060DE, size: 0x8, addend: 0x0, symName: __ZN4pyo35types5tuple21BorrowedTupleIterator8get_item17h5a6222d2329b9bdeE, symObjAddr: 0x3C84, symBinAddr: 0x372A0, symSize: 0x30 }
  - { offset: 0x106144, size: 0x8, addend: 0x0, symName: __ZN4pyo37pyclass18create_type_object13GetSetDefType21create_py_get_set_def17ha13a4b64462b87daE, symObjAddr: 0x47FC, symBinAddr: 0x3747C, symSize: 0x1A4 }
  - { offset: 0x1062E4, size: 0x8, addend: 0x0, symName: __ZN4pyo37pyclass18create_type_object13PyTypeBuilder11class_items17hbac30f4c875cfe0cE, symObjAddr: 0x4AB0, symBinAddr: 0x37730, symSize: 0x2A8 }
  - { offset: 0x106443, size: 0x8, addend: 0x0, symName: __ZN4pyo37pyclass18create_type_object13PyTypeBuilder12pymethod_def17h18b5df029dba1320E, symObjAddr: 0x4D58, symBinAddr: 0x379D8, symSize: 0x1B4 }
  - { offset: 0x1064E8, size: 0x8, addend: 0x0, symName: __ZN4pyo37pyclass18create_type_object13PyTypeBuilder15set_is_basetype17hd06bda0139ab123dE, symObjAddr: 0x4F0C, symBinAddr: 0x37B8C, symSize: 0x54 }
  - { offset: 0x106599, size: 0x8, addend: 0x0, symName: __ZN4pyo37pyclass18create_type_object13PyTypeBuilder17push_raw_vec_slot17h8eebdd88e4797b10E, symObjAddr: 0x4F60, symBinAddr: 0x37BE0, symSize: 0x1A8 }
  - { offset: 0x10678B, size: 0x8, addend: 0x0, symName: __ZN4pyo37pyclass18create_type_object13PyTypeBuilder17push_raw_vec_slot17ha4b4f3124ac9bb51E, symObjAddr: 0x5108, symBinAddr: 0x37D88, symSize: 0x194 }
  - { offset: 0x106974, size: 0x8, addend: 0x0, symName: __ZN4pyo37pyclass18create_type_object13PyTypeBuilder17push_raw_vec_slot17hd021ac640c6e321cE, symObjAddr: 0x529C, symBinAddr: 0x37F1C, symSize: 0x1A8 }
  - { offset: 0x106AE8, size: 0x8, addend: 0x0, symName: __ZN4pyo37pyclass18create_type_object13PyTypeBuilder31finalize_methods_and_properties17h21e3f7138dd83ae7E, symObjAddr: 0x5444, symBinAddr: 0x380C4, symSize: 0x284 }
  - { offset: 0x106BCB, size: 0x8, addend: 0x0, symName: __ZN4pyo37pyclass18create_type_object13PyTypeBuilder5build17he4b89f850d657b4eE, symObjAddr: 0x57B0, symBinAddr: 0x38430, symSize: 0x780 }
  - { offset: 0x106E3F, size: 0x8, addend: 0x0, symName: __ZN4pyo37pyclass18create_type_object13PyTypeBuilder7offsets17h2f57b56409fa84caE, symObjAddr: 0x5F30, symBinAddr: 0x38BB0, symSize: 0x1E4 }
  - { offset: 0x106EFE, size: 0x8, addend: 0x0, symName: __ZN4pyo37pyclass18create_type_object13PyTypeBuilder8type_doc17h573ac16c29e6c06fE, symObjAddr: 0x6114, symBinAddr: 0x38D94, symSize: 0xE0 }
  - { offset: 0x106F47, size: 0x8, addend: 0x0, symName: __ZN4pyo37pyclass18create_type_object13PyTypeBuilder9push_slot17h18946eb78d3f959dE, symObjAddr: 0x61F4, symBinAddr: 0x38E74, symSize: 0x10C }
  - { offset: 0x106F8E, size: 0x8, addend: 0x0, symName: __ZN4pyo37pyclass18create_type_object13PyTypeBuilder9push_slot17h9db738dfe0c33a85E, symObjAddr: 0x6300, symBinAddr: 0x38F80, symSize: 0x10C }
  - { offset: 0x106FD5, size: 0x8, addend: 0x0, symName: __ZN4pyo37pyclass18create_type_object13PyTypeBuilder9push_slot17hb1ea443f89121a6bE, symObjAddr: 0x640C, symBinAddr: 0x3908C, symSize: 0x10C }
  - { offset: 0x107029, size: 0x8, addend: 0x0, symName: __ZN4pyo37pyclass18create_type_object16GetSetDefBuilder10add_getter17h7f4ad4916633fe41E, symObjAddr: 0x6518, symBinAddr: 0x39198, symSize: 0x64 }
  - { offset: 0x107068, size: 0x8, addend: 0x0, symName: __ZN4pyo37pyclass18create_type_object16GetSetDefBuilder10add_setter17h4765b33a767e6a2dE, symObjAddr: 0x657C, symBinAddr: 0x391FC, symSize: 0x64 }
  - { offset: 0x1070B8, size: 0x8, addend: 0x0, symName: __ZN4pyo37pyclass18create_type_object16GetSetDefBuilder14as_get_set_def17h60b4ba0d4e843632E, symObjAddr: 0x65E0, symBinAddr: 0x39260, symSize: 0x1E8 }
  - { offset: 0x107B66, size: 0x8, addend: 0x0, symName: '__ZN63_$LT$alloc..alloc..Global$u20$as$u20$core..alloc..Allocator$GT$10deallocate17h59d8da551bfccbbaE', symObjAddr: 0x6B34, symBinAddr: 0x3E1F8, symSize: 0x58 }
  - { offset: 0x107C34, size: 0x8, addend: 0x0, symName: '__ZN63_$LT$alloc..alloc..Global$u20$as$u20$core..alloc..Allocator$GT$6shrink17h1e7ed2cdf2a9adf3E', symObjAddr: 0x6B8C, symBinAddr: 0x3E250, symSize: 0x44 }
  - { offset: 0x107CC5, size: 0x8, addend: 0x0, symName: '__ZN63_$LT$alloc..alloc..Global$u20$as$u20$core..alloc..Allocator$GT$8allocate17h3dfa9eae45b150ffE', symObjAddr: 0x6BD0, symBinAddr: 0x3E294, symSize: 0x40 }
  - { offset: 0x107D31, size: 0x8, addend: 0x0, symName: __ZN5alloc5alloc15exchange_malloc17h9c5b7d7cfa74b182E, symObjAddr: 0x655C, symBinAddr: 0x3DC80, symSize: 0xB0 }
  - { offset: 0x1087EA, size: 0x8, addend: 0x0, symName: '__ZN4core3ptr101drop_in_place$LT$core..option..Option$LT$pyo3..pyclass..create_type_object..PyClassTypeObject$GT$$GT$17h337f01ce2c847004E', symObjAddr: 0x17E0, symBinAddr: 0x3ADA4, symSize: 0x48 }
  - { offset: 0x108819, size: 0x8, addend: 0x0, symName: '__ZN4core3ptr101drop_in_place$LT$std..sys..sync..once_box..OnceBox$LT$std..sys..pal..unix..sync..mutex..Mutex$GT$$GT$17he38aada0326396e6E', symObjAddr: 0x18B8, symBinAddr: 0x3ADEC, symSize: 0x24 }
  - { offset: 0x108848, size: 0x8, addend: 0x0, symName: '__ZN4core3ptr104drop_in_place$LT$core..option..Option$LT$pyo3..instance..Py$LT$pyo3..types..module..PyModule$GT$$GT$$GT$17h8070e2826705b6c9E', symObjAddr: 0x1924, symBinAddr: 0x3AE10, symSize: 0x44 }
  - { offset: 0x108877, size: 0x8, addend: 0x0, symName: '__ZN4core3ptr104drop_in_place$LT$core..option..Option$LT$pyo3..instance..Py$LT$pyo3..types..string..PyString$GT$$GT$$GT$17h712fc83ab5a8abfaE', symObjAddr: 0x1968, symBinAddr: 0x3AE54, symSize: 0x44 }
  - { offset: 0x1088A6, size: 0x8, addend: 0x0, symName: '__ZN4core3ptr105drop_in_place$LT$alloc..raw_vec..RawVec$LT$pyo3..pyclass..create_type_object..GetSetDefDestructor$GT$$GT$17hd74055373f51ece0E', symObjAddr: 0x19AC, symBinAddr: 0x3AE98, symSize: 0x24 }
  - { offset: 0x1088D5, size: 0x8, addend: 0x0, symName: '__ZN4core3ptr106drop_in_place$LT$alloc..vec..Vec$LT$core..ptr..non_null..NonNull$LT$pyo3_ffi..object..PyObject$GT$$GT$$GT$17h1cb1bd479f2f7a53E', symObjAddr: 0x19D0, symBinAddr: 0x3AEBC, symSize: 0x5C }
  - { offset: 0x108904, size: 0x8, addend: 0x0, symName: '__ZN4core3ptr106drop_in_place$LT$core..option..Option$LT$pyo3..instance..Py$LT$pyo3..types..typeobject..PyType$GT$$GT$$GT$17h18c3b0d49eddbd41E', symObjAddr: 0x1A2C, symBinAddr: 0x3AF18, symSize: 0x44 }
  - { offset: 0x108933, size: 0x8, addend: 0x0, symName: '__ZN4core3ptr107drop_in_place$LT$$LP$$RF$core..ffi..c_str..CStr$C$pyo3..instance..Py$LT$pyo3..types..any..PyAny$GT$$RP$$GT$17h68fa6473c16fd2d1E', symObjAddr: 0x1A70, symBinAddr: 0x3AF5C, symSize: 0x24 }
  - { offset: 0x108962, size: 0x8, addend: 0x0, symName: '__ZN4core3ptr107drop_in_place$LT$core..pin..Pin$LT$alloc..boxed..Box$LT$std..sys..pal..unix..sync..mutex..Mutex$GT$$GT$$GT$17hae61faf73e57ae80E', symObjAddr: 0x1A94, symBinAddr: 0x3AF80, symSize: 0x24 }
  - { offset: 0x108991, size: 0x8, addend: 0x0, symName: '__ZN4core3ptr108drop_in_place$LT$core..option..Option$LT$pyo3..instance..Py$LT$pyo3..exceptions..PyBaseException$GT$$GT$$GT$17h6c955cb17550fd46E', symObjAddr: 0x1B1C, symBinAddr: 0x3AFA4, symSize: 0x44 }
  - { offset: 0x1089C0, size: 0x8, addend: 0x0, symName: '__ZN4core3ptr111drop_in_place$LT$core..cell..UnsafeCell$LT$core..option..Option$LT$pyo3..err..err_state..PyErrState$GT$$GT$$GT$17h7ed52c1d6bee28d8E', symObjAddr: 0x1BC8, symBinAddr: 0x3AFE8, symSize: 0x24 }
  - { offset: 0x1089EF, size: 0x8, addend: 0x0, symName: '__ZN4core3ptr112drop_in_place$LT$core..result..Result$LT$$LP$$RP$$C$pyo3..pyclass..create_type_object..PyClassTypeObject$GT$$GT$17h821857b244a740feE', symObjAddr: 0x1BEC, symBinAddr: 0x3B00C, symSize: 0x48 }
  - { offset: 0x108A1E, size: 0x8, addend: 0x0, symName: '__ZN4core3ptr113drop_in_place$LT$alloc..raw_vec..RawVec$LT$core..ptr..non_null..NonNull$LT$pyo3_ffi..object..PyObject$GT$$GT$$GT$17h0a3e5e895d2a29eeE', symObjAddr: 0x1C34, symBinAddr: 0x3B054, symSize: 0x24 }
  - { offset: 0x108A4D, size: 0x8, addend: 0x0, symName: '__ZN4core3ptr113drop_in_place$LT$core..option..Option$LT$pyo3..instance..Bound$LT$pyo3..types..traceback..PyTraceback$GT$$GT$$GT$17hb279389a56585ed0E', symObjAddr: 0x1C58, symBinAddr: 0x3B078, symSize: 0x44 }
  - { offset: 0x108A7C, size: 0x8, addend: 0x0, symName: '__ZN4core3ptr114drop_in_place$LT$pyo3..impl_..pyclass..lazy_type_object..LazyTypeObjectInner..ensure_init..InitializationGuard$GT$17h86a2c7c6a9295c2fE', symObjAddr: 0x1C9C, symBinAddr: 0x3B0BC, symSize: 0x24 }
  - { offset: 0x108AAB, size: 0x8, addend: 0x0, symName: '__ZN4core3ptr115drop_in_place$LT$core..array..iter..IntoIter$LT$pyo3..instance..Py$LT$pyo3..types..any..PyAny$GT$$C$1_usize$GT$$GT$17h66722426d32c111dE', symObjAddr: 0x1CC0, symBinAddr: 0x3B0E0, symSize: 0x24 }
  - { offset: 0x108ADA, size: 0x8, addend: 0x0, symName: '__ZN4core3ptr115drop_in_place$LT$core..result..Result$LT$$LP$$RP$$C$pyo3..instance..Py$LT$pyo3..types..module..PyModule$GT$$GT$$GT$17h98befb1df752b1c0E', symObjAddr: 0x1D08, symBinAddr: 0x3B104, symSize: 0x44 }
  - { offset: 0x108B09, size: 0x8, addend: 0x0, symName: '__ZN4core3ptr115drop_in_place$LT$core..result..Result$LT$$LP$$RP$$C$pyo3..instance..Py$LT$pyo3..types..string..PyString$GT$$GT$$GT$17hb6b833abb8381645E', symObjAddr: 0x1D4C, symBinAddr: 0x3B148, symSize: 0x44 }
  - { offset: 0x108B38, size: 0x8, addend: 0x0, symName: '__ZN4core3ptr117drop_in_place$LT$$u5b$$LP$$RF$core..ffi..c_str..CStr$C$pyo3..instance..Py$LT$pyo3..types..any..PyAny$GT$$RP$$u5d$$GT$17h31e4a248ab307d94E', symObjAddr: 0x1D90, symBinAddr: 0x3B18C, symSize: 0xC4 }
  - { offset: 0x108B67, size: 0x8, addend: 0x0, symName: '__ZN4core3ptr117drop_in_place$LT$core..result..Result$LT$$LP$$RP$$C$pyo3..instance..Py$LT$pyo3..types..typeobject..PyType$GT$$GT$$GT$17h57462113e45c113fE', symObjAddr: 0x1E54, symBinAddr: 0x3B250, symSize: 0x44 }
  - { offset: 0x108B96, size: 0x8, addend: 0x0, symName: '__ZN4core3ptr122drop_in_place$LT$alloc..vec..into_iter..IntoIter$LT$core..ptr..non_null..NonNull$LT$pyo3_ffi..object..PyObject$GT$$GT$$GT$17hb0f12b62d5ef1131E', symObjAddr: 0x1F68, symBinAddr: 0x3B294, symSize: 0x24 }
  - { offset: 0x108BC5, size: 0x8, addend: 0x0, symName: '__ZN4core3ptr122drop_in_place$LT$pyo3..impl_..pyclass..lazy_type_object..LazyTypeObjectInner..ensure_init..$u7b$$u7b$closure$u7d$$u7d$$GT$17h1b4d9a71e1a6d55eE', symObjAddr: 0x1F8C, symBinAddr: 0x3B2B8, symSize: 0x60 }
  - { offset: 0x108BF4, size: 0x8, addend: 0x0, symName: '__ZN4core3ptr126drop_in_place$LT$core..result..Result$LT$pyo3..instance..Bound$LT$pyo3..types..string..PyString$GT$$C$pyo3..err..PyErr$GT$$GT$17hfb51fa4ca0c6d97cE', symObjAddr: 0x1FEC, symBinAddr: 0x3B318, symSize: 0x50 }
  - { offset: 0x108C23, size: 0x8, addend: 0x0, symName: '__ZN4core3ptr129drop_in_place$LT$alloc..vec..Vec$LT$T$C$A$GT$..retain_mut..PanicGuard$LT$std..thread..id..ThreadId$C$alloc..alloc..Global$GT$$GT$17h0049623d64840c2fE', symObjAddr: 0x2060, symBinAddr: 0x3B368, symSize: 0x24 }
  - { offset: 0x108C52, size: 0x8, addend: 0x0, symName: '__ZN4core3ptr130drop_in_place$LT$alloc..vec..Vec$LT$$LP$$RF$core..ffi..c_str..CStr$C$pyo3..instance..Py$LT$pyo3..types..any..PyAny$GT$$RP$$GT$$GT$17hefe39594c1a1020eE', symObjAddr: 0x2084, symBinAddr: 0x3B38C, symSize: 0x5C }
  - { offset: 0x108C81, size: 0x8, addend: 0x0, symName: '__ZN4core3ptr132drop_in_place$LT$pyo3..err..PyErr..new$LT$pyo3..exceptions..PyTypeError$C$alloc..string..String$GT$..$u7b$$u7b$closure$u7d$$u7d$$GT$17hd7f19f7a6faa7aa9E', symObjAddr: 0x2104, symBinAddr: 0x3B3E8, symSize: 0x24 }
  - { offset: 0x108CB0, size: 0x8, addend: 0x0, symName: '__ZN4core3ptr133drop_in_place$LT$core..result..Result$LT$$RF$pyo3..instance..Bound$LT$pyo3..types..num..PyLong$GT$$C$pyo3..err..DowncastError$GT$$GT$17h34ae01dd425645c8E', symObjAddr: 0x2128, symBinAddr: 0x3B40C, symSize: 0x48 }
  - { offset: 0x108CDF, size: 0x8, addend: 0x0, symName: '__ZN4core3ptr133drop_in_place$LT$pyo3..err..PyErr..new$LT$pyo3..exceptions..PyValueError$C$alloc..string..String$GT$..$u7b$$u7b$closure$u7d$$u7d$$GT$17hf0630cfbe540ee83E', symObjAddr: 0x2170, symBinAddr: 0x3B454, symSize: 0x24 }
  - { offset: 0x108D0E, size: 0x8, addend: 0x0, symName: '__ZN4core3ptr135drop_in_place$LT$core..option..Option$LT$core..pin..Pin$LT$alloc..boxed..Box$LT$std..sys..pal..unix..sync..mutex..Mutex$GT$$GT$$GT$$GT$17h59074747796502a5E', symObjAddr: 0x21B8, symBinAddr: 0x3B478, symSize: 0x44 }
  - { offset: 0x108D3D, size: 0x8, addend: 0x0, symName: '__ZN4core3ptr135drop_in_place$LT$pyo3..err..PyErr..new$LT$pyo3..exceptions..PyRuntimeError$C$alloc..string..String$GT$..$u7b$$u7b$closure$u7d$$u7d$$GT$17h23484768377add22E', symObjAddr: 0x2244, symBinAddr: 0x3B4BC, symSize: 0x24 }
  - { offset: 0x108D6C, size: 0x8, addend: 0x0, symName: '__ZN4core3ptr136drop_in_place$LT$core..cell..UnsafeCell$LT$alloc..vec..Vec$LT$core..ptr..non_null..NonNull$LT$pyo3_ffi..object..PyObject$GT$$GT$$GT$$GT$17h18333a5c90be33f4E', symObjAddr: 0x228C, symBinAddr: 0x3B4E0, symSize: 0x24 }
  - { offset: 0x108D9B, size: 0x8, addend: 0x0, symName: '__ZN4core3ptr136drop_in_place$LT$pyo3..err..PyErr..new$LT$pyo3..exceptions..PyOverflowError$C$alloc..string..String$GT$..$u7b$$u7b$closure$u7d$$u7d$$GT$17h4b6e8c403d1edc24E', symObjAddr: 0x2364, symBinAddr: 0x3B504, symSize: 0x24 }
  - { offset: 0x108DCA, size: 0x8, addend: 0x0, symName: '__ZN4core3ptr137drop_in_place$LT$alloc..raw_vec..RawVec$LT$$LP$$RF$core..ffi..c_str..CStr$C$pyo3..instance..Py$LT$pyo3..types..any..PyAny$GT$$RP$$GT$$GT$17h13ba6ccbf7f08c97E', symObjAddr: 0x2388, symBinAddr: 0x3B528, symSize: 0x24 }
  - { offset: 0x108DF9, size: 0x8, addend: 0x0, symName: '__ZN4core3ptr139drop_in_place$LT$pyo3..err..PyErr..new$LT$pyo3..exceptions..PyValueError$C$alloc..ffi..c_str..NulError$GT$..$u7b$$u7b$closure$u7d$$u7d$$GT$17h589ccc4e97bfcee8E', symObjAddr: 0x2460, symBinAddr: 0x3B54C, symSize: 0x24 }
  - { offset: 0x108E28, size: 0x8, addend: 0x0, symName: '__ZN4core3ptr141drop_in_place$LT$hashbrown..raw..RawTable$LT$$LP$$RF$core..ffi..c_str..CStr$C$pyo3..pyclass..create_type_object..GetSetDefBuilder$RP$$GT$$GT$17he7078f888e48e2c8E', symObjAddr: 0x24A8, symBinAddr: 0x3B570, symSize: 0x24 }
  - { offset: 0x108E57, size: 0x8, addend: 0x0, symName: '__ZN4core3ptr141drop_in_place$LT$pyo3..err..PyErr..new$LT$pyo3..panic..PanicException$C$$LP$alloc..string..String$C$$RP$$GT$..$u7b$$u7b$closure$u7d$$u7d$$GT$17hf38bfc26b28241beE', symObjAddr: 0x24CC, symBinAddr: 0x3B594, symSize: 0x24 }
  - { offset: 0x108E86, size: 0x8, addend: 0x0, symName: '__ZN4core3ptr145drop_in_place$LT$pyo3..err..err_state..PyErrState..lazy$LT$pyo3..instance..Py$LT$pyo3..types..any..PyAny$GT$$GT$..$u7b$$u7b$closure$u7d$$u7d$$GT$17hd97a7edb7a6b91d7E', symObjAddr: 0x25A4, symBinAddr: 0x3B5B8, symSize: 0x60 }
  - { offset: 0x108EB5, size: 0x8, addend: 0x0, symName: '__ZN4core3ptr145drop_in_place$LT$std..collections..hash..map..HashMap$LT$$RF$core..ffi..c_str..CStr$C$pyo3..pyclass..create_type_object..GetSetDefBuilder$GT$$GT$17h014d5b6e15dc378bE', symObjAddr: 0x2604, symBinAddr: 0x3B618, symSize: 0x24 }
  - { offset: 0x108EE4, size: 0x8, addend: 0x0, symName: '__ZN4core3ptr145drop_in_place$LT$std..sync..poison..mutex..Mutex$LT$alloc..vec..Vec$LT$core..ptr..non_null..NonNull$LT$pyo3_ffi..object..PyObject$GT$$GT$$GT$$GT$17h654b7515320ea2fdE', symObjAddr: 0x2628, symBinAddr: 0x3B63C, symSize: 0x60 }
  - { offset: 0x108F13, size: 0x8, addend: 0x0, symName: '__ZN4core3ptr146drop_in_place$LT$alloc..vec..into_iter..IntoIter$LT$$LP$$RF$core..ffi..c_str..CStr$C$pyo3..instance..Py$LT$pyo3..types..any..PyAny$GT$$RP$$GT$$GT$17h98ebdce088e18cefE', symObjAddr: 0x2688, symBinAddr: 0x3B69C, symSize: 0x24 }
  - { offset: 0x108F42, size: 0x8, addend: 0x0, symName: '__ZN4core3ptr146drop_in_place$LT$pyo3..err..PyErr..new$LT$pyo3..exceptions..PyTypeError$C$pyo3..err..PyDowncastErrorArguments$GT$..$u7b$$u7b$closure$u7d$$u7d$$GT$17h0dcc670af46e8617E', symObjAddr: 0x26AC, symBinAddr: 0x3B6C0, symSize: 0x24 }
  - { offset: 0x108F71, size: 0x8, addend: 0x0, symName: '__ZN4core3ptr150drop_in_place$LT$std..sync..poison..mutex..MutexGuard$LT$alloc..vec..Vec$LT$core..ptr..non_null..NonNull$LT$pyo3_ffi..object..PyObject$GT$$GT$$GT$$GT$17h6b54db28b81802c3E', symObjAddr: 0x26F4, symBinAddr: 0x3B6E4, symSize: 0x24 }
  - { offset: 0x108FA0, size: 0x8, addend: 0x0, symName: '__ZN4core3ptr165drop_in_place$LT$core..iter..adapters..enumerate..Enumerate$LT$core..array..iter..IntoIter$LT$pyo3..instance..Py$LT$pyo3..types..any..PyAny$GT$$C$1_usize$GT$$GT$$GT$17h6ad160175110d445E', symObjAddr: 0x273C, symBinAddr: 0x3B708, symSize: 0x24 }
  - { offset: 0x108FCF, size: 0x8, addend: 0x0, symName: '__ZN4core3ptr165drop_in_place$LT$hashbrown..map..HashMap$LT$$RF$core..ffi..c_str..CStr$C$pyo3..pyclass..create_type_object..GetSetDefBuilder$C$std..hash..random..RandomState$GT$$GT$17h9a69a8080cbd1cbcE', symObjAddr: 0x2784, symBinAddr: 0x3B72C, symSize: 0x24 }
  - { offset: 0x108FFE, size: 0x8, addend: 0x0, symName: '__ZN4core3ptr181drop_in_place$LT$hashbrown..scopeguard..ScopeGuard$LT$$RF$mut$u20$hashbrown..raw..RawTableInner$C$hashbrown..raw..RawTableInner..rehash_in_place..$u7b$$u7b$closure$u7d$$u7d$$GT$$GT$17ha6fdefbaa847d9e1E', symObjAddr: 0x27A8, symBinAddr: 0x3B750, symSize: 0x24 }
  - { offset: 0x10902D, size: 0x8, addend: 0x0, symName: '__ZN4core3ptr188drop_in_place$LT$std..sync..poison..PoisonError$LT$std..sync..poison..mutex..MutexGuard$LT$alloc..vec..Vec$LT$core..ptr..non_null..NonNull$LT$pyo3_ffi..object..PyObject$GT$$GT$$GT$$GT$$GT$17h3f58201151455f95E', symObjAddr: 0x27CC, symBinAddr: 0x3B774, symSize: 0x24 }
  - { offset: 0x10905C, size: 0x8, addend: 0x0, symName: '__ZN4core3ptr189drop_in_place$LT$core..array..iter..iter_inner..PolymorphicIter$LT$$u5b$core..mem..maybe_uninit..MaybeUninit$LT$pyo3..instance..Py$LT$pyo3..types..any..PyAny$GT$$GT$$u3b$$u20$1$u5d$$GT$$GT$17h3d5b207a2ad52fc5E', symObjAddr: 0x27F0, symBinAddr: 0x3B798, symSize: 0x24 }
  - { offset: 0x10908B, size: 0x8, addend: 0x0, symName: '__ZN4core3ptr196drop_in_place$LT$hashbrown..scopeguard..ScopeGuard$LT$hashbrown..raw..RawTableInner$C$hashbrown..raw..RawTableInner..prepare_resize$LT$alloc..alloc..Global$GT$..$u7b$$u7b$closure$u7d$$u7d$$GT$$GT$17hb3ce35548d30bda4E', symObjAddr: 0x2838, symBinAddr: 0x3B7BC, symSize: 0x24 }
  - { offset: 0x1090BA, size: 0x8, addend: 0x0, symName: '__ZN4core3ptr216drop_in_place$LT$$LT$alloc..vec..into_iter..IntoIter$LT$T$C$A$GT$$u20$as$u20$core..ops..drop..Drop$GT$..drop..DropGuard$LT$core..ptr..non_null..NonNull$LT$pyo3_ffi..object..PyObject$GT$$C$alloc..alloc..Global$GT$$GT$17h407526d387225062E', symObjAddr: 0x28EC, symBinAddr: 0x3B7E0, symSize: 0x24 }
  - { offset: 0x1090E9, size: 0x8, addend: 0x0, symName: '__ZN4core3ptr233drop_in_place$LT$alloc..boxed..Box$LT$dyn$u20$core..ops..function..Fn$LT$$LP$$RF$pyo3..pyclass..create_type_object..PyTypeBuilder$C$$BP$mut$u20$pyo3_ffi..cpython..object..PyTypeObject$RP$$GT$$u2b$Output$u20$$u3d$$u20$$LP$$RP$$GT$$GT$17hb9b099259e133e34E', symObjAddr: 0x2910, symBinAddr: 0x3B804, symSize: 0x80 }
  - { offset: 0x109118, size: 0x8, addend: 0x0, symName: '__ZN4core3ptr236drop_in_place$LT$alloc..boxed..Box$LT$dyn$u20$core..ops..function..FnOnce$LT$$LP$pyo3..marker..Python$C$$RP$$GT$$u2b$Output$u20$$u3d$$u20$pyo3..err..err_state..PyErrStateLazyFnOutput$u2b$core..marker..Sync$u2b$core..marker..Send$GT$$GT$17hce4449c3a89fbd0eE', symObjAddr: 0x2990, symBinAddr: 0x3B884, symSize: 0x80 }
  - { offset: 0x109147, size: 0x8, addend: 0x0, symName: '__ZN4core3ptr240drop_in_place$LT$$LT$alloc..vec..into_iter..IntoIter$LT$T$C$A$GT$$u20$as$u20$core..ops..drop..Drop$GT$..drop..DropGuard$LT$$LP$$RF$core..ffi..c_str..CStr$C$pyo3..instance..Py$LT$pyo3..types..any..PyAny$GT$$RP$$C$alloc..alloc..Global$GT$$GT$17h87d6b46c0119475eE', symObjAddr: 0x2A10, symBinAddr: 0x3B904, symSize: 0x24 }
  - { offset: 0x109176, size: 0x8, addend: 0x0, symName: '__ZN4core3ptr243drop_in_place$LT$$u5b$alloc..boxed..Box$LT$dyn$u20$core..ops..function..Fn$LT$$LP$$RF$pyo3..pyclass..create_type_object..PyTypeBuilder$C$$BP$mut$u20$pyo3_ffi..cpython..object..PyTypeObject$RP$$GT$$u2b$Output$u20$$u3d$$u20$$LP$$RP$$GT$$u5d$$GT$17h9607503214443102E', symObjAddr: 0x2A34, symBinAddr: 0x3B928, symSize: 0xB4 }
  - { offset: 0x1091A5, size: 0x8, addend: 0x0, symName: '__ZN4core3ptr256drop_in_place$LT$alloc..vec..Vec$LT$alloc..boxed..Box$LT$dyn$u20$core..ops..function..Fn$LT$$LP$$RF$pyo3..pyclass..create_type_object..PyTypeBuilder$C$$BP$mut$u20$pyo3_ffi..cpython..object..PyTypeObject$RP$$GT$$u2b$Output$u20$$u3d$$u20$$LP$$RP$$GT$$GT$$GT$17h4badbd5b9be1335eE', symObjAddr: 0x2AE8, symBinAddr: 0x3B9DC, symSize: 0x5C }
  - { offset: 0x1091D4, size: 0x8, addend: 0x0, symName: '__ZN4core3ptr263drop_in_place$LT$alloc..raw_vec..RawVec$LT$alloc..boxed..Box$LT$dyn$u20$core..ops..function..Fn$LT$$LP$$RF$pyo3..pyclass..create_type_object..PyTypeBuilder$C$$BP$mut$u20$pyo3_ffi..cpython..object..PyTypeObject$RP$$GT$$u2b$Output$u20$$u3d$$u20$$LP$$RP$$GT$$GT$$GT$17hf3808fb4ac2c327aE', symObjAddr: 0x2B44, symBinAddr: 0x3BA38, symSize: 0x24 }
  - { offset: 0x109203, size: 0x8, addend: 0x0, symName: '__ZN4core3ptr272drop_in_place$LT$alloc..vec..into_iter..IntoIter$LT$alloc..boxed..Box$LT$dyn$u20$core..ops..function..Fn$LT$$LP$$RF$pyo3..pyclass..create_type_object..PyTypeBuilder$C$$BP$mut$u20$pyo3_ffi..cpython..object..PyTypeObject$RP$$GT$$u2b$Output$u20$$u3d$$u20$$LP$$RP$$GT$$GT$$GT$17hbe4e238820a96993E', symObjAddr: 0x2B8C, symBinAddr: 0x3BA5C, symSize: 0x24 }
  - { offset: 0x109232, size: 0x8, addend: 0x0, symName: '__ZN4core3ptr366drop_in_place$LT$$LT$alloc..vec..into_iter..IntoIter$LT$T$C$A$GT$$u20$as$u20$core..ops..drop..Drop$GT$..drop..DropGuard$LT$alloc..boxed..Box$LT$dyn$u20$core..ops..function..Fn$LT$$LP$$RF$pyo3..pyclass..create_type_object..PyTypeBuilder$C$$BP$mut$u20$pyo3_ffi..cpython..object..PyTypeObject$RP$$GT$$u2b$Output$u20$$u3d$$u20$$LP$$RP$$GT$$C$alloc..alloc..Global$GT$$GT$17h0a66cd2bc8b20f52E', symObjAddr: 0x2BB0, symBinAddr: 0x3BA80, symSize: 0x24 }
  - { offset: 0x109261, size: 0x8, addend: 0x0, symName: '__ZN4core3ptr37drop_in_place$LT$pyo3..err..PyErr$GT$17h93d57a576061918eE', symObjAddr: 0x2BD4, symBinAddr: 0x3BAA4, symSize: 0x24 }
  - { offset: 0x109290, size: 0x8, addend: 0x0, symName: '__ZN4core3ptr40drop_in_place$LT$pyo3..gil..GILGuard$GT$17h5278bcda7b565ccaE', symObjAddr: 0x2BF8, symBinAddr: 0x3BAC8, symSize: 0x60 }
  - { offset: 0x1092BF, size: 0x8, addend: 0x0, symName: '__ZN4core3ptr42drop_in_place$LT$alloc..string..String$GT$17h4d910dc2b4f2ab21E', symObjAddr: 0x2C7C, symBinAddr: 0x3BB28, symSize: 0x24 }
  - { offset: 0x1092EE, size: 0x8, addend: 0x0, symName: '__ZN4core3ptr45drop_in_place$LT$core..cell..BorrowRefMut$GT$17h1d19af5a571b32fbE', symObjAddr: 0x2CE8, symBinAddr: 0x3BB4C, symSize: 0x24 }
  - { offset: 0x10931D, size: 0x8, addend: 0x0, symName: '__ZN4core3ptr45drop_in_place$LT$pyo3..err..DowncastError$GT$17hc978036174bef3d5E', symObjAddr: 0x2D0C, symBinAddr: 0x3BB70, symSize: 0x24 }
  - { offset: 0x10934C, size: 0x8, addend: 0x0, symName: '__ZN4core3ptr45drop_in_place$LT$pyo3..gil..ReferencePool$GT$17h9f4f460360fbeadbE', symObjAddr: 0x2D30, symBinAddr: 0x3BB94, symSize: 0x24 }
  - { offset: 0x10937B, size: 0x8, addend: 0x0, symName: '__ZN4core3ptr50drop_in_place$LT$alloc..borrow..Cow$LT$str$GT$$GT$17h3c7af2dbf7f37f4fE', symObjAddr: 0x2DE4, symBinAddr: 0x3BBB8, symSize: 0x48 }
  - { offset: 0x1093AA, size: 0x8, addend: 0x0, symName: '__ZN4core3ptr50drop_in_place$LT$pyo3..impl_..panic..PanicTrap$GT$17hb698350524105facE', symObjAddr: 0x2E2C, symBinAddr: 0x3BC00, symSize: 0x24 }
  - { offset: 0x1093D9, size: 0x8, addend: 0x0, symName: '__ZN4core3ptr51drop_in_place$LT$alloc..vec..Vec$LT$$RF$str$GT$$GT$17h2f7943c75b82b012E', symObjAddr: 0x2E50, symBinAddr: 0x3BC24, symSize: 0x5C }
  - { offset: 0x109408, size: 0x8, addend: 0x0, symName: '__ZN4core3ptr53drop_in_place$LT$$LP$alloc..string..String$C$$RP$$GT$17h9ce1698998097998E', symObjAddr: 0x2EAC, symBinAddr: 0x3BC80, symSize: 0x24 }
  - { offset: 0x109437, size: 0x8, addend: 0x0, symName: '__ZN4core3ptr53drop_in_place$LT$pyo3..err..err_state..PyErrState$GT$17h44336f71b98465ffE', symObjAddr: 0x2ED0, symBinAddr: 0x3BCA4, symSize: 0x58 }
  - { offset: 0x109466, size: 0x8, addend: 0x0, symName: '__ZN4core3ptr56drop_in_place$LT$pyo3..err..PyDowncastErrorArguments$GT$17h4d31e594b7ffcc31E', symObjAddr: 0x2F4C, symBinAddr: 0x3BCFC, symSize: 0x5C }
  - { offset: 0x109495, size: 0x8, addend: 0x0, symName: '__ZN4core3ptr58drop_in_place$LT$alloc..raw_vec..RawVec$LT$$RF$str$GT$$GT$17h855469955b5f5351E', symObjAddr: 0x2FF0, symBinAddr: 0x3BD58, symSize: 0x24 }
  - { offset: 0x1094C4, size: 0x8, addend: 0x0, symName: '__ZN4core3ptr58drop_in_place$LT$std..sys..sync..mutex..pthread..Mutex$GT$17h61ab19ca9affe871E', symObjAddr: 0x3014, symBinAddr: 0x3BD7C, symSize: 0x5C }
  - { offset: 0x1094F3, size: 0x8, addend: 0x0, symName: '__ZN4core3ptr60drop_in_place$LT$std..sys..pal..unix..sync..mutex..Mutex$GT$17h997787248c3ebe8cE', symObjAddr: 0x30B8, symBinAddr: 0x3BDD8, symSize: 0x24 }
  - { offset: 0x109522, size: 0x8, addend: 0x0, symName: '__ZN4core3ptr63drop_in_place$LT$pyo3..err..err_state..PyErrStateNormalized$GT$17ha31aab980adc77b3E', symObjAddr: 0x30DC, symBinAddr: 0x3BDFC, symSize: 0x24 }
  - { offset: 0x109551, size: 0x8, addend: 0x0, symName: '__ZN4core3ptr65drop_in_place$LT$core..option..Option$LT$pyo3..err..PyErr$GT$$GT$17h00a1fbd643aa9501E', symObjAddr: 0x3100, symBinAddr: 0x3BE20, symSize: 0x40 }
  - { offset: 0x109580, size: 0x8, addend: 0x0, symName: '__ZN4core3ptr69drop_in_place$LT$alloc..vec..Vec$LT$std..thread..id..ThreadId$GT$$GT$17h906ad93e5e343667E', symObjAddr: 0x31E8, symBinAddr: 0x3BE60, symSize: 0x5C }
  - { offset: 0x1095AF, size: 0x8, addend: 0x0, symName: '__ZN4core3ptr69drop_in_place$LT$pyo3..pyclass..create_type_object..GetSetDefType$GT$17hdd68eb3299ae208cE', symObjAddr: 0x3268, symBinAddr: 0x3BEBC, symSize: 0x48 }
  - { offset: 0x1095DE, size: 0x8, addend: 0x0, symName: '__ZN4core3ptr69drop_in_place$LT$pyo3..pyclass..create_type_object..PyTypeBuilder$GT$17h770ae58a147f2f5eE', symObjAddr: 0x32B0, symBinAddr: 0x3BF04, symSize: 0xF4 }
  - { offset: 0x10960D, size: 0x8, addend: 0x0, symName: '__ZN4core3ptr70drop_in_place$LT$pyo3..instance..Py$LT$pyo3..types..any..PyAny$GT$$GT$17hb0a396ed272c2db2E', symObjAddr: 0x33A4, symBinAddr: 0x3BFF8, symSize: 0x2C }
  - { offset: 0x10963C, size: 0x8, addend: 0x0, symName: '__ZN4core3ptr73drop_in_place$LT$alloc..vec..Vec$LT$pyo3_ffi..object..PyType_Slot$GT$$GT$17h5cd71ee19eeca35fE', symObjAddr: 0x3450, symBinAddr: 0x3C024, symSize: 0x5C }
  - { offset: 0x10966B, size: 0x8, addend: 0x0, symName: '__ZN4core3ptr73drop_in_place$LT$core..option..Option$LT$pyo3..gil..ReferencePool$GT$$GT$17hcfe5c0f9c505ad43E', symObjAddr: 0x3508, symBinAddr: 0x3C080, symSize: 0x40 }
  - { offset: 0x10969A, size: 0x8, addend: 0x0, symName: '__ZN4core3ptr73drop_in_place$LT$pyo3..instance..Bound$LT$pyo3..types..any..PyAny$GT$$GT$17hbcaa70180c2f2439E', symObjAddr: 0x356C, symBinAddr: 0x3C0C0, symSize: 0x24 }
  - { offset: 0x1096C9, size: 0x8, addend: 0x0, symName: '__ZN4core3ptr73drop_in_place$LT$pyo3..pyclass..create_type_object..PyClassTypeObject$GT$17ha901b3481f78735eE', symObjAddr: 0x35B4, symBinAddr: 0x3C0E4, symSize: 0x5C }
  - { offset: 0x1096F8, size: 0x8, addend: 0x0, symName: '__ZN4core3ptr74drop_in_place$LT$pyo3..instance..Py$LT$pyo3..types..tuple..PyTuple$GT$$GT$17h95721fb4a7e8e7ecE', symObjAddr: 0x3660, symBinAddr: 0x3C140, symSize: 0x2C }
  - { offset: 0x109727, size: 0x8, addend: 0x0, symName: '__ZN4core3ptr75drop_in_place$LT$core..option..Option$LT$alloc..ffi..c_str..CString$GT$$GT$17he7fdcfecb319ad4cE', symObjAddr: 0x368C, symBinAddr: 0x3C16C, symSize: 0x44 }
  - { offset: 0x109756, size: 0x8, addend: 0x0, symName: '__ZN4core3ptr75drop_in_place$LT$core..result..Result$LT$$RF$str$C$pyo3..err..PyErr$GT$$GT$17h29d6c2cb55853ea6E', symObjAddr: 0x36D0, symBinAddr: 0x3C1B0, symSize: 0x40 }
  - { offset: 0x109785, size: 0x8, addend: 0x0, symName: '__ZN4core3ptr75drop_in_place$LT$pyo3..instance..Bound$LT$pyo3..types..list..PyList$GT$$GT$17h0b4a0819611b7576E', symObjAddr: 0x3734, symBinAddr: 0x3C1F0, symSize: 0x24 }
  - { offset: 0x1097B4, size: 0x8, addend: 0x0, symName: '__ZN4core3ptr75drop_in_place$LT$pyo3..pyclass..create_type_object..GetSetDefDestructor$GT$17h644290a7dc5c31e7E', symObjAddr: 0x3758, symBinAddr: 0x3C214, symSize: 0x24 }
  - { offset: 0x1097E3, size: 0x8, addend: 0x0, symName: '__ZN4core3ptr76drop_in_place$LT$alloc..raw_vec..RawVec$LT$std..thread..id..ThreadId$GT$$GT$17hd7cd6110a9df3789E', symObjAddr: 0x377C, symBinAddr: 0x3C238, symSize: 0x24 }
  - { offset: 0x109812, size: 0x8, addend: 0x0, symName: '__ZN4core3ptr76drop_in_place$LT$core..result..Result$LT$$LP$$RP$$C$pyo3..err..PyErr$GT$$GT$17hf59fedf402797c92E', symObjAddr: 0x37A0, symBinAddr: 0x3C25C, symSize: 0x40 }
  - { offset: 0x109841, size: 0x8, addend: 0x0, symName: '__ZN4core3ptr76drop_in_place$LT$pyo3..instance..Py$LT$pyo3..types..module..PyModule$GT$$GT$17h85a5588f535ff57cE', symObjAddr: 0x37E0, symBinAddr: 0x3C29C, symSize: 0x2C }
  - { offset: 0x109870, size: 0x8, addend: 0x0, symName: '__ZN4core3ptr76drop_in_place$LT$pyo3..instance..Py$LT$pyo3..types..string..PyString$GT$$GT$17hbef46bd9cbdffea8E', symObjAddr: 0x380C, symBinAddr: 0x3C2C8, symSize: 0x2C }
  - { offset: 0x10989F, size: 0x8, addend: 0x0, symName: '__ZN4core3ptr77drop_in_place$LT$pyo3..instance..Bound$LT$pyo3..types..bytes..PyBytes$GT$$GT$17ha8a7416e4c172421E', symObjAddr: 0x385C, symBinAddr: 0x3C2F4, symSize: 0x24 }
  - { offset: 0x1098CE, size: 0x8, addend: 0x0, symName: '__ZN4core3ptr78drop_in_place$LT$alloc..vec..Vec$LT$pyo3_ffi..descrobject..PyGetSetDef$GT$$GT$17h96ff7ee3df0437a8E', symObjAddr: 0x38EC, symBinAddr: 0x3C318, symSize: 0x5C }
  - { offset: 0x1098FD, size: 0x8, addend: 0x0, symName: '__ZN4core3ptr78drop_in_place$LT$alloc..vec..Vec$LT$pyo3_ffi..descrobject..PyMemberDef$GT$$GT$17h4fb21b6c5f42e402E', symObjAddr: 0x3948, symBinAddr: 0x3C374, symSize: 0x5C }
  - { offset: 0x10992C, size: 0x8, addend: 0x0, symName: '__ZN4core3ptr78drop_in_place$LT$pyo3..instance..Py$LT$pyo3..types..typeobject..PyType$GT$$GT$17h6dde8fd7f4d6fe16E', symObjAddr: 0x39C8, symBinAddr: 0x3C3D0, symSize: 0x2C }
  - { offset: 0x10995B, size: 0x8, addend: 0x0, symName: '__ZN4core3ptr79drop_in_place$LT$alloc..vec..Vec$LT$pyo3_ffi..methodobject..PyMethodDef$GT$$GT$17hb32fd6d3e7393717E', symObjAddr: 0x39F4, symBinAddr: 0x3C3FC, symSize: 0x5C }
  - { offset: 0x10998A, size: 0x8, addend: 0x0, symName: '__ZN4core3ptr79drop_in_place$LT$pyo3..instance..Bound$LT$pyo3..types..string..PyString$GT$$GT$17h29ef2f3377d44e23E', symObjAddr: 0x3A74, symBinAddr: 0x3C458, symSize: 0x24 }
  - { offset: 0x1099B9, size: 0x8, addend: 0x0, symName: '__ZN4core3ptr80drop_in_place$LT$$u5b$pyo3..instance..Py$LT$pyo3..types..any..PyAny$GT$$u5d$$GT$17h94b45281a2b4a855E', symObjAddr: 0x3A98, symBinAddr: 0x3C47C, symSize: 0xB4 }
  - { offset: 0x1099E8, size: 0x8, addend: 0x0, symName: '__ZN4core3ptr80drop_in_place$LT$alloc..raw_vec..RawVec$LT$pyo3_ffi..object..PyType_Slot$GT$$GT$17h8e70f1f8bfc06bb5E', symObjAddr: 0x3B4C, symBinAddr: 0x3C530, symSize: 0x24 }
  - { offset: 0x109A17, size: 0x8, addend: 0x0, symName: '__ZN4core3ptr80drop_in_place$LT$pyo3..instance..Py$LT$pyo3..exceptions..PyBaseException$GT$$GT$17hcc62b3cc65ee6c55E', symObjAddr: 0x3BB8, symBinAddr: 0x3C554, symSize: 0x2C }
  - { offset: 0x109A46, size: 0x8, addend: 0x0, symName: '__ZN4core3ptr81drop_in_place$LT$core..option..Option$LT$pyo3..err..err_state..PyErrState$GT$$GT$17h7142f33a90e3ad5eE', symObjAddr: 0x3C08, symBinAddr: 0x3C580, symSize: 0x40 }
  - { offset: 0x109A75, size: 0x8, addend: 0x0, symName: '__ZN4core3ptr81drop_in_place$LT$pyo3..instance..Bound$LT$pyo3..types..typeobject..PyType$GT$$GT$17h5b2764e1927a3878E', symObjAddr: 0x3C90, symBinAddr: 0x3C5C0, symSize: 0x24 }
  - { offset: 0x109AA4, size: 0x8, addend: 0x0, symName: '__ZN4core3ptr83drop_in_place$LT$pyo3..instance..Bound$LT$pyo3..exceptions..PyBaseException$GT$$GT$17h43431d94c76e70a3E', symObjAddr: 0x3CB4, symBinAddr: 0x3C5E4, symSize: 0x24 }
  - { offset: 0x109AD3, size: 0x8, addend: 0x0, symName: '__ZN4core3ptr85drop_in_place$LT$$u5b$pyo3..pyclass..create_type_object..GetSetDefDestructor$u5d$$GT$17h00be6ca166ee9c14E', symObjAddr: 0x3D44, symBinAddr: 0x3C608, symSize: 0xB4 }
  - { offset: 0x109B02, size: 0x8, addend: 0x0, symName: '__ZN4core3ptr85drop_in_place$LT$alloc..boxed..Box$LT$std..sys..pal..unix..sync..mutex..Mutex$GT$$GT$17h2102e4eece50ad60E', symObjAddr: 0x3DF8, symBinAddr: 0x3C6BC, symSize: 0x60 }
  - { offset: 0x109B31, size: 0x8, addend: 0x0, symName: '__ZN4core3ptr85drop_in_place$LT$alloc..raw_vec..RawVec$LT$pyo3_ffi..descrobject..PyGetSetDef$GT$$GT$17hc6cf90788fe47cdeE', symObjAddr: 0x3E58, symBinAddr: 0x3C71C, symSize: 0x24 }
  - { offset: 0x109B60, size: 0x8, addend: 0x0, symName: '__ZN4core3ptr85drop_in_place$LT$alloc..raw_vec..RawVec$LT$pyo3_ffi..descrobject..PyMemberDef$GT$$GT$17had177ffabeebac9fE', symObjAddr: 0x3E7C, symBinAddr: 0x3C740, symSize: 0x24 }
  - { offset: 0x109B8F, size: 0x8, addend: 0x0, symName: '__ZN4core3ptr85drop_in_place$LT$pyo3..instance..Bound$LT$pyo3..types..traceback..PyTraceback$GT$$GT$17hfb1894ba34c6796bE', symObjAddr: 0x3F0C, symBinAddr: 0x3C764, symSize: 0x24 }
  - { offset: 0x109BBE, size: 0x8, addend: 0x0, symName: '__ZN4core3ptr86drop_in_place$LT$alloc..raw_vec..RawVec$LT$pyo3_ffi..methodobject..PyMethodDef$GT$$GT$17h573f7cce9c958243E', symObjAddr: 0x3F30, symBinAddr: 0x3C788, symSize: 0x24 }
  - { offset: 0x109BED, size: 0x8, addend: 0x0, symName: '__ZN4core3ptr91drop_in_place$LT$$u5b$pyo3..instance..Py$LT$pyo3..types..any..PyAny$GT$$u3b$$u20$1$u5d$$GT$17h24af145c43522a06E', symObjAddr: 0x3F54, symBinAddr: 0x3C7AC, symSize: 0xA4 }
  - { offset: 0x109C1C, size: 0x8, addend: 0x0, symName: '__ZN4core3ptr91drop_in_place$LT$alloc..boxed..Box$LT$dyn$u20$core..any..Any$u2b$core..marker..Send$GT$$GT$17hb3c66ea3bf502973E', symObjAddr: 0x409C, symBinAddr: 0x3C850, symSize: 0x80 }
  - { offset: 0x109C4B, size: 0x8, addend: 0x0, symName: '__ZN4core3ptr95drop_in_place$LT$core..cell..RefMut$LT$alloc..vec..Vec$LT$std..thread..id..ThreadId$GT$$GT$$GT$17h60d9183f1e9be195E', symObjAddr: 0x432C, symBinAddr: 0x3C8D0, symSize: 0x24 }
  - { offset: 0x109C7A, size: 0x8, addend: 0x0, symName: '__ZN4core3ptr96drop_in_place$LT$alloc..boxed..Box$LT$pyo3..pyclass..create_type_object..GetterAndSetter$GT$$GT$17hb89d75ee388726b2E', symObjAddr: 0x4350, symBinAddr: 0x3C8F4, symSize: 0x2C }
  - { offset: 0x109CA9, size: 0x8, addend: 0x0, symName: '__ZN4core3ptr97drop_in_place$LT$core..result..Result$LT$alloc..borrow..Cow$LT$str$GT$$C$pyo3..err..PyErr$GT$$GT$17h58ead6715df9b856E', symObjAddr: 0x437C, symBinAddr: 0x3C920, symSize: 0x50 }
  - { offset: 0x109CD8, size: 0x8, addend: 0x0, symName: '__ZN4core3ptr98drop_in_place$LT$alloc..vec..Vec$LT$pyo3..pyclass..create_type_object..GetSetDefDestructor$GT$$GT$17hde2fe407193cf22cE', symObjAddr: 0x43CC, symBinAddr: 0x3C970, symSize: 0x5C }
  - { offset: 0x109F79, size: 0x8, addend: 0x0, symName: __ZN4core6marker5FnPtr4addr17hc5b752a4045aa5c0E, symObjAddr: 0x55F8, symBinAddr: 0x3D660, symSize: 0x14 }
  - { offset: 0x10BC67, size: 0x8, addend: 0x0, symName: __ZN4core4sync6atomic11atomic_load17h224b1b0ae9202716E, symObjAddr: 0x489C, symBinAddr: 0x3C9E0, symSize: 0xF8 }
  - { offset: 0x10BCAD, size: 0x8, addend: 0x0, symName: __ZN4core4sync6atomic11atomic_load17h9b508be10ea583b7E, symObjAddr: 0x4994, symBinAddr: 0x3CAD8, symSize: 0xF8 }
  - { offset: 0x10BCF3, size: 0x8, addend: 0x0, symName: __ZN4core4sync6atomic11atomic_load17hcd83f1b049ad762bE, symObjAddr: 0x4A8C, symBinAddr: 0x3CBD0, symSize: 0xF8 }
  - { offset: 0x10BD39, size: 0x8, addend: 0x0, symName: __ZN4core4sync6atomic23atomic_compare_exchange17h3fe183dca7a99d11E, symObjAddr: 0x4B84, symBinAddr: 0x3CCC8, symSize: 0x4B4 }
  - { offset: 0x10BDD4, size: 0x8, addend: 0x0, symName: __ZN4core4sync6atomic23atomic_compare_exchange17hbcedddec0be0dab6E, symObjAddr: 0x5038, symBinAddr: 0x3D17C, symSize: 0x4B4 }
  - { offset: 0x10CBAA, size: 0x8, addend: 0x0, symName: '__ZN102_$LT$core..iter..adapters..map..Map$LT$I$C$F$GT$$u20$as$u20$core..iter..traits..iterator..Iterator$GT$4next17h44b715367d53ec6bE', symObjAddr: 0xE0, symBinAddr: 0x39FA0, symSize: 0xB4 }
  - { offset: 0x10CC46, size: 0x8, addend: 0x0, symName: '__ZN102_$LT$core..iter..adapters..map..Map$LT$I$C$F$GT$$u20$as$u20$core..iter..traits..iterator..Iterator$GT$9size_hint17hf14084580b092aadE', symObjAddr: 0x2AC, symBinAddr: 0x3A054, symSize: 0x24 }
  - { offset: 0x10CD02, size: 0x8, addend: 0x0, symName: __ZN4core4iter6traits8iterator8Iterator7collect17h53d74ebaf70123ebE, symObjAddr: 0x4528, symBinAddr: 0x3C9CC, symSize: 0x14 }
  - { offset: 0x10CD4F, size: 0x8, addend: 0x0, symName: '__ZN63_$LT$I$u20$as$u20$core..iter..traits..collect..IntoIterator$GT$9into_iter17hcac863771697e41fE', symObjAddr: 0x6B04, symBinAddr: 0x3E1C8, symSize: 0x30 }
  - { offset: 0x10CDE2, size: 0x8, addend: 0x0, symName: '__ZN4core3ops8function6FnOnce40call_once$u7b$$u7b$vtable.shim$u7d$$u7d$17h0722e0f86dea7b3cE', symObjAddr: 0xB8C, symBinAddr: 0x3A6CC, symSize: 0x24 }
  - { offset: 0x10CE26, size: 0x8, addend: 0x0, symName: '__ZN4core3ops8function6FnOnce40call_once$u7b$$u7b$vtable.shim$u7d$$u7d$17h19b44643c14927bdE', symObjAddr: 0xBD8, symBinAddr: 0x3A6F0, symSize: 0x24 }
  - { offset: 0x10CE6A, size: 0x8, addend: 0x0, symName: '__ZN4core3ops8function6FnOnce40call_once$u7b$$u7b$vtable.shim$u7d$$u7d$17h1d9dd8ff9352d6beE', symObjAddr: 0xC24, symBinAddr: 0x3A714, symSize: 0x24 }
  - { offset: 0x10CEAE, size: 0x8, addend: 0x0, symName: '__ZN4core3ops8function6FnOnce40call_once$u7b$$u7b$vtable.shim$u7d$$u7d$17h2ab392ec468eca1dE', symObjAddr: 0xC6C, symBinAddr: 0x3A738, symSize: 0x30 }
  - { offset: 0x10CEEE, size: 0x8, addend: 0x0, symName: '__ZN4core3ops8function6FnOnce40call_once$u7b$$u7b$vtable.shim$u7d$$u7d$17h3243e59b7985e494E', symObjAddr: 0xCEC, symBinAddr: 0x3A768, symSize: 0x30 }
  - { offset: 0x10CF32, size: 0x8, addend: 0x0, symName: '__ZN4core3ops8function6FnOnce40call_once$u7b$$u7b$vtable.shim$u7d$$u7d$17h47275c43ce443affE', symObjAddr: 0xD1C, symBinAddr: 0x3A798, symSize: 0x30 }
  - { offset: 0x10CF76, size: 0x8, addend: 0x0, symName: '__ZN4core3ops8function6FnOnce40call_once$u7b$$u7b$vtable.shim$u7d$$u7d$17h4f19faeb13ec9fcbE', symObjAddr: 0xD4C, symBinAddr: 0x3A7C8, symSize: 0x24 }
  - { offset: 0x10CFBA, size: 0x8, addend: 0x0, symName: '__ZN4core3ops8function6FnOnce40call_once$u7b$$u7b$vtable.shim$u7d$$u7d$17h5038dbff9d59a636E', symObjAddr: 0xD70, symBinAddr: 0x3A7EC, symSize: 0x30 }
  - { offset: 0x10CFFE, size: 0x8, addend: 0x0, symName: '__ZN4core3ops8function6FnOnce40call_once$u7b$$u7b$vtable.shim$u7d$$u7d$17h56e3b8b70f793a7fE', symObjAddr: 0xDA0, symBinAddr: 0x3A81C, symSize: 0x30 }
  - { offset: 0x10D03E, size: 0x8, addend: 0x0, symName: '__ZN4core3ops8function6FnOnce40call_once$u7b$$u7b$vtable.shim$u7d$$u7d$17h5a7566c67d41525eE', symObjAddr: 0xDD0, symBinAddr: 0x3A84C, symSize: 0x24 }
  - { offset: 0x10D082, size: 0x8, addend: 0x0, symName: '__ZN4core3ops8function6FnOnce40call_once$u7b$$u7b$vtable.shim$u7d$$u7d$17h80f58c64bad82742E', symObjAddr: 0xED8, symBinAddr: 0x3A870, symSize: 0x30 }
  - { offset: 0x10D0C6, size: 0x8, addend: 0x0, symName: '__ZN4core3ops8function6FnOnce40call_once$u7b$$u7b$vtable.shim$u7d$$u7d$17h87c81390f433460cE', symObjAddr: 0xF50, symBinAddr: 0x3A8A0, symSize: 0x38 }
  - { offset: 0x10D10A, size: 0x8, addend: 0x0, symName: '__ZN4core3ops8function6FnOnce40call_once$u7b$$u7b$vtable.shim$u7d$$u7d$17haf7e832b92e65fabE', symObjAddr: 0x1000, symBinAddr: 0x3A8D8, symSize: 0x24 }
  - { offset: 0x10D14E, size: 0x8, addend: 0x0, symName: '__ZN4core3ops8function6FnOnce40call_once$u7b$$u7b$vtable.shim$u7d$$u7d$17hb50c68c158470ebdE', symObjAddr: 0x1024, symBinAddr: 0x3A8FC, symSize: 0x30 }
  - { offset: 0x10D192, size: 0x8, addend: 0x0, symName: '__ZN4core3ops8function6FnOnce40call_once$u7b$$u7b$vtable.shim$u7d$$u7d$17hbb8a77aa5c761db0E', symObjAddr: 0x1054, symBinAddr: 0x3A92C, symSize: 0x24 }
  - { offset: 0x10D1D6, size: 0x8, addend: 0x0, symName: '__ZN4core3ops8function6FnOnce40call_once$u7b$$u7b$vtable.shim$u7d$$u7d$17he666b56a57019039E', symObjAddr: 0x10C0, symBinAddr: 0x3A950, symSize: 0x38 }
  - { offset: 0x10D21A, size: 0x8, addend: 0x0, symName: '__ZN4core3ops8function6FnOnce40call_once$u7b$$u7b$vtable.shim$u7d$$u7d$17hff7fe99609dad0e5E', symObjAddr: 0x1170, symBinAddr: 0x3A988, symSize: 0x24 }
  - { offset: 0x10D25E, size: 0x8, addend: 0x0, symName: __ZN4core3ops8function6FnOnce9call_once17h0f8b6f371d135b10E, symObjAddr: 0x11C0, symBinAddr: 0x3A9AC, symSize: 0x4C }
  - { offset: 0x10D2A2, size: 0x8, addend: 0x0, symName: __ZN4core3ops8function6FnOnce9call_once17h19c3a3c710a558bcE, symObjAddr: 0x1264, symBinAddr: 0x3A9F8, symSize: 0x24 }
  - { offset: 0x10D2E6, size: 0x8, addend: 0x0, symName: __ZN4core3ops8function6FnOnce9call_once17h2d0b86deb7b0416fE, symObjAddr: 0x13A8, symBinAddr: 0x3AA1C, symSize: 0x58 }
  - { offset: 0x10D32A, size: 0x8, addend: 0x0, symName: __ZN4core3ops8function6FnOnce9call_once17h2f643b1f079074d4E, symObjAddr: 0x1400, symBinAddr: 0x3AA74, symSize: 0x2C }
  - { offset: 0x10D36E, size: 0x8, addend: 0x0, symName: __ZN4core3ops8function6FnOnce9call_once17h35b0f959aae3240aE, symObjAddr: 0x142C, symBinAddr: 0x3AAA0, symSize: 0x2C }
  - { offset: 0x10D3B2, size: 0x8, addend: 0x0, symName: __ZN4core3ops8function6FnOnce9call_once17h3900efbb2feade9aE, symObjAddr: 0x1458, symBinAddr: 0x3AACC, symSize: 0x4C }
  - { offset: 0x10D3F6, size: 0x8, addend: 0x0, symName: __ZN4core3ops8function6FnOnce9call_once17h3aa4764f2be09496E, symObjAddr: 0x14A4, symBinAddr: 0x3AB18, symSize: 0x24 }
  - { offset: 0x10D43A, size: 0x8, addend: 0x0, symName: __ZN4core3ops8function6FnOnce9call_once17h40ce4e65950bd869E, symObjAddr: 0x14C8, symBinAddr: 0x3AB3C, symSize: 0x44 }
  - { offset: 0x10D47E, size: 0x8, addend: 0x0, symName: __ZN4core3ops8function6FnOnce9call_once17h4a4b726b93cf1386E, symObjAddr: 0x150C, symBinAddr: 0x3AB80, symSize: 0x4C }
  - { offset: 0x10D4BE, size: 0x8, addend: 0x0, symName: __ZN4core3ops8function6FnOnce9call_once17h6429efa619d870e6E, symObjAddr: 0x15A8, symBinAddr: 0x3ABCC, symSize: 0x24 }
  - { offset: 0x10D502, size: 0x8, addend: 0x0, symName: __ZN4core3ops8function6FnOnce9call_once17h67dfeafbeb4af97eE, symObjAddr: 0x15CC, symBinAddr: 0x3ABF0, symSize: 0x20 }
  - { offset: 0x10D546, size: 0x8, addend: 0x0, symName: __ZN4core3ops8function6FnOnce9call_once17h91279ed7064b4bbfE, symObjAddr: 0x1610, symBinAddr: 0x3AC10, symSize: 0x5C }
  - { offset: 0x10D58A, size: 0x8, addend: 0x0, symName: __ZN4core3ops8function6FnOnce9call_once17ha3821c9d2a2d5c50E, symObjAddr: 0x166C, symBinAddr: 0x3AC6C, symSize: 0x30 }
  - { offset: 0x10D5EB, size: 0x8, addend: 0x0, symName: __ZN4core3ops8function6FnOnce9call_once17haa49ca4076088e92E, symObjAddr: 0x169C, symBinAddr: 0x3AC9C, symSize: 0x40 }
  - { offset: 0x10D630, size: 0x8, addend: 0x0, symName: __ZN4core3ops8function6FnOnce9call_once17hcf19b0ca6561c35fE, symObjAddr: 0x1718, symBinAddr: 0x3ACDC, symSize: 0x34 }
  - { offset: 0x10D674, size: 0x8, addend: 0x0, symName: __ZN4core3ops8function6FnOnce9call_once17hd6cc6753071f2e24E, symObjAddr: 0x174C, symBinAddr: 0x3AD10, symSize: 0x2C }
  - { offset: 0x10D6B8, size: 0x8, addend: 0x0, symName: __ZN4core3ops8function6FnOnce9call_once17hec7eef5b1b681f50E, symObjAddr: 0x1778, symBinAddr: 0x3AD3C, symSize: 0x4C }
  - { offset: 0x10D6F8, size: 0x8, addend: 0x0, symName: __ZN4core3ops8function6FnOnce9call_once17hf73355e4cd561c95E, symObjAddr: 0x17C4, symBinAddr: 0x3AD88, symSize: 0x1C }
  - { offset: 0x10D8AB, size: 0x8, addend: 0x0, symName: '__ZN50_$LT$T$u20$as$u20$core..convert..Into$LT$U$GT$$GT$4into17h25e23dd61db5bf47E', symObjAddr: 0x6444, symBinAddr: 0x3DBF0, symSize: 0x28 }
  - { offset: 0x10D8EB, size: 0x8, addend: 0x0, symName: '__ZN50_$LT$T$u20$as$u20$core..convert..Into$LT$U$GT$$GT$4into17h97ce84838a9f5538E', symObjAddr: 0x646C, symBinAddr: 0x3DC18, symSize: 0x28 }
  - { offset: 0x10D931, size: 0x8, addend: 0x0, symName: '__ZN53_$LT$T$u20$as$u20$core..convert..TryInto$LT$U$GT$$GT$8try_into17h05fe0481f47ce408E', symObjAddr: 0x64BC, symBinAddr: 0x3DC40, symSize: 0x20 }
  - { offset: 0x10D971, size: 0x8, addend: 0x0, symName: '__ZN53_$LT$T$u20$as$u20$core..convert..TryInto$LT$U$GT$$GT$8try_into17hc78d202935c92159E', symObjAddr: 0x653C, symBinAddr: 0x3DC60, symSize: 0x20 }
  - { offset: 0x10DF9C, size: 0x8, addend: 0x0, symName: '__ZN47_$LT$$LP$$RP$$u20$as$u20$core..unit..IsUnit$GT$7is_unit17h25547294f40a8611E', symObjAddr: 0x984, symBinAddr: 0x3A6C0, symSize: 0xC }
  - { offset: 0x10E933, size: 0x8, addend: 0x0, symName: '__ZN4pyo35impl_9pymethods11_call_clear28_$u7b$$u7b$closure$u7d$$u7d$17hf24e9b1e791da67dE', symObjAddr: 0x5F1C, symBinAddr: 0x3D86C, symSize: 0xE8 }
  - { offset: 0x10EB21, size: 0x8, addend: 0x0, symName: __ZN4pyo35impl_9pymethods11_call_clear17h571d1bba379ca7ffE, symObjAddr: 0x5ED4, symBinAddr: 0x3D824, symSize: 0x48 }
  - { offset: 0x10EB6D, size: 0x8, addend: 0x0, symName: __ZN4pyo35impl_9pymethods16call_super_clear17he20c3f0d1d30d94cE, symObjAddr: 0x6004, symBinAddr: 0x3D954, symSize: 0x278 }
  - { offset: 0x10F05D, size: 0x8, addend: 0x0, symName: '__ZN4pyo311conversions3std6string119_$LT$impl$u20$pyo3..conversion..IntoPy$LT$pyo3..instance..Py$LT$pyo3..types..any..PyAny$GT$$GT$$u20$for$u20$$RF$str$GT$7into_py17h1e5e80eab75825a0E', symObjAddr: 0x5730, symBinAddr: 0x3D674, symSize: 0x34 }
  - { offset: 0x10F0A8, size: 0x8, addend: 0x0, symName: '__ZN4pyo311conversions3std6string73_$LT$impl$u20$pyo3..conversion..FromPyObjectBound$u20$for$u20$$RF$str$GT$20from_py_object_bound17hf65c17def20033e4E', symObjAddr: 0x5A30, symBinAddr: 0x3D6A8, symSize: 0xA0 }
  - { offset: 0x10FE25, size: 0x8, addend: 0x0, symName: '__ZN9once_cell3imp17OnceCell$LT$T$GT$10initialize28_$u7b$$u7b$closure$u7d$$u7d$17h1f7fecb7053ba755E', symObjAddr: 0x7028, symBinAddr: 0x3E364, symSize: 0x1AC }
  - { offset: 0x11011C, size: 0x8, addend: 0x0, symName: '__ZN3std4sync6poison5mutex19MutexGuard$LT$T$GT$3new28_$u7b$$u7b$closure$u7d$$u7d$17h02321195d6626b59E', symObjAddr: 0x3C0, symBinAddr: 0x3A120, symSize: 0x18 }
  - { offset: 0x11016B, size: 0x8, addend: 0x0, symName: '__ZN87_$LT$std..sync..poison..mutex..MutexGuard$LT$T$GT$$u20$as$u20$core..ops..drop..Drop$GT$4drop17h1d5361c2e761e065E', symObjAddr: 0x6D20, symBinAddr: 0x3E2D4, symSize: 0x58 }
  - { offset: 0x1101EF, size: 0x8, addend: 0x0, symName: '__ZN89_$LT$std..sync..poison..mutex..MutexGuard$LT$T$GT$$u20$as$u20$core..ops..deref..Deref$GT$5deref17h8d7c7f5d7b0af54fE', symObjAddr: 0x6D78, symBinAddr: 0x3E32C, symSize: 0x1C }
  - { offset: 0x110241, size: 0x8, addend: 0x0, symName: '__ZN92_$LT$std..sync..poison..mutex..MutexGuard$LT$T$GT$$u20$as$u20$core..ops..deref..DerefMut$GT$9deref_mut17h518287a95950c886E', symObjAddr: 0x6F88, symBinAddr: 0x3E348, symSize: 0x1C }
  - { offset: 0x110526, size: 0x8, addend: 0x0, symName: __ZN3std9panicking12catch_unwind7do_call17h296b1cfe818ebc8cE, symObjAddr: 0x3D8, symBinAddr: 0x3A138, symSize: 0x80 }
  - { offset: 0x110621, size: 0x8, addend: 0x0, symName: __ZN3std9panicking12catch_unwind7do_call17h63f0aa2e97a8be45E, symObjAddr: 0x458, symBinAddr: 0x3A1B8, symSize: 0x80 }
  - { offset: 0x11071C, size: 0x8, addend: 0x0, symName: __ZN3std9panicking12catch_unwind7do_call17h7b755c03daa46872E, symObjAddr: 0x4D8, symBinAddr: 0x3A238, symSize: 0x70 }
  - { offset: 0x110816, size: 0x8, addend: 0x0, symName: __ZN3std9panicking12catch_unwind7do_call17hafbd3c0772f16206E, symObjAddr: 0x548, symBinAddr: 0x3A2A8, symSize: 0x7C }
  - { offset: 0x110910, size: 0x8, addend: 0x0, symName: __ZN3std9panicking12catch_unwind7do_call17he8b24c8ab4c3a4dbE, symObjAddr: 0x5C4, symBinAddr: 0x3A324, symSize: 0x7C }
  - { offset: 0x110A0A, size: 0x8, addend: 0x0, symName: __ZN3std9panicking12catch_unwind7do_call17he8b65dd982ac56ffE, symObjAddr: 0x640, symBinAddr: 0x3A3A0, symSize: 0x80 }
  - { offset: 0x110B05, size: 0x8, addend: 0x0, symName: __ZN3std9panicking12catch_unwind8do_catch17h074e275cac3164e0E, symObjAddr: 0x6C0, symBinAddr: 0x3A420, symSize: 0x70 }
  - { offset: 0x110B9A, size: 0x8, addend: 0x0, symName: __ZN3std9panicking12catch_unwind8do_catch17h0d11141c6e3adfbbE, symObjAddr: 0x730, symBinAddr: 0x3A490, symSize: 0x70 }
  - { offset: 0x110C2F, size: 0x8, addend: 0x0, symName: __ZN3std9panicking12catch_unwind8do_catch17h1843d139ed042f58E, symObjAddr: 0x7A0, symBinAddr: 0x3A500, symSize: 0x70 }
  - { offset: 0x110CC4, size: 0x8, addend: 0x0, symName: __ZN3std9panicking12catch_unwind8do_catch17h2222032d5f2b755dE, symObjAddr: 0x810, symBinAddr: 0x3A570, symSize: 0x70 }
  - { offset: 0x110D59, size: 0x8, addend: 0x0, symName: __ZN3std9panicking12catch_unwind8do_catch17h6a702c5182a909f2E, symObjAddr: 0x880, symBinAddr: 0x3A5E0, symSize: 0x70 }
  - { offset: 0x110DEE, size: 0x8, addend: 0x0, symName: __ZN3std9panicking12catch_unwind8do_catch17hb0668e992d6a1b3fE, symObjAddr: 0x8F0, symBinAddr: 0x3A650, symSize: 0x70 }
  - { offset: 0x11130E, size: 0x8, addend: 0x0, symName: '__ZN3std4sync6poison5mutex14Mutex$LT$T$GT$3new17h885e8ac5169fe5d2E', symObjAddr: 0x318, symBinAddr: 0x3A078, symSize: 0x60 }
  - { offset: 0x11141F, size: 0x8, addend: 0x0, symName: '__ZN3std4sync6poison5mutex14Mutex$LT$T$GT$4lock17h13658a22e9860708E', symObjAddr: 0x378, symBinAddr: 0x3A0D8, symSize: 0x48 }
  - { offset: 0x11176B, size: 0x8, addend: 0x0, symName: __ZN4core4sync6atomic9AtomicI6416compare_exchange17hd1375bb82cb009dbE, symObjAddr: 0x559C, symBinAddr: 0x3D630, symSize: 0x30 }
  - { offset: 0x1117D7, size: 0x8, addend: 0x0, symName: __ZN4pyo35impl_9pymethods11PyMethodDef13as_method_def17h8fd624075c57208cE, symObjAddr: 0x5C80, symBinAddr: 0x3D748, symSize: 0xDC }
  - { offset: 0x11187A, size: 0x8, addend: 0x0, symName: '__ZN4pyo35impl_9pymethods39BoundRef$LT$pyo3..types..any..PyAny$GT$12ref_from_ptr17hfd1e2b9d9f3d7589E', symObjAddr: 0x63CC, symBinAddr: 0x3DBCC, symSize: 0x24 }
  - { offset: 0x111A7D, size: 0x8, addend: 0x0, symName: __ZN5alloc5alloc6Global18alloc_impl_runtime17heecfc7982f198770E, symObjAddr: 0x660C, symBinAddr: 0x3DD30, symSize: 0x194 }
  - { offset: 0x111FB8, size: 0x8, addend: 0x0, symName: __ZN5alloc5alloc6Global19shrink_impl_runtime17hda8f47cb35c2e0bbE, symObjAddr: 0x67A0, symBinAddr: 0x3DEC4, symSize: 0x304 }
  - { offset: 0x1127E3, size: 0x8, addend: 0x0, symName: '__ZN9once_cell3imp17OnceCell$LT$T$GT$10initialize17h45faf1dc4693d7cfE', symObjAddr: 0x6FA4, symBinAddr: 0x76F90, symSize: 0x84 }
  - { offset: 0x11289F, size: 0x8, addend: 0x0, symName: '__ZN9once_cell3imp17OnceCell$LT$T$GT$13get_unchecked17h5442d1a827721915E', symObjAddr: 0x71D4, symBinAddr: 0x3E510, symSize: 0xAC }
  - { offset: 0x1128E7, size: 0x8, addend: 0x0, symName: '__ZN9once_cell3imp17OnceCell$LT$T$GT$14is_initialized17hf526306b40407674E', symObjAddr: 0x7280, symBinAddr: 0x3E5BC, symSize: 0x30 }
  - { offset: 0x113852, size: 0x8, addend: 0x0, symName: '__ZN100_$LT$core..iter..adapters..take..Take$LT$I$GT$$u20$as$u20$core..iter..traits..iterator..Iterator$GT$4next17h72c83a7e0f3f1050E', symObjAddr: 0x0, symBinAddr: 0x3E5EC, symSize: 0x58 }
  - { offset: 0x113893, size: 0x8, addend: 0x0, symName: '__ZN3std4sync4once4Once15call_once_force28_$u7b$$u7b$closure$u7d$$u7d$17h33f1e21adf8b8cf6E', symObjAddr: 0x490, symBinAddr: 0x3E90C, symSize: 0x68 }
  - { offset: 0x113925, size: 0x8, addend: 0x0, symName: '__ZN3std4sync4once4Once15call_once_force28_$u7b$$u7b$closure$u7d$$u7d$17h86eb5e485ac225c3E', symObjAddr: 0x4F8, symBinAddr: 0x3E974, symSize: 0x68 }
  - { offset: 0x114C49, size: 0x8, addend: 0x0, symName: '__ZN100_$LT$core..iter..adapters..take..Take$LT$I$GT$$u20$as$u20$core..iter..traits..iterator..Iterator$GT$4next17h72c83a7e0f3f1050E', symObjAddr: 0x0, symBinAddr: 0x3E5EC, symSize: 0x58 }
  - { offset: 0x114C7E, size: 0x8, addend: 0x0, symName: '__ZN100_$LT$core..iter..adapters..take..Take$LT$I$GT$$u20$as$u20$core..iter..traits..iterator..Iterator$GT$9size_hint17h59f71dcfd5e368adE', symObjAddr: 0xB0, symBinAddr: 0x3E644, symSize: 0x100 }
  - { offset: 0x114E35, size: 0x8, addend: 0x0, symName: __ZN4core4iter6traits8iterator8Iterator3zip17h306062b7eb587a6eE, symObjAddr: 0xEC4, symBinAddr: 0x3EF28, symSize: 0xB0 }
  - { offset: 0x114EAB, size: 0x8, addend: 0x0, symName: __ZN4core4iter6traits8iterator8Iterator9enumerate17hbda02f69d12cc49cE, symObjAddr: 0xF8C, symBinAddr: 0x3EFD8, symSize: 0x18 }
  - { offset: 0x114EDC, size: 0x8, addend: 0x0, symName: __ZN4core4iter6traits8iterator8Iterator9enumerate17hbda02f69d12cc49cE, symObjAddr: 0xF8C, symBinAddr: 0x3EFD8, symSize: 0x18 }
  - { offset: 0x114FE1, size: 0x8, addend: 0x0, symName: '__ZN82_$LT$core..array..iter..IntoIter$LT$T$C$_$GT$$u20$as$u20$core..ops..drop..Drop$GT$4drop17hc8ed81fb88a61627E', symObjAddr: 0x3A44, symBinAddr: 0x3FA28, symSize: 0x30 }
  - { offset: 0x115038, size: 0x8, addend: 0x0, symName: '__ZN99_$LT$core..array..iter..IntoIter$LT$T$C$_$GT$$u20$as$u20$core..iter..traits..iterator..Iterator$GT$4next17h4d6915578f48bc3cE', symObjAddr: 0x4CF0, symBinAddr: 0x3FA58, symSize: 0x2C }
  - { offset: 0x11520B, size: 0x8, addend: 0x0, symName: '__ZN36_$LT$T$u20$as$u20$core..any..Any$GT$7type_id17hba97a4a4230ff0e7E', symObjAddr: 0x2C8, symBinAddr: 0x3E744, symSize: 0x20 }
  - { offset: 0x1152A5, size: 0x8, addend: 0x0, symName: '__ZN45_$LT$$LP$$RP$$u20$as$u20$core..fmt..Debug$GT$3fmt17hfecb7247f494173eE', symObjAddr: 0x5F0, symBinAddr: 0x3E9DC, symSize: 0x40 }
  - { offset: 0x11537C, size: 0x8, addend: 0x0, symName: __ZN4core3fmt5Write9write_fmt17hc17af4f8a50c58b5E, symObjAddr: 0x884, symBinAddr: 0x3EA40, symSize: 0x34 }
  - { offset: 0x1153C9, size: 0x8, addend: 0x0, symName: '__ZN75_$LT$$RF$mut$u20$W$u20$as$u20$core..fmt..Write..write_fmt..SpecWriteFmt$GT$14spec_write_fmt17h8b5845252e3eef47E', symObjAddr: 0x38DC, symBinAddr: 0x3F940, symSize: 0x98 }
  - { offset: 0x1157FE, size: 0x8, addend: 0x0, symName: '__ZN53_$LT$core..fmt..Error$u20$as$u20$core..fmt..Debug$GT$3fmt17h7d1f57f14426d2c1E', symObjAddr: 0x3188, symBinAddr: 0x3F300, symSize: 0x40 }
  - { offset: 0x115843, size: 0x8, addend: 0x0, symName: '__ZN54_$LT$$BP$const$u20$T$u20$as$u20$core..fmt..Pointer$GT$3fmt28_$u7b$$u7b$closure$u7d$$u7d$17hb416b23b55d60f85E', symObjAddr: 0x31C8, symBinAddr: 0x3F340, symSize: 0x34 }
  - { offset: 0x115A04, size: 0x8, addend: 0x0, symName: __ZN4core5slice3raw14from_raw_parts17hd27bfb1c56b32a85E, symObjAddr: 0x10BC, symBinAddr: 0x3EFF0, symSize: 0x58 }
  - { offset: 0x115A4C, size: 0x8, addend: 0x0, symName: __ZN4core5slice3raw14from_raw_parts18precondition_check17he17ac189671a148bE, symObjAddr: 0x116C, symBinAddr: 0x3F048, symSize: 0x10C }
  - { offset: 0x115CFE, size: 0x8, addend: 0x0, symName: __ZN4core3str8converts19from_utf8_unchecked17h15f28c981589eefdE, symObjAddr: 0xDB4, symBinAddr: 0x3EE40, symSize: 0x18 }
  - { offset: 0x115D9B, size: 0x8, addend: 0x0, symName: '__ZN4core4hash5impls49_$LT$impl$u20$core..hash..Hash$u20$for$u20$i8$GT$10hash_slice17h78b1ae56a880feabE', symObjAddr: 0xDCC, symBinAddr: 0x3EE58, symSize: 0x80 }
  - { offset: 0x115E63, size: 0x8, addend: 0x0, symName: '__ZN4core4hash5impls58_$LT$impl$u20$core..hash..Hash$u20$for$u20$$u5b$T$u5d$$GT$4hash17he52c3d1fd926bbaaE', symObjAddr: 0xE4C, symBinAddr: 0x3EED8, symSize: 0x50 }
  - { offset: 0x11604C, size: 0x8, addend: 0x0, symName: __ZN4core9core_arch10arm_shared4neon9generated13vget_lane_u6417h037103a4ecc47057E, symObjAddr: 0x13DC, symBinAddr: 0x3F154, symSize: 0x18 }
  - { offset: 0x11607B, size: 0x8, addend: 0x0, symName: __ZN4core9core_arch10arm_shared4neon9generated18vreinterpret_s8_u817h1bfa3dde1776b161E, symObjAddr: 0x13F4, symBinAddr: 0x3F16C, symSize: 0xC }
  - { offset: 0x1160A9, size: 0x8, addend: 0x0, symName: __ZN4core9core_arch10arm_shared4neon9generated19vreinterpret_u64_u817hfa31be79c985bab1E, symObjAddr: 0x1400, symBinAddr: 0x3F178, symSize: 0xC }
  - { offset: 0x1160D7, size: 0x8, addend: 0x0, symName: __ZN4core9core_arch10arm_shared4neon9generated7vceq_u817h0a5fb981e1f22187E, symObjAddr: 0x140C, symBinAddr: 0x3F184, symSize: 0x14 }
  - { offset: 0x116114, size: 0x8, addend: 0x0, symName: __ZN4core9core_arch10arm_shared4neon9generated7vorr_u817hd688e8658fe4a593E, symObjAddr: 0x1420, symBinAddr: 0x3F198, symSize: 0x14 }
  - { offset: 0x116151, size: 0x8, addend: 0x0, symName: __ZN4core9core_arch10arm_shared4neon9generated9vdup_n_u817ha92aa8349c765903E, symObjAddr: 0x1434, symBinAddr: 0x3F1AC, symSize: 0x2C }
  - { offset: 0x11623A, size: 0x8, addend: 0x0, symName: '__ZN50_$LT$T$u20$as$u20$core..convert..Into$LT$U$GT$$GT$4into17h986a5a1ce6f9b2dbE', symObjAddr: 0x3150, symBinAddr: 0x3F2EC, symSize: 0x14 }
  - { offset: 0x116376, size: 0x8, addend: 0x0, symName: '__ZN4pyo35types5tuple125_$LT$impl$u20$pyo3..conversion..IntoPy$LT$pyo3..instance..Py$LT$pyo3..types..any..PyAny$GT$$GT$$u20$for$u20$$LP$T0$C$$RP$$GT$7into_py17hb0ead85ddbdb166bE', symObjAddr: 0x2440, symBinAddr: 0x3F298, symSize: 0x54 }
  - { offset: 0x116446, size: 0x8, addend: 0x0, symName: '__ZN4pyo311conversions3std6string133_$LT$impl$u20$pyo3..conversion..IntoPy$LT$pyo3..instance..Py$LT$pyo3..types..any..PyAny$GT$$GT$$u20$for$u20$alloc..string..String$GT$7into_py17hc3830cf44f8e9ddfE', symObjAddr: 0x1F14, symBinAddr: 0x3F1D8, symSize: 0x8C }
  - { offset: 0x116492, size: 0x8, addend: 0x0, symName: '__ZN4pyo311conversions3std6string80_$LT$impl$u20$pyo3..conversion..ToPyObject$u20$for$u20$alloc..string..String$GT$9to_object17h9f98bdbd8f2df4d7E', symObjAddr: 0x1FA0, symBinAddr: 0x3F264, symSize: 0x34 }
  - { offset: 0x116526, size: 0x8, addend: 0x0, symName: '__ZN58_$LT$T$u20$as$u20$pyo3..err..err_state..PyErrArguments$GT$9arguments17h28fde9b7cc6434aaE', symObjAddr: 0x3258, symBinAddr: 0x3F3D0, symSize: 0x34 }
  - { offset: 0x116575, size: 0x8, addend: 0x0, symName: '__ZN58_$LT$T$u20$as$u20$pyo3..err..err_state..PyErrArguments$GT$9arguments17h9e24c7e9700a7ccfE', symObjAddr: 0x328C, symBinAddr: 0x3F404, symSize: 0x34 }
  - { offset: 0x1166BC, size: 0x8, addend: 0x0, symName: '__ZN45_$LT$T$u20$as$u20$alloc..string..ToString$GT$9to_string17h5f7d3d3d650dc326E', symObjAddr: 0x630, symBinAddr: 0x3EA1C, symSize: 0x24 }
  - { offset: 0x116717, size: 0x8, addend: 0x0, symName: '__ZN76_$LT$alloc..string..String$u20$as$u20$core..convert..From$LT$$RF$str$GT$$GT$4from17heffbcc651ff0ca7bE', symObjAddr: 0x3974, symBinAddr: 0x3F9D8, symSize: 0x50 }
  - { offset: 0x116804, size: 0x8, addend: 0x0, symName: '__ZN55_$LT$$RF$str$u20$as$u20$alloc..string..SpecToString$GT$14spec_to_string17h2f73d67eba02c223E', symObjAddr: 0x31FC, symBinAddr: 0x3F374, symSize: 0x5C }
  - { offset: 0x11692D, size: 0x8, addend: 0x0, symName: '__ZN58_$LT$alloc..string..String$u20$as$u20$core..fmt..Write$GT$10write_char17h564f372a61af22c2E', symObjAddr: 0x32C0, symBinAddr: 0x3F438, symSize: 0x30 }
  - { offset: 0x11696A, size: 0x8, addend: 0x0, symName: '__ZN58_$LT$alloc..string..String$u20$as$u20$core..fmt..Write$GT$9write_str17hc7c30b7b9d313826E', symObjAddr: 0x32F0, symBinAddr: 0x3F468, symSize: 0x38 }
  - { offset: 0x1169F8, size: 0x8, addend: 0x0, symName: '__ZN65_$LT$alloc..string..String$u20$as$u20$core..ops..deref..Deref$GT$5deref17he888ac92461981ccE', symObjAddr: 0x3790, symBinAddr: 0x3F7F4, symSize: 0x20 }
  - { offset: 0x116AB7, size: 0x8, addend: 0x0, symName: '__ZN60_$LT$alloc..string..String$u20$as$u20$core..fmt..Display$GT$3fmt17hb5cc039b656eca49E', symObjAddr: 0x373C, symBinAddr: 0x3F7B8, symSize: 0x3C }
  - { offset: 0x116F1A, size: 0x8, addend: 0x0, symName: '__ZN5alloc3str83_$LT$impl$u20$core..borrow..Borrow$LT$str$GT$$u20$for$u20$alloc..string..String$GT$6borrow17h4a7e7bd9388aa231E', symObjAddr: 0x3430, symBinAddr: 0x3F5A8, symSize: 0x20 }
  - { offset: 0x11711D, size: 0x8, addend: 0x0, symName: __ZN5alloc3fmt6format17h577cce5ac1bf8f10E, symObjAddr: 0x3328, symBinAddr: 0x3F4A0, symSize: 0xD8 }
  - { offset: 0x1171E1, size: 0x8, addend: 0x0, symName: '__ZN5alloc3fmt6format28_$u7b$$u7b$closure$u7d$$u7d$17hd6132c5fc2a68ebbE', symObjAddr: 0x3400, symBinAddr: 0x3F578, symSize: 0x30 }
  - { offset: 0x11722C, size: 0x8, addend: 0x0, symName: '__ZN66_$LT$T$u20$as$u20$alloc..ffi..c_str..CString..new..SpecNewImpl$GT$13spec_new_impl17h1e3c38f7d2f5f662E', symObjAddr: 0x37B0, symBinAddr: 0x3F814, symSize: 0x12C }
  - { offset: 0x11800C, size: 0x8, addend: 0x0, symName: __ZN3std4sync4once4Once15call_once_force17h7a2a74a6903af083E, symObjAddr: 0x2E8, symBinAddr: 0x3E764, symSize: 0xD4 }
  - { offset: 0x1180D1, size: 0x8, addend: 0x0, symName: __ZN3std4sync4once4Once15call_once_force17hf22e42dd58fa4cffE, symObjAddr: 0x3BC, symBinAddr: 0x3E838, symSize: 0xD4 }
  - { offset: 0x1182CE, size: 0x8, addend: 0x0, symName: __ZN4core3fmt9Arguments17from_str_nonconst17h969566dd179f506bE, symObjAddr: 0x8B8, symBinAddr: 0x3EA74, symSize: 0x28 }
  - { offset: 0x11835C, size: 0x8, addend: 0x0, symName: __ZN4core3fmt9Arguments23as_statically_known_str17h8775532a7cce18bdE, symObjAddr: 0x8E0, symBinAddr: 0x3EA9C, symSize: 0x104 }
  - { offset: 0x11846A, size: 0x8, addend: 0x0, symName: __ZN4core3fmt9Arguments3new17h0208400db8b17245E, symObjAddr: 0x9E4, symBinAddr: 0x3EBA0, symSize: 0x1C }
  - { offset: 0x1184D0, size: 0x8, addend: 0x0, symName: __ZN4core3fmt9Arguments3new17h0a371557ad7836b2E, symObjAddr: 0xA00, symBinAddr: 0x3EBBC, symSize: 0x1C }
  - { offset: 0x118536, size: 0x8, addend: 0x0, symName: __ZN4core3fmt9Arguments3new17h149f0a7568e572d7E, symObjAddr: 0xA38, symBinAddr: 0x3EBD8, symSize: 0x1C }
  - { offset: 0x118582, size: 0x8, addend: 0x0, symName: __ZN4core3fmt9Arguments3new17h25b7524b1a5cc83bE, symObjAddr: 0xA54, symBinAddr: 0x3EBF4, symSize: 0x1C }
  - { offset: 0x118602, size: 0x8, addend: 0x0, symName: __ZN4core3fmt9Arguments3new17h5fbb9a684473341bE, symObjAddr: 0xA8C, symBinAddr: 0x3EC10, symSize: 0x1C }
  - { offset: 0x11864E, size: 0x8, addend: 0x0, symName: __ZN4core3fmt9Arguments3new17h73dcac6b82297e9cE, symObjAddr: 0xAA8, symBinAddr: 0x3EC2C, symSize: 0x1C }
  - { offset: 0x11869A, size: 0x8, addend: 0x0, symName: __ZN4core3fmt9Arguments3new17h761a6ebc2e26486dE, symObjAddr: 0xAC4, symBinAddr: 0x3EC48, symSize: 0x1C }
  - { offset: 0x118700, size: 0x8, addend: 0x0, symName: __ZN4core3fmt9Arguments3new17h8d39016209fac1a6E, symObjAddr: 0xAFC, symBinAddr: 0x3EC64, symSize: 0x1C }
  - { offset: 0x118766, size: 0x8, addend: 0x0, symName: __ZN4core3fmt9Arguments3new17h9dea75e906186ca8E, symObjAddr: 0xB34, symBinAddr: 0x3EC80, symSize: 0x1C }
  - { offset: 0x1187B2, size: 0x8, addend: 0x0, symName: __ZN4core3fmt9Arguments3new17h9fd53b55842be4cbE, symObjAddr: 0xB50, symBinAddr: 0x3EC9C, symSize: 0x1C }
  - { offset: 0x1187E4, size: 0x8, addend: 0x0, symName: __ZN4core3fmt9Arguments3new17ha226dbdec15b4c7eE, symObjAddr: 0xB6C, symBinAddr: 0x3ECB8, symSize: 0x1C }
  - { offset: 0x118830, size: 0x8, addend: 0x0, symName: __ZN4core3fmt9Arguments3new17hbfd9963153fedf71E, symObjAddr: 0xBA4, symBinAddr: 0x3ECD4, symSize: 0x1C }
  - { offset: 0x11887C, size: 0x8, addend: 0x0, symName: __ZN4core3fmt9Arguments3new17hcc1d685a781b5efcE, symObjAddr: 0xBC0, symBinAddr: 0x3ECF0, symSize: 0x1C }
  - { offset: 0x1188FC, size: 0x8, addend: 0x0, symName: __ZN4core3fmt9Arguments3new17he89d7576de9ba41dE, symObjAddr: 0xC14, symBinAddr: 0x3ED0C, symSize: 0x1C }
  - { offset: 0x118948, size: 0x8, addend: 0x0, symName: __ZN4core3fmt9Arguments3new17he9f318acd9225333E, symObjAddr: 0xC30, symBinAddr: 0x3ED28, symSize: 0x1C }
  - { offset: 0x1189C8, size: 0x8, addend: 0x0, symName: __ZN4core3fmt9Arguments3new17hecff3277cd33d6bfE, symObjAddr: 0xC68, symBinAddr: 0x3ED44, symSize: 0x1C }
  - { offset: 0x118A2E, size: 0x8, addend: 0x0, symName: __ZN4core3fmt9Arguments3new17hf4f06270ce8901efE, symObjAddr: 0xCA0, symBinAddr: 0x3ED60, symSize: 0x1C }
  - { offset: 0x118A60, size: 0x8, addend: 0x0, symName: __ZN4core3fmt9Arguments8from_str17h92a1f34f3d21e143E, symObjAddr: 0xCBC, symBinAddr: 0x3ED7C, symSize: 0x20 }
  - { offset: 0x118A83, size: 0x8, addend: 0x0, symName: __ZN4core3fmt9Formatter9write_fmt17h53868ed1288b2f01E, symObjAddr: 0xCDC, symBinAddr: 0x3ED9C, symSize: 0xA4 }
  - { offset: 0x118ED5, size: 0x8, addend: 0x0, symName: __ZN5alloc6string6String4push17h5524edfd8e5555eeE, symObjAddr: 0x352C, symBinAddr: 0x3F5C8, symSize: 0x114 }
  - { offset: 0x119259, size: 0x8, addend: 0x0, symName: __ZN5alloc6string6String8push_str17he9e35a5883f36f2fE, symObjAddr: 0x3660, symBinAddr: 0x3F6DC, symSize: 0xDC }
  - { offset: 0x119FBA, size: 0x8, addend: 0x0, symName: __ZN4core3ptr9alignment9Alignment13new_unchecked18precondition_check17ha5eca2e12be4b1f6E, symObjAddr: 0x7D8, symBinAddr: 0x3FB30, symSize: 0x70 }
  - { offset: 0x11A845, size: 0x8, addend: 0x0, symName: '__ZN74_$LT$core..cell..RefMut$LT$T$GT$$u20$as$u20$core..ops..deref..DerefMut$GT$9deref_mut17hc15204d61b684211E', symObjAddr: 0x765C, symBinAddr: 0x42834, symSize: 0x18 }
  - { offset: 0x11A98B, size: 0x8, addend: 0x0, symName: '__ZN66_$LT$core..cell..BorrowRefMut$u20$as$u20$core..ops..drop..Drop$GT$4drop17h32017a4a8c6f39e6E', symObjAddr: 0x75D8, symBinAddr: 0x427F4, symSize: 0x28 }
  - { offset: 0x11A9FB, size: 0x8, addend: 0x0, symName: '__ZN71_$LT$core..cell..RefMut$LT$T$GT$$u20$as$u20$core..ops..deref..Deref$GT$5deref17h0cc0357d7877b3d8E', symObjAddr: 0x7644, symBinAddr: 0x4281C, symSize: 0x18 }
  - { offset: 0x11BE5D, size: 0x8, addend: 0x0, symName: '__ZN4core3fmt3num52_$LT$impl$u20$core..fmt..Debug$u20$for$u20$usize$GT$3fmt17h9b3371df4e8cf12dE', symObjAddr: 0x6E4, symBinAddr: 0x3FAA0, symSize: 0x90 }
  - { offset: 0x11C355, size: 0x8, addend: 0x0, symName: __ZN4core9ub_checks23maybe_is_nonoverlapping7runtime17h468089e90b524ef9E, symObjAddr: 0xB90, symBinAddr: 0x3FDF0, symSize: 0xD8 }
  - { offset: 0x11C681, size: 0x8, addend: 0x0, symName: '__ZN4pyo33err5PyErr3new28_$u7b$$u7b$closure$u7d$$u7d$17h151280f1ebf78866E', symObjAddr: 0x4434, symBinAddr: 0x4138C, symSize: 0xC0 }
  - { offset: 0x11C6D9, size: 0x8, addend: 0x0, symName: '__ZN4pyo33err5PyErr3new28_$u7b$$u7b$closure$u7d$$u7d$17h290b0c014f19789fE', symObjAddr: 0x4720, symBinAddr: 0x4144C, symSize: 0xD4 }
  - { offset: 0x11C732, size: 0x8, addend: 0x0, symName: '__ZN4pyo33err5PyErr3new28_$u7b$$u7b$closure$u7d$$u7d$17h36a6771e823bb08dE', symObjAddr: 0x4974, symBinAddr: 0x41520, symSize: 0xD4 }
  - { offset: 0x11C78B, size: 0x8, addend: 0x0, symName: '__ZN4pyo33err5PyErr3new28_$u7b$$u7b$closure$u7d$$u7d$17h63677e2e3de08b9aE', symObjAddr: 0x4A48, symBinAddr: 0x415F4, symSize: 0xD4 }
  - { offset: 0x11C7E4, size: 0x8, addend: 0x0, symName: '__ZN4pyo33err5PyErr3new28_$u7b$$u7b$closure$u7d$$u7d$17h6b7b0c76455ee194E', symObjAddr: 0x4B1C, symBinAddr: 0x416C8, symSize: 0xC0 }
  - { offset: 0x11C83C, size: 0x8, addend: 0x0, symName: '__ZN4pyo33err5PyErr3new28_$u7b$$u7b$closure$u7d$$u7d$17h6dec34846191f741E', symObjAddr: 0x4C9C, symBinAddr: 0x41788, symSize: 0xD4 }
  - { offset: 0x11C895, size: 0x8, addend: 0x0, symName: '__ZN4pyo33err5PyErr3new28_$u7b$$u7b$closure$u7d$$u7d$17haa72f8b58f2fe13aE', symObjAddr: 0x5128, symBinAddr: 0x4185C, symSize: 0xD4 }
  - { offset: 0x11C8EE, size: 0x8, addend: 0x0, symName: '__ZN4pyo33err5PyErr3new28_$u7b$$u7b$closure$u7d$$u7d$17hb1c17359b33954ecE', symObjAddr: 0x52B4, symBinAddr: 0x41930, symSize: 0xC0 }
  - { offset: 0x11C946, size: 0x8, addend: 0x0, symName: '__ZN4pyo33err5PyErr3new28_$u7b$$u7b$closure$u7d$$u7d$17hd11cf1963e08e3b6E', symObjAddr: 0x5674, symBinAddr: 0x419F0, symSize: 0xD4 }
  - { offset: 0x11C99F, size: 0x8, addend: 0x0, symName: '__ZN4pyo33err5PyErr3new28_$u7b$$u7b$closure$u7d$$u7d$17hdebf6c1c14401e70E', symObjAddr: 0x5988, symBinAddr: 0x41AC4, symSize: 0xC0 }
  - { offset: 0x11C9F7, size: 0x8, addend: 0x0, symName: '__ZN4pyo33err5PyErr3new28_$u7b$$u7b$closure$u7d$$u7d$17he815adb73b9eec0bE', symObjAddr: 0x5C80, symBinAddr: 0x41B84, symSize: 0xD4 }
  - { offset: 0x11CA56, size: 0x8, addend: 0x0, symName: '__ZN4pyo33err5PyErr14new_type_bound28_$u7b$$u7b$closure$u7d$$u7d$17h4d15be678e94652aE', symObjAddr: 0x257C, symBinAddr: 0x40834, symSize: 0x50 }
  - { offset: 0x11CA9C, size: 0x8, addend: 0x0, symName: '__ZN4pyo33err5PyErr5_take28_$u7b$$u7b$closure$u7d$$u7d$17h97dc2e57b871d55fE', symObjAddr: 0x5F84, symBinAddr: 0x41E88, symSize: 0x64 }
  - { offset: 0x11CAD2, size: 0x8, addend: 0x0, symName: '__ZN4pyo33err5PyErr5_take28_$u7b$$u7b$closure$u7d$$u7d$17hc464431145476981E', symObjAddr: 0x5FE8, symBinAddr: 0x41EEC, symSize: 0x7C }
  - { offset: 0x11CB1F, size: 0x8, addend: 0x0, symName: '__ZN4pyo33err5PyErr9set_cause28_$u7b$$u7b$closure$u7d$$u7d$17hd94e0f1b04554b65E', symObjAddr: 0x6378, symBinAddr: 0x42250, symSize: 0x34 }
  - { offset: 0x11D663, size: 0x8, addend: 0x0, symName: __ZN4pyo33err17error_on_minusone17h2a9e37e3b39679baE, symObjAddr: 0x14D8, symBinAddr: 0x400A0, symSize: 0xC0 }
  - { offset: 0x11D6B5, size: 0x8, addend: 0x0, symName: __ZN4pyo33err17error_on_minusone17h73b052272b4d9494E, symObjAddr: 0x1658, symBinAddr: 0x40160, symSize: 0xC0 }
  - { offset: 0x11D707, size: 0x8, addend: 0x0, symName: __ZN4pyo33err17panic_after_error17h7790bbf5a2004c7cE, symObjAddr: 0x1718, symBinAddr: 0x40220, symSize: 0x30 }
  - { offset: 0x11D747, size: 0x8, addend: 0x0, symName: '__ZN4pyo33err5impls101_$LT$impl$u20$core..convert..From$LT$alloc..ffi..c_str..NulError$GT$$u20$for$u20$pyo3..err..PyErr$GT$4from17h955897399a4ac8adE', symObjAddr: 0x63AC, symBinAddr: 0x42284, symSize: 0x34 }
  - { offset: 0x11D77B, size: 0x8, addend: 0x0, symName: '__ZN53_$LT$pyo3..err..PyErr$u20$as$u20$core..fmt..Debug$GT$3fmt17h83a39822c45d7657E', symObjAddr: 0x6FC0, symBinAddr: 0x42650, symSize: 0x38 }
  - { offset: 0x11D7BD, size: 0x8, addend: 0x0, symName: '__ZN53_$LT$pyo3..err..PyErr$u20$as$u20$core..fmt..Debug$GT$3fmt28_$u7b$$u7b$closure$u7d$$u7d$17hd4e8bc59d018a687E', symObjAddr: 0x6FF8, symBinAddr: 0x42688, symSize: 0x16C }
  - { offset: 0x11D822, size: 0x8, addend: 0x0, symName: '__ZN88_$LT$pyo3..err..PyErr$u20$as$u20$core..convert..From$LT$pyo3..err..DowncastError$GT$$GT$4from17he65535246e7dd3c0E', symObjAddr: 0x76E0, symBinAddr: 0x4284C, symSize: 0xE8 }
  - { offset: 0x11D875, size: 0x8, addend: 0x0, symName: '__ZN92_$LT$pyo3..err..PyDowncastErrorArguments$u20$as$u20$pyo3..err..err_state..PyErrArguments$GT$9arguments17hc077c0c890688928E', symObjAddr: 0x7910, symBinAddr: 0x42934, symSize: 0x230 }
  - { offset: 0x11D95F, size: 0x8, addend: 0x0, symName: '__ZN92_$LT$pyo3..err..PyErr$u20$as$u20$core..convert..From$LT$pyo3..err..DowncastIntoError$GT$$GT$4from17h533f1be6ee87fc14E', symObjAddr: 0x7B40, symBinAddr: 0x42B64, symSize: 0xF4 }
  - { offset: 0x11DDE7, size: 0x8, addend: 0x0, symName: '__ZN4pyo35impl_8pymodule9ModuleDef11make_module28_$u7b$$u7b$closure$u7d$$u7d$17h1ca08aaa5b59f9ffE', symObjAddr: 0x6AB0, symBinAddr: 0x42424, symSize: 0x30 }
  - { offset: 0x11DE2C, size: 0x8, addend: 0x0, symName: '__ZN4pyo35impl_8pymodule9ModuleDef11make_module28_$u7b$$u7b$closure$u7d$$u7d$17h2e461dd9f28da289E', symObjAddr: 0x6AE0, symBinAddr: 0x42454, symSize: 0x190 }
  - { offset: 0x11E0AD, size: 0x8, addend: 0x0, symName: '__ZN4pyo36pycell101_$LT$impl$u20$core..convert..From$LT$pyo3..pycell..PyBorrowError$GT$$u20$for$u20$pyo3..err..PyErr$GT$4from17ha723f1dfade50e4aE', symObjAddr: 0x6EF0, symBinAddr: 0x42618, symSize: 0x38 }
  - { offset: 0x11F34E, size: 0x8, addend: 0x0, symName: __ZN3std6thread6thread6Thread2id17h929373dd51f6b608E, symObjAddr: 0x490, symBinAddr: 0x3FA84, symSize: 0x1C }
  - { offset: 0x11F478, size: 0x8, addend: 0x0, symName: '__ZN4core4cell13Cell$LT$T$GT$3get17h6b2b90bb17ff16b8E', symObjAddr: 0x848, symBinAddr: 0x3FBA0, symSize: 0x18 }
  - { offset: 0x11F4B1, size: 0x8, addend: 0x0, symName: '__ZN4core4cell13Cell$LT$T$GT$3get17h7d21f2d3aec46a09E', symObjAddr: 0x860, symBinAddr: 0x3FBB8, symSize: 0x18 }
  - { offset: 0x11F505, size: 0x8, addend: 0x0, symName: '__ZN4core4cell13Cell$LT$T$GT$3set17h4c456c6abc66abd4E', symObjAddr: 0x878, symBinAddr: 0x3FBD0, symSize: 0x1C }
  - { offset: 0x11F5A3, size: 0x8, addend: 0x0, symName: '__ZN4core4cell13Cell$LT$T$GT$3set17h8f0b4ffd4db560e8E', symObjAddr: 0x894, symBinAddr: 0x3FBEC, symSize: 0x1C }
  - { offset: 0x11F6CC, size: 0x8, addend: 0x0, symName: '__ZN4core4cell13Cell$LT$T$GT$4take17h8c50e63d815570fdE', symObjAddr: 0x8B0, symBinAddr: 0x3FC08, symSize: 0x3C }
